
sw/applications/PQClean/test/crypto_kem/testvectors-kyber1024_clean.elf:     file format elf32-littleriscv


Disassembly of section .vectors:

00000000 <__vector_start>:
   0:	75c0406f          	j	475c <handler_exception>
   4:	6d50006f          	j	ed8 <__no_irq_handler>
   8:	6d10006f          	j	ed8 <__no_irq_handler>
   c:	0e90406f          	j	48f4 <handler_irq_software>
  10:	6c90006f          	j	ed8 <__no_irq_handler>
  14:	6c50006f          	j	ed8 <__no_irq_handler>
  18:	6c10006f          	j	ed8 <__no_irq_handler>
  1c:	1090406f          	j	4924 <handler_irq_timer>
  20:	6b90006f          	j	ed8 <__no_irq_handler>
  24:	6b50006f          	j	ed8 <__no_irq_handler>
  28:	6b10006f          	j	ed8 <__no_irq_handler>
  2c:	1290406f          	j	4954 <handler_irq_external>
  30:	6a90006f          	j	ed8 <__no_irq_handler>
  34:	6a50006f          	j	ed8 <__no_irq_handler>
  38:	6a10006f          	j	ed8 <__no_irq_handler>
  3c:	69d0006f          	j	ed8 <__no_irq_handler>
  40:	1a50406f          	j	49e4 <handler_irq_fast_timer_1>
  44:	1f90406f          	j	4a3c <handler_irq_fast_timer_2>
  48:	24d0406f          	j	4a94 <handler_irq_fast_timer_3>
  4c:	17d0406f          	j	49c8 <handler_irq_fast_dma>
  50:	29d0406f          	j	4aec <handler_irq_fast_spi>
  54:	2f10406f          	j	4b44 <handler_irq_fast_spi_flash>
  58:	3450406f          	j	4b9c <handler_irq_fast_gpio_0>
  5c:	3990406f          	j	4bf4 <handler_irq_fast_gpio_1>
  60:	3ed0406f          	j	4c4c <handler_irq_fast_gpio_2>
  64:	4410406f          	j	4ca4 <handler_irq_fast_gpio_3>
  68:	4950406f          	j	4cfc <handler_irq_fast_gpio_4>
  6c:	4e90406f          	j	4d54 <handler_irq_fast_gpio_5>
  70:	5410406f          	j	4db0 <handler_irq_fast_gpio_6>
  74:	5950406f          	j	4e08 <handler_irq_fast_gpio_7>
  78:	6610006f          	j	ed8 <__no_irq_handler>
  7c:	65d0006f          	j	ed8 <__no_irq_handler>
  80:	6e10006f          	j	f60 <verification_irq_handler>
  84:	6550006f          	j	ed8 <__no_irq_handler>
  88:	6510006f          	j	ed8 <__no_irq_handler>
  8c:	64d0006f          	j	ed8 <__no_irq_handler>
  90:	6490006f          	j	ed8 <__no_irq_handler>
  94:	6450006f          	j	ed8 <__no_irq_handler>
  98:	6410006f          	j	ed8 <__no_irq_handler>
  9c:	63d0006f          	j	ed8 <__no_irq_handler>
  a0:	6390006f          	j	ed8 <__no_irq_handler>
  a4:	6350006f          	j	ed8 <__no_irq_handler>
  a8:	6310006f          	j	ed8 <__no_irq_handler>
  ac:	62d0006f          	j	ed8 <__no_irq_handler>
  b0:	6290006f          	j	ed8 <__no_irq_handler>
  b4:	6250006f          	j	ed8 <__no_irq_handler>
  b8:	6210006f          	j	ed8 <__no_irq_handler>
  bc:	61d0006f          	j	ed8 <__no_irq_handler>
  c0:	6190006f          	j	ed8 <__no_irq_handler>
  c4:	6150006f          	j	ed8 <__no_irq_handler>
  c8:	6110006f          	j	ed8 <__no_irq_handler>
  cc:	60d0006f          	j	ed8 <__no_irq_handler>
  d0:	6090006f          	j	ed8 <__no_irq_handler>
  d4:	6050006f          	j	ed8 <__no_irq_handler>
  d8:	6010006f          	j	ed8 <__no_irq_handler>
  dc:	5fd0006f          	j	ed8 <__no_irq_handler>
  e0:	5f90006f          	j	ed8 <__no_irq_handler>
  e4:	5f50006f          	j	ed8 <__no_irq_handler>
  e8:	5f10006f          	j	ed8 <__no_irq_handler>
  ec:	5ed0006f          	j	ed8 <__no_irq_handler>
  f0:	5e90006f          	j	ed8 <__no_irq_handler>
  f4:	5e50006f          	j	ed8 <__no_irq_handler>
  f8:	5e10006f          	j	ed8 <__no_irq_handler>
  fc:	5dd0006f          	j	ed8 <__no_irq_handler>
 100:	5d90006f          	j	ed8 <__no_irq_handler>

Disassembly of section .init:

00000180 <_start>:
 180:	00081197          	auipc	gp,0x81
 184:	cf418193          	addi	gp,gp,-780 # 80e74 <__global_pointer$>
 188:	000e0117          	auipc	sp,0xe0
 18c:	75810113          	addi	sp,sp,1880 # e08e0 <_sp>
 190:	20000537          	lui	a0,0x20000
 194:	05f5e637          	lui	a2,0x5f5e
 198:	10060613          	addi	a2,a2,256 # 5f5e100 <_sp+0x5e7d820>
 19c:	cd50                	sw	a2,28(a0)

0000019e <_init_bss>:
 19e:	00080517          	auipc	a0,0x80
 1a2:	54650513          	addi	a0,a0,1350 # 806e4 <outleft>
 1a6:	00080617          	auipc	a2,0x80
 1aa:	72e60613          	addi	a2,a2,1838 # 808d4 <__BSS_END__>
 1ae:	8e09                	sub	a2,a2,a0
 1b0:	4581                	li	a1,0
 1b2:	557040ef          	jal	ra,4f08 <memset>
 1b6:	00000517          	auipc	a0,0x0
 1ba:	e4a50513          	addi	a0,a0,-438 # 0 <__vector_start>
 1be:	00156513          	ori	a0,a0,1
 1c2:	30551073          	csrw	mtvec,a0
 1c6:	00005517          	auipc	a0,0x5
 1ca:	ca250513          	addi	a0,a0,-862 # 4e68 <__libc_fini_array>
 1ce:	491040ef          	jal	ra,4e5e <atexit>
 1d2:	4d1040ef          	jal	ra,4ea2 <__libc_init_array>
 1d6:	4502                	lw	a0,0(sp)
 1d8:	004c                	addi	a1,sp,4
 1da:	4601                	li	a2,0
 1dc:	03a000ef          	jal	ra,216 <main>
 1e0:	00c0006f          	j	1ec <exit>

000001e4 <_init>:
 1e4:	464040ef          	jal	ra,4648 <init>

000001e8 <_fini>:
 1e8:	8082                	ret

Disassembly of section .text:

000001ec <exit>:
     1ec:	1141                	addi	sp,sp,-16
     1ee:	6795                	lui	a5,0x5
     1f0:	c422                	sw	s0,8(sp)
     1f2:	c606                	sw	ra,12(sp)
     1f4:	35a78793          	addi	a5,a5,858 # 535a <__call_exitprocs>
     1f8:	842a                	mv	s0,a0
     1fa:	c781                	beqz	a5,202 <exit+0x16>
     1fc:	4581                	li	a1,0
     1fe:	15c050ef          	jal	ra,535a <__call_exitprocs>
     202:	000807b7          	lui	a5,0x80
     206:	6d47a503          	lw	a0,1748(a5) # 806d4 <_global_impure_ptr>
     20a:	551c                	lw	a5,40(a0)
     20c:	c391                	beqz	a5,210 <exit+0x24>
     20e:	9782                	jalr	a5
     210:	8522                	mv	a0,s0
     212:	43e040ef          	jal	ra,4650 <_exit>

00000216 <main>:
     216:	72ed                	lui	t0,0xffffb
     218:	7139                	addi	sp,sp,-64
     21a:	31028293          	addi	t0,t0,784 # ffffb310 <_sp+0xfff1aa30>
     21e:	00080537          	lui	a0,0x80
     222:	de06                	sw	ra,60(sp)
     224:	dc26                	sw	s1,56(sp)
     226:	da4a                	sw	s2,52(sp)
     228:	d84e                	sw	s3,48(sp)
     22a:	d652                	sw	s4,44(sp)
     22c:	d456                	sw	s5,40(sp)
     22e:	d25a                	sw	s6,36(sp)
     230:	d05e                	sw	s7,32(sp)
     232:	ce62                	sw	s8,28(sp)
     234:	cc66                	sw	s9,24(sp)
     236:	ca6a                	sw	s10,20(sp)
     238:	c86e                	sw	s11,16(sp)
     23a:	0dc50513          	addi	a0,a0,220 # 800dc <no_exception_handler_msg+0x47>
     23e:	9116                	add	sp,sp,t0
     240:	5b7040ef          	jal	ra,4ff6 <puts>
     244:	655000ef          	jal	ra,1098 <init_ip>
     248:	4785                	li	a5,1
     24a:	3207b073          	csrc	mcountinhibit,a5
     24e:	4781                	li	a5,0
     250:	b0079073          	csrw	mcycle,a5
     254:	6995                	lui	s3,0x5
     256:	74ed                	lui	s1,0xffffb
     258:	34048913          	addi	s2,s1,832 # ffffb340 <_sp+0xfff1aa60>
     25c:	ce098793          	addi	a5,s3,-800 # 4ce0 <handler_irq_fast_gpio_3+0x3c>
     260:	97ca                	add	a5,a5,s2
     262:	1018                	addi	a4,sp,32
     264:	00e78933          	add	s2,a5,a4
     268:	854a                	mv	a0,s2
     26a:	04000593          	li	a1,64
     26e:	7db020ef          	jal	ra,3248 <randombytes>
     272:	38048493          	addi	s1,s1,896
     276:	ce098793          	addi	a5,s3,-800
     27a:	97a6                	add	a5,a5,s1
     27c:	1018                	addi	a4,sp,32
     27e:	00e784b3          	add	s1,a5,a4
     282:	85ca                	mv	a1,s2
     284:	8526                	mv	a0,s1
     286:	02000613          	li	a2,32
     28a:	6db020ef          	jal	ra,3164 <sha3_512>
     28e:	7579                	lui	a0,0xffffe
     290:	ce098793          	addi	a5,s3,-800
     294:	97aa                	add	a5,a5,a0
     296:	1018                	addi	a4,sp,32
     298:	00e78533          	add	a0,a5,a4
     29c:	85a6                	mv	a1,s1
     29e:	4601                	li	a2,0
     2a0:	894e                	mv	s2,s3
     2a2:	0a3030ef          	jal	ra,3b44 <PQCLEAN_KYBER1024_CLEAN_gen_matrix>
     2a6:	79f5                	lui	s3,0xffffd
     2a8:	ba098993          	addi	s3,s3,-1120 # ffffcba0 <_sp+0xfff1c2c0>
     2ac:	ce090793          	addi	a5,s2,-800
     2b0:	97ce                	add	a5,a5,s3
     2b2:	1018                	addi	a4,sp,32
     2b4:	00e789b3          	add	s3,a5,a4
     2b8:	8a4e                	mv	s4,s3
     2ba:	4901                	li	s2,0
     2bc:	02048493          	addi	s1,s1,32
     2c0:	4a91                	li	s5,4
     2c2:	0ff97613          	zext.b	a2,s2
     2c6:	8552                	mv	a0,s4
     2c8:	85a6                	mv	a1,s1
     2ca:	0905                	addi	s2,s2,1
     2cc:	680030ef          	jal	ra,394c <PQCLEAN_KYBER1024_CLEAN_poly_getnoise_eta1>
     2d0:	200a0a13          	addi	s4,s4,512
     2d4:	ff5917e3          	bne	s2,s5,2c2 <main+0xac>
     2d8:	6715                	lui	a4,0x5
     2da:	7af1                	lui	s5,0xffffc
     2dc:	ba0a8a93          	addi	s5,s5,-1120 # ffffbba0 <_sp+0xfff1b2c0>
     2e0:	ce070793          	addi	a5,a4,-800 # 4ce0 <handler_irq_fast_gpio_3+0x3c>
     2e4:	97d6                	add	a5,a5,s5
     2e6:	1014                	addi	a3,sp,32
     2e8:	00d78933          	add	s2,a5,a3
     2ec:	7a6d                	lui	s4,0xffffb
     2ee:	ce070793          	addi	a5,a4,-800
     2f2:	97d2                	add	a5,a5,s4
     2f4:	00d78a33          	add	s4,a5,a3
     2f8:	c84a                	sw	s2,16(sp)
     2fa:	4491                	li	s1,4
     2fc:	3a0a0a13          	addi	s4,s4,928 # ffffb3a0 <_sp+0xfff1aac0>
     300:	4b21                	li	s6,8
     302:	8626                	mv	a2,s1
     304:	0485                	addi	s1,s1,1
     306:	854a                	mv	a0,s2
     308:	85d2                	mv	a1,s4
     30a:	0ff4f493          	zext.b	s1,s1
     30e:	63e030ef          	jal	ra,394c <PQCLEAN_KYBER1024_CLEAN_poly_getnoise_eta1>
     312:	20090913          	addi	s2,s2,512
     316:	ff6496e3          	bne	s1,s6,302 <main+0xec>
     31a:	74f5                	lui	s1,0xffffd
     31c:	6795                	lui	a5,0x5
     31e:	8a3e                	mv	s4,a5
     320:	ba048c13          	addi	s8,s1,-1120 # ffffcba0 <_sp+0xfff1c2c0>
     324:	ce078793          	addi	a5,a5,-800 # 4ce0 <handler_irq_fast_gpio_3+0x3c>
     328:	1018                	addi	a4,sp,32
     32a:	97e2                	add	a5,a5,s8
     32c:	97ba                	add	a5,a5,a4
     32e:	853e                	mv	a0,a5
     330:	ce3e                	sw	a5,28(sp)
     332:	7971                	lui	s2,0xffffc
     334:	797000ef          	jal	ra,12ca <PQCLEAN_KYBER1024_CLEAN_polyvec_ntt>
     338:	ba090513          	addi	a0,s2,-1120 # ffffbba0 <_sp+0xfff1b2c0>
     33c:	ce0a0793          	addi	a5,s4,-800
     340:	97aa                	add	a5,a5,a0
     342:	1018                	addi	a4,sp,32
     344:	00e78533          	add	a0,a5,a4
     348:	783000ef          	jal	ra,12ca <PQCLEAN_KYBER1024_CLEAN_polyvec_ntt>
     34c:	3a090913          	addi	s2,s2,928
     350:	ce0a0713          	addi	a4,s4,-800
     354:	87d2                	mv	a5,s4
     356:	974a                	add	a4,a4,s2
     358:	1014                	addi	a3,sp,32
     35a:	00d70a33          	add	s4,a4,a3
     35e:	7b79                	lui	s6,0xffffe
     360:	ce078713          	addi	a4,a5,-800
     364:	975a                	add	a4,a4,s6
     366:	00d70b33          	add	s6,a4,a3
     36a:	6705                	lui	a4,0x1
     36c:	80070693          	addi	a3,a4,-2048 # 800 <main+0x5ea>
     370:	96ce                	add	a3,a3,s3
     372:	3a048f13          	addi	t5,s1,928
     376:	ce078793          	addi	a5,a5,-800
     37a:	97fa                	add	a5,a5,t5
     37c:	c636                	sw	a3,12(sp)
     37e:	1014                	addi	a3,sp,32
     380:	200a0d13          	addi	s10,s4,512
     384:	00d78c33          	add	s8,a5,a3
     388:	6315                	lui	t1,0x5
     38a:	77fd                	lui	a5,0xfffff
     38c:	cc52                	sw	s4,24(sp)
     38e:	8aea                	mv	s5,s10
     390:	ca02                	sw	zero,20(sp)
     392:	ebf30913          	addi	s2,t1,-321 # 4ebf <__libc_init_array+0x1d>
     396:	d0170d93          	addi	s11,a4,-767
     39a:	30178c93          	addi	s9,a5,769 # fffff301 <_sp+0xfff1ea21>
     39e:	49f2                	lw	s3,28(sp)
     3a0:	85da                	mv	a1,s6
     3a2:	8552                	mv	a0,s4
     3a4:	864e                	mv	a2,s3
     3a6:	178010ef          	jal	ra,151e <PQCLEAN_KYBER1024_CLEAN_poly_basemul_montgomery>
     3aa:	47d2                	lw	a5,20(sp)
     3ac:	200b0b93          	addi	s7,s6,512 # ffffe200 <_sp+0xfff1d920>
     3b0:	20098993          	addi	s3,s3,512
     3b4:	00779493          	slli	s1,a5,0x7
     3b8:	47e2                	lw	a5,24(sp)
     3ba:	94be                	add	s1,s1,a5
     3bc:	864e                	mv	a2,s3
     3be:	85de                	mv	a1,s7
     3c0:	8562                	mv	a0,s8
     3c2:	15c010ef          	jal	ra,151e <PQCLEAN_KYBER1024_CLEAN_poly_basemul_montgomery>
     3c6:	8762                	mv	a4,s8
     3c8:	200c0f93          	addi	t6,s8,512
     3cc:	87a6                	mv	a5,s1
     3ce:	0007d683          	lhu	a3,0(a5)
     3d2:	00075503          	lhu	a0,0(a4)
     3d6:	0789                	addi	a5,a5,2
     3d8:	0709                	addi	a4,a4,2
     3da:	96aa                	add	a3,a3,a0
     3dc:	fed79f23          	sh	a3,-2(a5)
     3e0:	feef97e3          	bne	t6,a4,3ce <main+0x1b8>
     3e4:	47b2                	lw	a5,12(sp)
     3e6:	20098993          	addi	s3,s3,512
     3ea:	200b8b93          	addi	s7,s7,512
     3ee:	fd3797e3          	bne	a5,s3,3bc <main+0x1a6>
     3f2:	8752                	mv	a4,s4
     3f4:	02000637          	lui	a2,0x2000
     3f8:	00071683          	lh	a3,0(a4)
     3fc:	0709                	addi	a4,a4,2
     3fe:	032687b3          	mul	a5,a3,s2
     402:	97b2                	add	a5,a5,a2
     404:	87e9                	srai	a5,a5,0x1a
     406:	03b787b3          	mul	a5,a5,s11
     40a:	8e9d                	sub	a3,a3,a5
     40c:	fed71f23          	sh	a3,-2(a4)
     410:	feea94e3          	bne	s5,a4,3f8 <main+0x1e2>
     414:	77fd                	lui	a5,0xfffff
     416:	8752                	mv	a4,s4
     418:	54900593          	li	a1,1353
     41c:	2ff78613          	addi	a2,a5,767 # fffff2ff <_sp+0xfff1ea1f>
     420:	00071683          	lh	a3,0(a4)
     424:	0709                	addi	a4,a4,2
     426:	02b686b3          	mul	a3,a3,a1
     42a:	039687b3          	mul	a5,a3,s9
     42e:	07c2                	slli	a5,a5,0x10
     430:	87c1                	srai	a5,a5,0x10
     432:	02c787b3          	mul	a5,a5,a2
     436:	97b6                	add	a5,a5,a3
     438:	87c1                	srai	a5,a5,0x10
     43a:	fef71f23          	sh	a5,-2(a4)
     43e:	feea91e3          	bne	s5,a4,420 <main+0x20a>
     442:	47d2                	lw	a5,20(sp)
     444:	6685                	lui	a3,0x1
     446:	80068693          	addi	a3,a3,-2048 # 800 <main+0x5ea>
     44a:	00478713          	addi	a4,a5,4
     44e:	ca3a                	sw	a4,20(sp)
     450:	47c1                	li	a5,16
     452:	200a0a13          	addi	s4,s4,512
     456:	9b36                	add	s6,s6,a3
     458:	200a8a93          	addi	s5,s5,512
     45c:	f4f711e3          	bne	a4,a5,39e <main+0x188>
     460:	6785                	lui	a5,0x1
     462:	a0078c93          	addi	s9,a5,-1536 # a00 <main+0x7ea>
     466:	47e2                	lw	a5,24(sp)
     468:	85ea                	mv	a1,s10
     46a:	01978933          	add	s2,a5,s9
     46e:	46c2                	lw	a3,16(sp)
     470:	e0058793          	addi	a5,a1,-512
     474:	0007d703          	lhu	a4,0(a5)
     478:	0006d603          	lhu	a2,0(a3)
     47c:	0789                	addi	a5,a5,2
     47e:	0689                	addi	a3,a3,2
     480:	9732                	add	a4,a4,a2
     482:	fee79f23          	sh	a4,-2(a5)
     486:	fef597e3          	bne	a1,a5,474 <main+0x25e>
     48a:	47c2                	lw	a5,16(sp)
     48c:	20058593          	addi	a1,a1,512
     490:	20078793          	addi	a5,a5,512
     494:	c83e                	sw	a5,16(sp)
     496:	fd259ce3          	bne	a1,s2,46e <main+0x258>
     49a:	6495                	lui	s1,0x5
     49c:	6a85                	lui	s5,0x1
     49e:	ebf48513          	addi	a0,s1,-321 # 4ebf <__libc_init_array+0x1d>
     4a2:	020005b7          	lui	a1,0x2000
     4a6:	d01a8613          	addi	a2,s5,-767 # d01 <main+0xaeb>
     4aa:	e00d0713          	addi	a4,s10,-512
     4ae:	00071683          	lh	a3,0(a4)
     4b2:	0709                	addi	a4,a4,2
     4b4:	02a687b3          	mul	a5,a3,a0
     4b8:	97ae                	add	a5,a5,a1
     4ba:	87e9                	srai	a5,a5,0x1a
     4bc:	02c787b3          	mul	a5,a5,a2
     4c0:	8e9d                	sub	a3,a3,a5
     4c2:	fed71f23          	sh	a3,-2(a4)
     4c6:	feed14e3          	bne	s10,a4,4ae <main+0x298>
     4ca:	200d0d13          	addi	s10,s10,512
     4ce:	fd2d1ee3          	bne	s10,s2,4aa <main+0x294>
     4d2:	7a75                	lui	s4,0xffffd
     4d4:	6795                	lui	a5,0x5
     4d6:	8b3e                	mv	s6,a5
     4d8:	ba0a0593          	addi	a1,s4,-1120 # ffffcba0 <_sp+0xfff1c2c0>
     4dc:	3a0a0513          	addi	a0,s4,928
     4e0:	ce078713          	addi	a4,a5,-800 # 4ce0 <handler_irq_fast_gpio_3+0x3c>
     4e4:	ce078793          	addi	a5,a5,-800
     4e8:	1014                	addi	a3,sp,32
     4ea:	972e                	add	a4,a4,a1
     4ec:	97aa                	add	a5,a5,a0
     4ee:	00d705b3          	add	a1,a4,a3
     4f2:	00d78533          	add	a0,a5,a3
     4f6:	521000ef          	jal	ra,1216 <PQCLEAN_KYBER1024_CLEAN_polyvec_tobytes>
     4fa:	796d                	lui	s2,0xffffb
     4fc:	58090993          	addi	s3,s2,1408 # ffffb580 <_sp+0xfff1aca0>
     500:	ce0b0713          	addi	a4,s6,-800
     504:	75f1                	lui	a1,0xffffc
     506:	1014                	addi	a3,sp,32
     508:	974e                	add	a4,a4,s3
     50a:	3a058593          	addi	a1,a1,928 # ffffc3a0 <_sp+0xfff1bac0>
     50e:	ce0b0793          	addi	a5,s6,-800
     512:	00d709b3          	add	s3,a4,a3
     516:	97ae                	add	a5,a5,a1
     518:	00d785b3          	add	a1,a5,a3
     51c:	854e                	mv	a0,s3
     51e:	4f9000ef          	jal	ra,1216 <PQCLEAN_KYBER1024_CLEAN_polyvec_tobytes>
     522:	38090793          	addi	a5,s2,896
     526:	ce0b0713          	addi	a4,s6,-800
     52a:	973e                	add	a4,a4,a5
     52c:	101c                	addi	a5,sp,32
     52e:	97ba                	add	a5,a5,a4
     530:	ce0b0693          	addi	a3,s6,-800
     534:	4398                	lw	a4,0(a5)
     536:	02010e93          	addi	t4,sp,32
     53a:	96d2                	add	a3,a3,s4
     53c:	96f6                	add	a3,a3,t4
     53e:	c636                	sw	a3,12(sp)
     540:	0107a803          	lw	a6,16(a5)
     544:	0047ae03          	lw	t3,4(a5)
     548:	0087a303          	lw	t1,8(a5)
     54c:	00c7a883          	lw	a7,12(a5)
     550:	4bc8                	lw	a0,20(a5)
     552:	4f8c                	lw	a1,24(a5)
     554:	4fd0                	lw	a2,28(a5)
     556:	60e9a023          	sw	a4,1536(s3)
     55a:	ce0b0793          	addi	a5,s6,-800
     55e:	4732                	lw	a4,12(sp)
     560:	97f6                	add	a5,a5,t4
     562:	8f85                	sub	a5,a5,s1
     564:	9756                	add	a4,a4,s5
     566:	58078793          	addi	a5,a5,1408
     56a:	6109a823          	sw	a6,1552(s3)
     56e:	61c9a223          	sw	t3,1540(s3)
     572:	6069a423          	sw	t1,1544(s3)
     576:	6119a623          	sw	a7,1548(s3)
     57a:	60a9aa23          	sw	a0,1556(s3)
     57e:	60b9ac23          	sw	a1,1560(s3)
     582:	60c9ae23          	sw	a2,1564(s3)
     586:	9a070713          	addi	a4,a4,-1632
     58a:	62078813          	addi	a6,a5,1568
     58e:	4388                	lw	a0,0(a5)
     590:	43cc                	lw	a1,4(a5)
     592:	4790                	lw	a2,8(a5)
     594:	47d4                	lw	a3,12(a5)
     596:	c308                	sw	a0,0(a4)
     598:	c34c                	sw	a1,4(a4)
     59a:	c710                	sw	a2,8(a4)
     59c:	c754                	sw	a3,12(a4)
     59e:	07c1                	addi	a5,a5,16
     5a0:	0741                	addi	a4,a4,16
     5a2:	ff0796e3          	bne	a5,a6,58e <main+0x378>
     5a6:	6a95                	lui	s5,0x5
     5a8:	79f5                	lui	s3,0xffffd
     5aa:	3a098793          	addi	a5,s3,928 # ffffd3a0 <_sp+0xfff1cac0>
     5ae:	ce0a8713          	addi	a4,s5,-800 # 4ce0 <handler_irq_fast_gpio_3+0x3c>
     5b2:	796d                	lui	s2,0xffffb
     5b4:	973e                	add	a4,a4,a5
     5b6:	101c                	addi	a5,sp,32
     5b8:	00f704b3          	add	s1,a4,a5
     5bc:	58090b13          	addi	s6,s2,1408 # ffffb580 <_sp+0xfff1aca0>
     5c0:	ce0a8793          	addi	a5,s5,-800
     5c4:	1018                	addi	a4,sp,32
     5c6:	6b85                	lui	s7,0x1
     5c8:	97da                	add	a5,a5,s6
     5ca:	00e78b33          	add	s6,a5,a4
     5ce:	c20b8513          	addi	a0,s7,-992 # c20 <main+0xa0a>
     5d2:	85da                	mv	a1,s6
     5d4:	9526                	add	a0,a0,s1
     5d6:	0aa030ef          	jal	ra,3680 <sha3_256.constprop.0>
     5da:	34090793          	addi	a5,s2,832
     5de:	ce0a8713          	addi	a4,s5,-800
     5e2:	973e                	add	a4,a4,a5
     5e4:	101c                	addi	a5,sp,32
     5e6:	97ba                	add	a5,a5,a4
     5e8:	0207a303          	lw	t1,32(a5)
     5ec:	0247a883          	lw	a7,36(a5)
     5f0:	0287a803          	lw	a6,40(a5)
     5f4:	57c8                	lw	a0,44(a5)
     5f6:	5b8c                	lw	a1,48(a5)
     5f8:	5bd0                	lw	a2,52(a5)
     5fa:	5f94                	lw	a3,56(a5)
     5fc:	5fd8                	lw	a4,60(a5)
     5fe:	c40b8793          	addi	a5,s7,-960
     602:	97a6                	add	a5,a5,s1
     604:	0067a023          	sw	t1,0(a5)
     608:	0117a223          	sw	a7,4(a5)
     60c:	0107a423          	sw	a6,8(a5)
     610:	c7c8                	sw	a0,12(a5)
     612:	cb8c                	sw	a1,16(a5)
     614:	cbd0                	sw	a2,20(a5)
     616:	cf94                	sw	a3,24(a5)
     618:	cfd8                	sw	a4,28(a5)
     61a:	b00025f3          	csrr	a1,mcycle
     61e:	00080537          	lui	a0,0x80
     622:	0f050513          	addi	a0,a0,240 # 800f0 <no_exception_handler_msg+0x5b>
     626:	77a050ef          	jal	ra,5da0 <iprintf>
     62a:	4c01                	li	s8,0
     62c:	b00c1073          	csrw	mcycle,s8
     630:	7a71                	lui	s4,0xffffc
     632:	ba0a0513          	addi	a0,s4,-1120 # ffffbba0 <_sp+0xfff1b2c0>
     636:	ce0a8793          	addi	a5,s5,-800
     63a:	1018                	addi	a4,sp,32
     63c:	97aa                	add	a5,a5,a0
     63e:	00e78533          	add	a0,a5,a4
     642:	02000593          	li	a1,32
     646:	403020ef          	jal	ra,3248 <randombytes>
     64a:	ce0a8793          	addi	a5,s5,-800
     64e:	1018                	addi	a4,sp,32
     650:	97d2                	add	a5,a5,s4
     652:	97ba                	add	a5,a5,a4
     654:	ba47ae03          	lw	t3,-1116(a5)
     658:	ba87a303          	lw	t1,-1112(a5)
     65c:	bac7a883          	lw	a7,-1108(a5)
     660:	bb07a803          	lw	a6,-1104(a5)
     664:	ba07ae83          	lw	t4,-1120(a5)
     668:	bb87a683          	lw	a3,-1096(a5)
     66c:	bb47a603          	lw	a2,-1100(a5)
     670:	bbc7a703          	lw	a4,-1092(a5)
     674:	87d6                	mv	a5,s5
     676:	ba098f13          	addi	t5,s3,-1120
     67a:	8cbe                	mv	s9,a5
     67c:	ce0a8593          	addi	a1,s5,-800
     680:	ce078793          	addi	a5,a5,-800
     684:	95fa                	add	a1,a1,t5
     686:	1008                	addi	a0,sp,32
     688:	97ce                	add	a5,a5,s3
     68a:	97aa                	add	a5,a5,a0
     68c:	00a58ab3          	add	s5,a1,a0
     690:	bbc7a223          	sw	t3,-1116(a5)
     694:	ba67a423          	sw	t1,-1112(a5)
     698:	bb17a623          	sw	a7,-1108(a5)
     69c:	bb07a823          	sw	a6,-1104(a5)
     6a0:	bbd7a023          	sw	t4,-1120(a5)
     6a4:	bad7ac23          	sw	a3,-1096(a5)
     6a8:	85da                	mv	a1,s6
     6aa:	020a8513          	addi	a0,s5,32
     6ae:	bac7aa23          	sw	a2,-1100(a5)
     6b2:	bae7ae23          	sw	a4,-1092(a5)
     6b6:	7cb020ef          	jal	ra,3680 <sha3_256.constprop.0>
     6ba:	74f9                	lui	s1,0xffffe
     6bc:	ce0c8793          	addi	a5,s9,-800
     6c0:	1018                	addi	a4,sp,32
     6c2:	97a6                	add	a5,a5,s1
     6c4:	00e784b3          	add	s1,a5,a4
     6c8:	85d6                	mv	a1,s5
     6ca:	8526                	mv	a0,s1
     6cc:	04000613          	li	a2,64
     6d0:	295020ef          	jal	ra,3164 <sha3_512>
     6d4:	3a0a0e93          	addi	t4,s4,928
     6d8:	ce0c8793          	addi	a5,s9,-800
     6dc:	97f6                	add	a5,a5,t4
     6de:	1018                	addi	a4,sp,32
     6e0:	00e789b3          	add	s3,a5,a4
     6e4:	02048693          	addi	a3,s1,32 # ffffe020 <_sp+0xfff1d740>
     6e8:	865a                	mv	a2,s6
     6ea:	85d6                	mv	a1,s5
     6ec:	854e                	mv	a0,s3
     6ee:	790030ef          	jal	ra,3e7e <PQCLEAN_KYBER1024_CLEAN_indcpa_enc>
     6f2:	0004a883          	lw	a7,0(s1)
     6f6:	0044a803          	lw	a6,4(s1)
     6fa:	4488                	lw	a0,8(s1)
     6fc:	44cc                	lw	a1,12(s1)
     6fe:	4890                	lw	a2,16(s1)
     700:	48d4                	lw	a3,20(s1)
     702:	4c98                	lw	a4,24(s1)
     704:	4cdc                	lw	a5,28(s1)
     706:	ce0c8493          	addi	s1,s9,-800
     70a:	94ca                	add	s1,s1,s2
     70c:	02010313          	addi	t1,sp,32
     710:	949a                	add	s1,s1,t1
     712:	c626                	sw	s1,12(sp)
     714:	3314a023          	sw	a7,800(s1)
     718:	3304a223          	sw	a6,804(s1)
     71c:	32a4a423          	sw	a0,808(s1)
     720:	32b4a623          	sw	a1,812(s1)
     724:	32c4a823          	sw	a2,816(s1)
     728:	32d4aa23          	sw	a3,820(s1)
     72c:	32e4ac23          	sw	a4,824(s1)
     730:	32f4ae23          	sw	a5,828(s1)
     734:	b00025f3          	csrr	a1,mcycle
     738:	00080537          	lui	a0,0x80
     73c:	11450513          	addi	a0,a0,276 # 80114 <no_exception_handler_msg+0x7f>
     740:	660050ef          	jal	ra,5da0 <iprintf>
     744:	b00c1073          	csrw	mcycle,s8
     748:	6e41                	lui	t3,0x10
     74a:	16098e93          	addi	t4,s3,352
     74e:	8f56                	mv	t5,s5
     750:	4f81                	li	t6,0
     752:	d01b8893          	addi	a7,s7,-767
     756:	1e7d                	addi	t3,t3,-1
     758:	4291                	li	t0,4
     75a:	ea0e8513          	addi	a0,t4,-352
     75e:	837a                	mv	t1,t5
     760:	00454983          	lbu	s3,4(a0)
     764:	00354383          	lbu	t2,3(a0)
     768:	00254583          	lbu	a1,2(a0)
     76c:	00554603          	lbu	a2,5(a0)
     770:	00a99713          	slli	a4,s3,0xa
     774:	038a                	slli	t2,t2,0x2
     776:	00e3e3b3          	or	t2,t2,a4
     77a:	0065dc13          	srli	s8,a1,0x6
     77e:	00154a83          	lbu	s5,1(a0)
     782:	00654a03          	lbu	s4,6(a0)
     786:	0183e3b3          	or	t2,t2,s8
     78a:	00854483          	lbu	s1,8(a0)
     78e:	00754683          	lbu	a3,7(a0)
     792:	00054c83          	lbu	s9,0(a0)
     796:	00465b13          	srli	s6,a2,0x4
     79a:	0019d993          	srli	s3,s3,0x1
     79e:	061e                	slli	a2,a2,0x7
     7a0:	7ff3f393          	andi	t2,t2,2047
     7a4:	01366633          	or	a2,a2,s3
     7a8:	031383b3          	mul	t2,t2,a7
     7ac:	008a9913          	slli	s2,s5,0x8
     7b0:	004a1713          	slli	a4,s4,0x4
     7b4:	7ff67613          	andi	a2,a2,2047
     7b8:	00954783          	lbu	a5,9(a0)
     7bc:	00949b93          	slli	s7,s1,0x9
     7c0:	0686                	slli	a3,a3,0x1
     7c2:	01996933          	or	s2,s2,s9
     7c6:	01676733          	or	a4,a4,s6
     7ca:	00a54803          	lbu	a6,10(a0)
     7ce:	03160633          	mul	a2,a2,a7
     7d2:	003ada93          	srli	s5,s5,0x3
     7d6:	0596                	slli	a1,a1,0x5
     7d8:	0176e6b3          	or	a3,a3,s7
     7dc:	007a5a13          	srli	s4,s4,0x7
     7e0:	7ff97913          	andi	s2,s2,2047
     7e4:	7ff77713          	andi	a4,a4,2047
     7e8:	0155e5b3          	or	a1,a1,s5
     7ec:	0146e6b3          	or	a3,a3,s4
     7f0:	00679993          	slli	s3,a5,0x6
     7f4:	03190933          	mul	s2,s2,a7
     7f8:	7ff5f593          	andi	a1,a1,2047
     7fc:	7ff6f693          	andi	a3,a3,2047
     800:	8089                	srli	s1,s1,0x2
     802:	8395                	srli	a5,a5,0x5
     804:	080e                	slli	a6,a6,0x3
     806:	0099e4b3          	or	s1,s3,s1
     80a:	00f86833          	or	a6,a6,a5
     80e:	7ff4f493          	andi	s1,s1,2047
     812:	40038393          	addi	t2,t2,1024
     816:	03170733          	mul	a4,a4,a7
     81a:	00b3d393          	srli	t2,t2,0xb
     81e:	03c2                	slli	t2,t2,0x10
     820:	40060613          	addi	a2,a2,1024 # 2000400 <_sp+0x1f1fb20>
     824:	0103d393          	srli	t2,t2,0x10
     828:	822d                	srli	a2,a2,0xb
     82a:	40090913          	addi	s2,s2,1024
     82e:	01c3f7b3          	and	a5,t2,t3
     832:	0642                	slli	a2,a2,0x10
     834:	0341                	addi	t1,t1,16
     836:	031585b3          	mul	a1,a1,a7
     83a:	40070713          	addi	a4,a4,1024
     83e:	8fd1                	or	a5,a5,a2
     840:	00b95913          	srli	s2,s2,0xb
     844:	832d                	srli	a4,a4,0xb
     846:	0942                	slli	s2,s2,0x10
     848:	0742                	slli	a4,a4,0x10
     84a:	fef32a23          	sw	a5,-12(t1)
     84e:	01095913          	srli	s2,s2,0x10
     852:	8341                	srli	a4,a4,0x10
     854:	031686b3          	mul	a3,a3,a7
     858:	40058593          	addi	a1,a1,1024
     85c:	81ad                	srli	a1,a1,0xb
     85e:	01c97933          	and	s2,s2,t3
     862:	01c77733          	and	a4,a4,t3
     866:	05c2                	slli	a1,a1,0x10
     868:	00b96933          	or	s2,s2,a1
     86c:	052d                	addi	a0,a0,11
     86e:	ff232823          	sw	s2,-16(t1)
     872:	031484b3          	mul	s1,s1,a7
     876:	40068793          	addi	a5,a3,1024
     87a:	83ad                	srli	a5,a5,0xb
     87c:	07c2                	slli	a5,a5,0x10
     87e:	8f5d                	or	a4,a4,a5
     880:	fee32c23          	sw	a4,-8(t1)
     884:	03180833          	mul	a6,a6,a7
     888:	40048493          	addi	s1,s1,1024
     88c:	80ad                	srli	s1,s1,0xb
     88e:	fe931e23          	sh	s1,-4(t1)
     892:	40080813          	addi	a6,a6,1024
     896:	00b85813          	srli	a6,a6,0xb
     89a:	ff031f23          	sh	a6,-2(t1)
     89e:	edd511e3          	bne	a0,t4,760 <main+0x54a>
     8a2:	0f85                	addi	t6,t6,1
     8a4:	16050e93          	addi	t4,a0,352
     8a8:	200f0f13          	addi	t5,t5,512
     8ac:	ea5f97e3          	bne	t6,t0,75a <main+0x544>
     8b0:	6715                	lui	a4,0x5
     8b2:	7371                	lui	t1,0xffffc
     8b4:	3a030313          	addi	t1,t1,928 # ffffc3a0 <_sp+0xfff1bac0>
     8b8:	ce070793          	addi	a5,a4,-800 # 4ce0 <handler_irq_fast_gpio_3+0x3c>
     8bc:	979a                	add	a5,a5,t1
     8be:	1014                	addi	a3,sp,32
     8c0:	79ed                	lui	s3,0xffffb
     8c2:	00d78333          	add	t1,a5,a3
     8c6:	38098993          	addi	s3,s3,896 # ffffb380 <_sp+0xfff1aaa0>
     8ca:	ce070793          	addi	a5,a4,-800
     8ce:	97ce                	add	a5,a5,s3
     8d0:	00d789b3          	add	s3,a5,a3
     8d4:	6585                	lui	a1,0x1
     8d6:	68c1                	lui	a7,0x10
     8d8:	58030513          	addi	a0,t1,1408
     8dc:	884e                	mv	a6,s3
     8de:	d0158593          	addi	a1,a1,-767 # d01 <main+0xaeb>
     8e2:	18fd                	addi	a7,a7,-1
     8e4:	62030313          	addi	t1,t1,1568
     8e8:	00154683          	lbu	a3,1(a0)
     8ec:	00054783          	lbu	a5,0(a0)
     8f0:	00254603          	lbu	a2,2(a0)
     8f4:	00369f93          	slli	t6,a3,0x3
     8f8:	0057d293          	srli	t0,a5,0x5
     8fc:	8bfd                	andi	a5,a5,31
     8fe:	01f2e2b3          	or	t0,t0,t6
     902:	00465e93          	srli	t4,a2,0x4
     906:	0026d713          	srli	a4,a3,0x2
     90a:	0606                	slli	a2,a2,0x1
     90c:	02b787b3          	mul	a5,a5,a1
     910:	829d                	srli	a3,a3,0x7
     912:	8ed1                	or	a3,a3,a2
     914:	01f2f613          	andi	a2,t0,31
     918:	00354f03          	lbu	t5,3(a0)
     91c:	8b7d                	andi	a4,a4,31
     91e:	8afd                	andi	a3,a3,31
     920:	004f1393          	slli	t2,t5,0x4
     924:	007eeeb3          	or	t4,t4,t2
     928:	01fefe93          	andi	t4,t4,31
     92c:	02b60633          	mul	a2,a2,a1
     930:	07c1                	addi	a5,a5,16
     932:	8395                	srli	a5,a5,0x5
     934:	07c2                	slli	a5,a5,0x10
     936:	83c1                	srli	a5,a5,0x10
     938:	001f5f93          	srli	t6,t5,0x1
     93c:	0117f7b3          	and	a5,a5,a7
     940:	0841                	addi	a6,a6,16
     942:	01ffff93          	andi	t6,t6,31
     946:	00454e03          	lbu	t3,4(a0)
     94a:	0641                	addi	a2,a2,16
     94c:	02b70733          	mul	a4,a4,a1
     950:	8215                	srli	a2,a2,0x5
     952:	0642                	slli	a2,a2,0x10
     954:	8fd1                	or	a5,a5,a2
     956:	fef82823          	sw	a5,-16(a6)
     95a:	002e1293          	slli	t0,t3,0x2
     95e:	006f5f13          	srli	t5,t5,0x6
     962:	005f6f33          	or	t5,t5,t0
     966:	01ff7f13          	andi	t5,t5,31
     96a:	003e5e13          	srli	t3,t3,0x3
     96e:	02be8eb3          	mul	t4,t4,a1
     972:	0741                	addi	a4,a4,16
     974:	8315                	srli	a4,a4,0x5
     976:	0742                	slli	a4,a4,0x10
     978:	8341                	srli	a4,a4,0x10
     97a:	01177733          	and	a4,a4,a7
     97e:	0515                	addi	a0,a0,5
     980:	02b686b3          	mul	a3,a3,a1
     984:	0ec1                	addi	t4,t4,16
     986:	005ede93          	srli	t4,t4,0x5
     98a:	0ec2                	slli	t4,t4,0x10
     98c:	010ede93          	srli	t4,t4,0x10
     990:	011efeb3          	and	t4,t4,a7
     994:	02bf87b3          	mul	a5,t6,a1
     998:	06c1                	addi	a3,a3,16
     99a:	8295                	srli	a3,a3,0x5
     99c:	06c2                	slli	a3,a3,0x10
     99e:	8f55                	or	a4,a4,a3
     9a0:	fee82a23          	sw	a4,-12(a6)
     9a4:	07c1                	addi	a5,a5,16
     9a6:	8395                	srli	a5,a5,0x5
     9a8:	07c2                	slli	a5,a5,0x10
     9aa:	00feeeb3          	or	t4,t4,a5
     9ae:	02bf0733          	mul	a4,t5,a1
     9b2:	ffd82c23          	sw	t4,-8(a6)
     9b6:	02be07b3          	mul	a5,t3,a1
     9ba:	0741                	addi	a4,a4,16
     9bc:	8315                	srli	a4,a4,0x5
     9be:	fee81e23          	sh	a4,-4(a6)
     9c2:	07c1                	addi	a5,a5,16
     9c4:	8395                	srli	a5,a5,0x5
     9c6:	fef81f23          	sh	a5,-2(a6)
     9ca:	f0651fe3          	bne	a0,t1,8e8 <main+0x6d2>
     9ce:	6a15                	lui	s4,0x5
     9d0:	77f9                	lui	a5,0xffffe
     9d2:	ce0a0713          	addi	a4,s4,-800 # 4ce0 <handler_irq_fast_gpio_3+0x3c>
     9d6:	973e                	add	a4,a4,a5
     9d8:	101c                	addi	a5,sp,32
     9da:	97ba                	add	a5,a5,a4
     9dc:	c63e                	sw	a5,12(sp)
     9de:	74f5                	lui	s1,0xffffd
     9e0:	3a048593          	addi	a1,s1,928 # ffffd3a0 <_sp+0xfff1cac0>
     9e4:	4532                	lw	a0,12(sp)
     9e6:	ce0a0793          	addi	a5,s4,-800
     9ea:	97ae                	add	a5,a5,a1
     9ec:	1018                	addi	a4,sp,32
     9ee:	00e785b3          	add	a1,a5,a4
     9f2:	08d000ef          	jal	ra,127e <PQCLEAN_KYBER1024_CLEAN_polyvec_frombytes>
     9f6:	ba048493          	addi	s1,s1,-1120
     9fa:	ce0a0793          	addi	a5,s4,-800
     9fe:	97a6                	add	a5,a5,s1
     a00:	1018                	addi	a4,sp,32
     a02:	00e784b3          	add	s1,a5,a4
     a06:	8526                	mv	a0,s1
     a08:	0c3000ef          	jal	ra,12ca <PQCLEAN_KYBER1024_CLEAN_polyvec_ntt>
     a0c:	7971                	lui	s2,0xffffc
     a0e:	ba090913          	addi	s2,s2,-1120 # ffffbba0 <_sp+0xfff1b2c0>
     a12:	ce0a0793          	addi	a5,s4,-800
     a16:	97ca                	add	a5,a5,s2
     a18:	1018                	addi	a4,sp,32
     a1a:	45b2                	lw	a1,12(sp)
     a1c:	00e78933          	add	s2,a5,a4
     a20:	8626                	mv	a2,s1
     a22:	854a                	mv	a0,s2
     a24:	471000ef          	jal	ra,1694 <PQCLEAN_KYBER1024_CLEAN_polyvec_basemul_acc_montgomery>
     a28:	854a                	mv	a0,s2
     a2a:	84ca                	mv	s1,s2
     a2c:	1c1000ef          	jal	ra,13ec <PQCLEAN_KYBER1024_CLEAN_invntt>
     a30:	20090913          	addi	s2,s2,512
     a34:	87a6                	mv	a5,s1
     a36:	0007d683          	lhu	a3,0(a5) # ffffe000 <_sp+0xfff1d720>
     a3a:	0009d703          	lhu	a4,0(s3)
     a3e:	0789                	addi	a5,a5,2
     a40:	0989                	addi	s3,s3,2
     a42:	8f15                	sub	a4,a4,a3
     a44:	fee79f23          	sh	a4,-2(a5)
     a48:	ff2797e3          	bne	a5,s2,a36 <main+0x820>
     a4c:	6995                	lui	s3,0x5
     a4e:	7571                	lui	a0,0xffffc
     a50:	ba050513          	addi	a0,a0,-1120 # ffffbba0 <_sp+0xfff1b2c0>
     a54:	ce098793          	addi	a5,s3,-800 # 4ce0 <handler_irq_fast_gpio_3+0x3c>
     a58:	97aa                	add	a5,a5,a0
     a5a:	1018                	addi	a4,sp,32
     a5c:	00e78533          	add	a0,a5,a4
     a60:	2501                	jal	1060 <PQCLEAN_KYBER1024_CLEAN_poly_reduce>
     a62:	75ed                	lui	a1,0xffffb
     a64:	34058593          	addi	a1,a1,832 # ffffb340 <_sp+0xfff1aa60>
     a68:	ce098793          	addi	a5,s3,-800
     a6c:	97ae                	add	a5,a5,a1
     a6e:	1018                	addi	a4,sp,32
     a70:	6651                	lui	a2,0x14
     a72:	00e785b3          	add	a1,a5,a4
     a76:	afb60613          	addi	a2,a2,-1285 # 13afb <randombytes.c.450fd1c4+0x45d6>
     a7a:	00049503          	lh	a0,0(s1)
     a7e:	00e49783          	lh	a5,14(s1)
     a82:	00249683          	lh	a3,2(s1)
     a86:	00449703          	lh	a4,4(s1)
     a8a:	0506                	slli	a0,a0,0x1
     a8c:	0786                	slli	a5,a5,0x1
     a8e:	68150513          	addi	a0,a0,1665
     a92:	0686                	slli	a3,a3,0x1
     a94:	68178793          	addi	a5,a5,1665
     a98:	02c50533          	mul	a0,a0,a2
     a9c:	68168693          	addi	a3,a3,1665
     aa0:	0706                	slli	a4,a4,0x1
     aa2:	68170713          	addi	a4,a4,1665
     aa6:	00649e03          	lh	t3,6(s1)
     aaa:	00849303          	lh	t1,8(s1)
     aae:	00a49883          	lh	a7,10(s1)
     ab2:	0e06                	slli	t3,t3,0x1
     ab4:	681e0e13          	addi	t3,t3,1665 # 10681 <randombytes.c.450fd1c4+0x115c>
     ab8:	0306                	slli	t1,t1,0x1
     aba:	02c787b3          	mul	a5,a5,a2
     abe:	8171                	srli	a0,a0,0x1c
     ac0:	8905                	andi	a0,a0,1
     ac2:	68130313          	addi	t1,t1,1665
     ac6:	00c49803          	lh	a6,12(s1)
     aca:	0886                	slli	a7,a7,0x1
     acc:	68188893          	addi	a7,a7,1665 # 10681 <randombytes.c.450fd1c4+0x115c>
     ad0:	0806                	slli	a6,a6,0x1
     ad2:	68180813          	addi	a6,a6,1665
     ad6:	0585                	addi	a1,a1,1
     ad8:	02c686b3          	mul	a3,a3,a2
     adc:	83f1                	srli	a5,a5,0x1c
     ade:	079e                	slli	a5,a5,0x7
     ae0:	8fc9                	or	a5,a5,a0
     ae2:	04c1                	addi	s1,s1,16
     ae4:	02c70733          	mul	a4,a4,a2
     ae8:	82ed                	srli	a3,a3,0x1b
     aea:	8a89                	andi	a3,a3,2
     aec:	8fd5                	or	a5,a5,a3
     aee:	8369                	srli	a4,a4,0x1a
     af0:	8b11                	andi	a4,a4,4
     af2:	02ce06b3          	mul	a3,t3,a2
     af6:	8fd9                	or	a5,a5,a4
     af8:	02c30733          	mul	a4,t1,a2
     afc:	82e5                	srli	a3,a3,0x19
     afe:	8aa1                	andi	a3,a3,8
     b00:	8fd5                	or	a5,a5,a3
     b02:	8361                	srli	a4,a4,0x18
     b04:	8b41                	andi	a4,a4,16
     b06:	02c886b3          	mul	a3,a7,a2
     b0a:	8fd9                	or	a5,a5,a4
     b0c:	02c80733          	mul	a4,a6,a2
     b10:	82dd                	srli	a3,a3,0x17
     b12:	0206f693          	andi	a3,a3,32
     b16:	8fd5                	or	a5,a5,a3
     b18:	8359                	srli	a4,a4,0x16
     b1a:	04077713          	andi	a4,a4,64
     b1e:	8fd9                	or	a5,a5,a4
     b20:	fef58fa3          	sb	a5,-1(a1)
     b24:	f4991be3          	bne	s2,s1,a7a <main+0x864>
     b28:	6595                	lui	a1,0x5
     b2a:	7775                	lui	a4,0xffffd
     b2c:	3a070993          	addi	s3,a4,928 # ffffd3a0 <_sp+0xfff1cac0>
     b30:	ce058793          	addi	a5,a1,-800 # 4ce0 <handler_irq_fast_gpio_3+0x3c>
     b34:	97ce                	add	a5,a5,s3
     b36:	1014                	addi	a3,sp,32
     b38:	00d789b3          	add	s3,a5,a3
     b3c:	74ed                	lui	s1,0xffffb
     b3e:	6785                	lui	a5,0x1
     b40:	8a2e                	mv	s4,a1
     b42:	34048493          	addi	s1,s1,832 # ffffb340 <_sp+0xfff1aa60>
     b46:	c2078793          	addi	a5,a5,-992 # c20 <main+0xa0a>
     b4a:	ce058593          	addi	a1,a1,-800
     b4e:	97ce                	add	a5,a5,s3
     b50:	1008                	addi	a0,sp,32
     b52:	95a6                	add	a1,a1,s1
     b54:	00a584b3          	add	s1,a1,a0
     b58:	4390                	lw	a2,0(a5)
     b5a:	0047ae83          	lw	t4,4(a5)
     b5e:	0087ae03          	lw	t3,8(a5)
     b62:	00c7a303          	lw	t1,12(a5)
     b66:	0107a883          	lw	a7,16(a5)
     b6a:	0147a803          	lw	a6,20(a5)
     b6e:	4f94                	lw	a3,24(a5)
     b70:	ba070713          	addi	a4,a4,-1120
     b74:	4fdc                	lw	a5,28(a5)
     b76:	ce0a0593          	addi	a1,s4,-800
     b7a:	95ba                	add	a1,a1,a4
     b7c:	00a58933          	add	s2,a1,a0
     b80:	d090                	sw	a2,32(s1)
     b82:	85a6                	mv	a1,s1
     b84:	04000613          	li	a2,64
     b88:	854a                	mv	a0,s2
     b8a:	03d4a223          	sw	t4,36(s1)
     b8e:	03c4a423          	sw	t3,40(s1)
     b92:	0264a623          	sw	t1,44(s1)
     b96:	0314a823          	sw	a7,48(s1)
     b9a:	0304aa23          	sw	a6,52(s1)
     b9e:	dc94                	sw	a3,56(s1)
     ba0:	dcdc                	sw	a5,60(s1)
     ba2:	5c2020ef          	jal	ra,3164 <sha3_512>
     ba6:	77f9                	lui	a5,0xffffe
     ba8:	ce0a0713          	addi	a4,s4,-800
     bac:	973e                	add	a4,a4,a5
     bae:	101c                	addi	a5,sp,32
     bb0:	97ba                	add	a5,a5,a4
     bb2:	853e                	mv	a0,a5
     bb4:	02090693          	addi	a3,s2,32
     bb8:	60098613          	addi	a2,s3,1536
     bbc:	85a6                	mv	a1,s1
     bbe:	c63e                	sw	a5,12(sp)
     bc0:	2be030ef          	jal	ra,3e7e <PQCLEAN_KYBER1024_CLEAN_indcpa_enc>
     bc4:	47b2                	lw	a5,12(sp)
     bc6:	7771                	lui	a4,0xffffc
     bc8:	3a070713          	addi	a4,a4,928 # ffffc3a0 <_sp+0xfff1bac0>
     bcc:	ce0a0693          	addi	a3,s4,-800
     bd0:	96ba                	add	a3,a3,a4
     bd2:	1018                	addi	a4,sp,32
     bd4:	9736                	add	a4,a4,a3
     bd6:	62078513          	addi	a0,a5,1568 # ffffe620 <_sp+0xfff1dd40>
     bda:	4601                	li	a2,0
     bdc:	4394                	lw	a3,0(a5)
     bde:	430c                	lw	a1,0(a4)
     be0:	0791                	addi	a5,a5,4
     be2:	0711                	addi	a4,a4,4
     be4:	8ead                	xor	a3,a3,a1
     be6:	8e55                	or	a2,a2,a3
     be8:	fef51ae3          	bne	a0,a5,bdc <main+0x9c6>
     bec:	00865493          	srli	s1,a2,0x8
     bf0:	01065793          	srli	a5,a2,0x10
     bf4:	8cd1                	or	s1,s1,a2
     bf6:	8cdd                	or	s1,s1,a5
     bf8:	8261                	srli	a2,a2,0x18
     bfa:	8cd1                	or	s1,s1,a2
     bfc:	0d000513          	li	a0,208
     c00:	0ff4f493          	zext.b	s1,s1
     c04:	136050ef          	jal	ra,5d3a <malloc>
     c08:	009034b3          	snez	s1,s1
     c0c:	892a                	mv	s2,a0
     c0e:	2c050163          	beqz	a0,ed0 <main+0xcba>
     c12:	0c800613          	li	a2,200
     c16:	4581                	li	a1,0
     c18:	2f0040ef          	jal	ra,4f08 <memset>
     c1c:	6995                	lui	s3,0x5
     c1e:	77f5                	lui	a5,0xffffd
     c20:	3a078793          	addi	a5,a5,928 # ffffd3a0 <_sp+0xfff1cac0>
     c24:	ce098713          	addi	a4,s3,-800 # 4ce0 <handler_irq_fast_gpio_3+0x3c>
     c28:	973e                	add	a4,a4,a5
     c2a:	6585                	lui	a1,0x1
     c2c:	101c                	addi	a5,sp,32
     c2e:	97ba                	add	a5,a5,a4
     c30:	c4058593          	addi	a1,a1,-960 # c40 <main+0xa2a>
     c34:	95be                	add	a1,a1,a5
     c36:	4801                	li	a6,0
     c38:	4781                	li	a5,0
     c3a:	02000613          	li	a2,32
     c3e:	854a                	mv	a0,s2
     c40:	0cf92423          	sw	a5,200(s2)
     c44:	0d092623          	sw	a6,204(s2)
     c48:	31d020ef          	jal	ra,3764 <keccak_inc_absorb.constprop.0>
     c4c:	75f1                	lui	a1,0xffffc
     c4e:	3a058593          	addi	a1,a1,928 # ffffc3a0 <_sp+0xfff1bac0>
     c52:	ce098793          	addi	a5,s3,-800
     c56:	97ae                	add	a5,a5,a1
     c58:	1018                	addi	a4,sp,32
     c5a:	62000613          	li	a2,1568
     c5e:	00e785b3          	add	a1,a5,a4
     c62:	854a                	mv	a0,s2
     c64:	301020ef          	jal	ra,3764 <keccak_inc_absorb.constprop.0>
     c68:	0c892783          	lw	a5,200(s2)
     c6c:	0077f613          	andi	a2,a5,7
     c70:	060e                	slli	a2,a2,0x3
     c72:	9be1                	andi	a5,a5,-8
     c74:	fe060693          	addi	a3,a2,-32
     c78:	97ca                	add	a5,a5,s2
     c7a:	2406c063          	bltz	a3,eba <main+0xca4>
     c7e:	477d                	li	a4,31
     c80:	00d71733          	sll	a4,a4,a3
     c84:	4681                	li	a3,0
     c86:	438c                	lw	a1,0(a5)
     c88:	43d0                	lw	a2,4(a5)
     c8a:	7a71                	lui	s4,0xffffc
     c8c:	8ead                	xor	a3,a3,a1
     c8e:	8f31                	xor	a4,a4,a2
     c90:	c3d8                	sw	a4,4(a5)
     c92:	c394                	sw	a3,0(a5)
     c94:	08492783          	lw	a5,132(s2)
     c98:	80000737          	lui	a4,0x80000
     c9c:	ba0a0a13          	addi	s4,s4,-1120 # ffffbba0 <_sp+0xfff1b2c0>
     ca0:	8fb9                	xor	a5,a5,a4
     ca2:	08f92223          	sw	a5,132(s2)
     ca6:	4781                	li	a5,0
     ca8:	0cf92423          	sw	a5,200(s2)
     cac:	6795                	lui	a5,0x5
     cae:	ce078793          	addi	a5,a5,-800 # 4ce0 <handler_irq_fast_gpio_3+0x3c>
     cb2:	4801                	li	a6,0
     cb4:	97d2                	add	a5,a5,s4
     cb6:	1018                	addi	a4,sp,32
     cb8:	0d092623          	sw	a6,204(s2)
     cbc:	02000993          	li	s3,32
     cc0:	00e78a33          	add	s4,a5,a4
     cc4:	4b7d                	li	s6,31
     cc6:	08800a93          	li	s5,136
     cca:	854a                	mv	a0,s2
     ccc:	273000ef          	jal	ra,173e <KeccakF1600_StatePermute>
     cd0:	4781                	li	a5,0
     cd2:	a819                	j	ce8 <main+0xad2>
     cd4:	4358                	lw	a4,4(a4)
     cd6:	0785                	addi	a5,a5,1
     cd8:	00c75733          	srl	a4,a4,a2
     cdc:	00e58023          	sb	a4,0(a1)
     ce0:	0337ff63          	bgeu	a5,s3,d1e <main+0xb08>
     ce4:	1d578963          	beq	a5,s5,eb6 <main+0xca0>
     ce8:	0077f693          	andi	a3,a5,7
     cec:	068e                	slli	a3,a3,0x3
     cee:	ff87f713          	andi	a4,a5,-8
     cf2:	fe068613          	addi	a2,a3,-32
     cf6:	00fa05b3          	add	a1,s4,a5
     cfa:	974a                	add	a4,a4,s2
     cfc:	fc065ce3          	bgez	a2,cd4 <main+0xabe>
     d00:	4350                	lw	a2,4(a4)
     d02:	4318                	lw	a4,0(a4)
     d04:	40db0533          	sub	a0,s6,a3
     d08:	0606                	slli	a2,a2,0x1
     d0a:	00a61633          	sll	a2,a2,a0
     d0e:	00d75733          	srl	a4,a4,a3
     d12:	8f51                	or	a4,a4,a2
     d14:	00e58023          	sb	a4,0(a1)
     d18:	0785                	addi	a5,a5,1
     d1a:	fd37e5e3          	bltu	a5,s3,ce4 <main+0xace>
     d1e:	40fa8733          	sub	a4,s5,a5
     d22:	40f989b3          	sub	s3,s3,a5
     d26:	0ce92423          	sw	a4,200(s2)
     d2a:	0c092623          	sw	zero,204(s2)
     d2e:	9a3e                	add	s4,s4,a5
     d30:	f8099de3          	bnez	s3,cca <main+0xab4>
     d34:	854a                	mv	a0,s2
     d36:	010050ef          	jal	ra,5d46 <free>
     d3a:	6b95                	lui	s7,0x5
     d3c:	7971                	lui	s2,0xffffc
     d3e:	ce0b8793          	addi	a5,s7,-800 # 4ce0 <handler_irq_fast_gpio_3+0x3c>
     d42:	1014                	addi	a3,sp,32
     d44:	97ca                	add	a5,a5,s2
     d46:	97b6                	add	a5,a5,a3
     d48:	ce0b8613          	addi	a2,s7,-800
     d4c:	76f5                	lui	a3,0xffffd
     d4e:	9636                	add	a2,a2,a3
     d50:	fff48713          	addi	a4,s1,-1
     d54:	1014                	addi	a3,sp,32
     d56:	96b2                	add	a3,a3,a2
     d58:	0ff77713          	zext.b	a4,a4
     d5c:	ba07a383          	lw	t2,-1120(a5)
     d60:	ba47a283          	lw	t0,-1116(a5)
     d64:	ba87af83          	lw	t6,-1112(a5)
     d68:	bac7af03          	lw	t5,-1108(a5)
     d6c:	bb07ae83          	lw	t4,-1104(a5)
     d70:	bb47ae03          	lw	t3,-1100(a5)
     d74:	bb87a303          	lw	t1,-1096(a5)
     d78:	bbc7a883          	lw	a7,-1092(a5)
     d7c:	ba06aa03          	lw	s4,-1120(a3) # ffffcba0 <_sp+0xfff1c2c0>
     d80:	ba46a983          	lw	s3,-1116(a3)
     d84:	ba86a483          	lw	s1,-1112(a3)
     d88:	bac6a803          	lw	a6,-1108(a3)
     d8c:	bb06a503          	lw	a0,-1104(a3)
     d90:	bb46a583          	lw	a1,-1100(a3)
     d94:	bb86a603          	lw	a2,-1096(a3)
     d98:	00871a93          	slli	s5,a4,0x8
     d9c:	bbc6a683          	lw	a3,-1092(a3)
     da0:	01071b13          	slli	s6,a4,0x10
     da4:	01576ab3          	or	s5,a4,s5
     da8:	016aeab3          	or	s5,s5,s6
     dac:	0762                	slli	a4,a4,0x18
     dae:	00eae733          	or	a4,s5,a4
     db2:	00d8c6b3          	xor	a3,a7,a3
     db6:	0143ca33          	xor	s4,t2,s4
     dba:	0132c9b3          	xor	s3,t0,s3
     dbe:	009fc4b3          	xor	s1,t6,s1
     dc2:	010f4833          	xor	a6,t5,a6
     dc6:	00aec533          	xor	a0,t4,a0
     dca:	00be45b3          	xor	a1,t3,a1
     dce:	00c34633          	xor	a2,t1,a2
     dd2:	00ea7a33          	and	s4,s4,a4
     dd6:	00e9f9b3          	and	s3,s3,a4
     dda:	8cf9                	and	s1,s1,a4
     ddc:	8e79                	and	a2,a2,a4
     dde:	00e87833          	and	a6,a6,a4
     de2:	8d79                	and	a0,a0,a4
     de4:	8df9                	and	a1,a1,a4
     de6:	8f75                	and	a4,a4,a3
     de8:	007a43b3          	xor	t2,s4,t2
     dec:	0059c2b3          	xor	t0,s3,t0
     df0:	01f4cfb3          	xor	t6,s1,t6
     df4:	01e84833          	xor	a6,a6,t5
     df8:	01d54533          	xor	a0,a0,t4
     dfc:	01c5c5b3          	xor	a1,a1,t3
     e00:	006646b3          	xor	a3,a2,t1
     e04:	01174733          	xor	a4,a4,a7
     e08:	ba77a023          	sw	t2,-1120(a5)
     e0c:	ba57a223          	sw	t0,-1116(a5)
     e10:	bbf7a423          	sw	t6,-1112(a5)
     e14:	bb07a623          	sw	a6,-1108(a5)
     e18:	baa7a823          	sw	a0,-1104(a5)
     e1c:	bab7aa23          	sw	a1,-1100(a5)
     e20:	bad7ac23          	sw	a3,-1096(a5)
     e24:	bae7ae23          	sw	a4,-1092(a5)
     e28:	b00025f3          	csrr	a1,mcycle
     e2c:	00080537          	lui	a0,0x80
     e30:	13450513          	addi	a0,a0,308 # 80134 <no_exception_handler_msg+0x9f>
     e34:	76d040ef          	jal	ra,5da0 <iprintf>
     e38:	ba090793          	addi	a5,s2,-1120 # ffffbba0 <_sp+0xfff1b2c0>
     e3c:	ce0b8713          	addi	a4,s7,-800
     e40:	973e                	add	a4,a4,a5
     e42:	101c                	addi	a5,sp,32
     e44:	00f704b3          	add	s1,a4,a5
     e48:	8526                	mv	a0,s1
     e4a:	7c8030ef          	jal	ra,4612 <printbytes.constprop.0>
     e4e:	776d                	lui	a4,0xffffb
     e50:	32070713          	addi	a4,a4,800 # ffffb320 <_sp+0xfff1aa40>
     e54:	ce0b8793          	addi	a5,s7,-800
     e58:	97ba                	add	a5,a5,a4
     e5a:	1018                	addi	a4,sp,32
     e5c:	00e78933          	add	s2,a5,a4
     e60:	854a                	mv	a0,s2
     e62:	7b0030ef          	jal	ra,4612 <printbytes.constprop.0>
     e66:	87a6                	mv	a5,s1
     e68:	874a                	mv	a4,s2
     e6a:	02048593          	addi	a1,s1,32
     e6e:	a029                	j	e78 <main+0xc62>
     e70:	0785                	addi	a5,a5,1
     e72:	0705                	addi	a4,a4,1
     e74:	04f58c63          	beq	a1,a5,ecc <main+0xcb6>
     e78:	0007c603          	lbu	a2,0(a5)
     e7c:	00074683          	lbu	a3,0(a4)
     e80:	fed608e3          	beq	a2,a3,e70 <main+0xc5a>
     e84:	00080537          	lui	a0,0x80
     e88:	15450513          	addi	a0,a0,340 # 80154 <no_exception_handler_msg+0xbf>
     e8c:	16a040ef          	jal	ra,4ff6 <puts>
     e90:	557d                	li	a0,-1
     e92:	6295                	lui	t0,0x5
     e94:	cf028293          	addi	t0,t0,-784 # 4cf0 <handler_irq_fast_gpio_3+0x4c>
     e98:	9116                	add	sp,sp,t0
     e9a:	50f2                	lw	ra,60(sp)
     e9c:	54e2                	lw	s1,56(sp)
     e9e:	5952                	lw	s2,52(sp)
     ea0:	59c2                	lw	s3,48(sp)
     ea2:	5a32                	lw	s4,44(sp)
     ea4:	5aa2                	lw	s5,40(sp)
     ea6:	5b12                	lw	s6,36(sp)
     ea8:	5b82                	lw	s7,32(sp)
     eaa:	4c72                	lw	s8,28(sp)
     eac:	4ce2                	lw	s9,24(sp)
     eae:	4d52                	lw	s10,20(sp)
     eb0:	4dc2                	lw	s11,16(sp)
     eb2:	6121                	addi	sp,sp,64
     eb4:	8082                	ret
     eb6:	4701                	li	a4,0
     eb8:	b5ad                	j	d22 <main+0xb0c>
     eba:	46fd                	li	a3,31
     ebc:	40c685b3          	sub	a1,a3,a2
     ec0:	473d                	li	a4,15
     ec2:	00b75733          	srl	a4,a4,a1
     ec6:	00c696b3          	sll	a3,a3,a2
     eca:	bb75                	j	c86 <main+0xa70>
     ecc:	4501                	li	a0,0
     ece:	b7d1                	j	e92 <main+0xc7c>
     ed0:	06f00513          	li	a0,111
     ed4:	b18ff0ef          	jal	ra,1ec <exit>

00000ed8 <__no_irq_handler>:
     ed8:	0007f517          	auipc	a0,0x7f
     edc:	1bd50513          	addi	a0,a0,445 # 80095 <no_exception_handler_msg>
     ee0:	116040ef          	jal	ra,4ff6 <puts>
     ee4:	ff5ff06f          	j	ed8 <__no_irq_handler>

00000ee8 <sw_irq_handler>:
     ee8:	342022f3          	csrr	t0,mcause
     eec:	00129293          	slli	t0,t0,0x1
     ef0:	0012d293          	srli	t0,t0,0x1
     ef4:	00200313          	li	t1,2
     ef8:	02628c63          	beq	t0,t1,f30 <handle_illegal_insn>
     efc:	00b00313          	li	t1,11
     f00:	00628863          	beq	t0,t1,f10 <handle_ecall>
     f04:	00300313          	li	t1,3
     f08:	00628c63          	beq	t0,t1,f20 <handle_ebreak>
     f0c:	0340006f          	j	f40 <handle_unknown>

00000f10 <handle_ecall>:
     f10:	0007f517          	auipc	a0,0x7f
     f14:	11f50513          	addi	a0,a0,287 # 8002f <ecall_msg>
     f18:	0de040ef          	jal	ra,4ff6 <puts>
     f1c:	0340006f          	j	f50 <end_handler>

00000f20 <handle_ebreak>:
     f20:	0007f517          	auipc	a0,0x7f
     f24:	13050513          	addi	a0,a0,304 # 80050 <ebreak_msg>
     f28:	0ce040ef          	jal	ra,4ff6 <puts>
     f2c:	0240006f          	j	f50 <end_handler>

00000f30 <handle_illegal_insn>:
     f30:	0007f517          	auipc	a0,0x7f
     f34:	0d050513          	addi	a0,a0,208 # 80000 <illegal_insn_msg>
     f38:	0be040ef          	jal	ra,4ff6 <puts>
     f3c:	0140006f          	j	f50 <end_handler>

00000f40 <handle_unknown>:
     f40:	0007f517          	auipc	a0,0x7f
     f44:	13250513          	addi	a0,a0,306 # 80072 <unknown_msg>
     f48:	0ae040ef          	jal	ra,4ff6 <puts>
     f4c:	0040006f          	j	f50 <end_handler>

00000f50 <end_handler>:
     f50:	34102573          	csrr	a0,mepc
     f54:	00450513          	addi	a0,a0,4
     f58:	34151073          	csrw	mepc,a0
     f5c:	30200073          	mret

00000f60 <verification_irq_handler>:
     f60:	30200073          	mret

00000f64 <handler_irq_uart>:
     f64:	1101                	addi	sp,sp,-32
     f66:	ce22                	sw	s0,28(sp)
     f68:	1000                	addi	s0,sp,32
     f6a:	fea42623          	sw	a0,-20(s0)
     f6e:	0001                	nop
     f70:	4472                	lw	s0,28(sp)
     f72:	6105                	addi	sp,sp,32
     f74:	8082                	ret

00000f76 <handler_irq_dummy>:
     f76:	1101                	addi	sp,sp,-32
     f78:	ce22                	sw	s0,28(sp)
     f7a:	1000                	addi	s0,sp,32
     f7c:	fea42623          	sw	a0,-20(s0)
     f80:	0001                	nop
     f82:	4472                	lw	s0,28(sp)
     f84:	6105                	addi	sp,sp,32
     f86:	8082                	ret

00000f88 <gpio_handler_irq_dummy>:
     f88:	1101                	addi	sp,sp,-32
     f8a:	ce22                	sw	s0,28(sp)
     f8c:	1000                	addi	s0,sp,32
     f8e:	fea42623          	sw	a0,-20(s0)
     f92:	0001                	nop
     f94:	4472                	lw	s0,28(sp)
     f96:	6105                	addi	sp,sp,32
     f98:	8082                	ret

00000f9a <handler_irq_i2c>:
     f9a:	1101                	addi	sp,sp,-32
     f9c:	ce22                	sw	s0,28(sp)
     f9e:	1000                	addi	s0,sp,32
     fa0:	fea42623          	sw	a0,-20(s0)
     fa4:	fec42503          	lw	a0,-20(s0)
     fa8:	4472                	lw	s0,28(sp)
     faa:	6105                	addi	sp,sp,32
     fac:	bf65                	j	f64 <handler_irq_uart>

00000fae <fic_irq_timer_1>:
     fae:	1141                	addi	sp,sp,-16
     fb0:	c622                	sw	s0,12(sp)
     fb2:	0800                	addi	s0,sp,16
     fb4:	0001                	nop
     fb6:	4432                	lw	s0,12(sp)
     fb8:	0141                	addi	sp,sp,16
     fba:	8082                	ret

00000fbc <fic_irq_timer_2>:
     fbc:	1141                	addi	sp,sp,-16
     fbe:	c622                	sw	s0,12(sp)
     fc0:	0800                	addi	s0,sp,16
     fc2:	4432                	lw	s0,12(sp)
     fc4:	0141                	addi	sp,sp,16
     fc6:	b7e5                	j	fae <fic_irq_timer_1>

00000fc8 <fic_irq_timer_3>:
     fc8:	1141                	addi	sp,sp,-16
     fca:	c622                	sw	s0,12(sp)
     fcc:	0800                	addi	s0,sp,16
     fce:	4432                	lw	s0,12(sp)
     fd0:	0141                	addi	sp,sp,16
     fd2:	bff1                	j	fae <fic_irq_timer_1>

00000fd4 <fic_irq_spi>:
     fd4:	1141                	addi	sp,sp,-16
     fd6:	c622                	sw	s0,12(sp)
     fd8:	0800                	addi	s0,sp,16
     fda:	4432                	lw	s0,12(sp)
     fdc:	0141                	addi	sp,sp,16
     fde:	bfc1                	j	fae <fic_irq_timer_1>

00000fe0 <fic_irq_spi_flash>:
     fe0:	1141                	addi	sp,sp,-16
     fe2:	c622                	sw	s0,12(sp)
     fe4:	0800                	addi	s0,sp,16
     fe6:	4432                	lw	s0,12(sp)
     fe8:	0141                	addi	sp,sp,16
     fea:	b7d1                	j	fae <fic_irq_timer_1>

00000fec <fic_irq_gpio_0>:
     fec:	1141                	addi	sp,sp,-16
     fee:	c622                	sw	s0,12(sp)
     ff0:	0800                	addi	s0,sp,16
     ff2:	4432                	lw	s0,12(sp)
     ff4:	0141                	addi	sp,sp,16
     ff6:	bf65                	j	fae <fic_irq_timer_1>

00000ff8 <fic_irq_gpio_1>:
     ff8:	1141                	addi	sp,sp,-16
     ffa:	c622                	sw	s0,12(sp)
     ffc:	0800                	addi	s0,sp,16
     ffe:	4432                	lw	s0,12(sp)
    1000:	0141                	addi	sp,sp,16
    1002:	b775                	j	fae <fic_irq_timer_1>

00001004 <fic_irq_gpio_2>:
    1004:	1141                	addi	sp,sp,-16
    1006:	c622                	sw	s0,12(sp)
    1008:	0800                	addi	s0,sp,16
    100a:	4432                	lw	s0,12(sp)
    100c:	0141                	addi	sp,sp,16
    100e:	b745                	j	fae <fic_irq_timer_1>

00001010 <fic_irq_gpio_3>:
    1010:	1141                	addi	sp,sp,-16
    1012:	c622                	sw	s0,12(sp)
    1014:	0800                	addi	s0,sp,16
    1016:	4432                	lw	s0,12(sp)
    1018:	0141                	addi	sp,sp,16
    101a:	bf51                	j	fae <fic_irq_timer_1>

0000101c <fic_irq_gpio_4>:
    101c:	1141                	addi	sp,sp,-16
    101e:	c622                	sw	s0,12(sp)
    1020:	0800                	addi	s0,sp,16
    1022:	4432                	lw	s0,12(sp)
    1024:	0141                	addi	sp,sp,16
    1026:	b761                	j	fae <fic_irq_timer_1>

00001028 <fic_irq_gpio_5>:
    1028:	1141                	addi	sp,sp,-16
    102a:	c622                	sw	s0,12(sp)
    102c:	0800                	addi	s0,sp,16
    102e:	4432                	lw	s0,12(sp)
    1030:	0141                	addi	sp,sp,16
    1032:	bfb5                	j	fae <fic_irq_timer_1>

00001034 <fic_irq_gpio_6>:
    1034:	1141                	addi	sp,sp,-16
    1036:	c622                	sw	s0,12(sp)
    1038:	0800                	addi	s0,sp,16
    103a:	4432                	lw	s0,12(sp)
    103c:	0141                	addi	sp,sp,16
    103e:	bf85                	j	fae <fic_irq_timer_1>

00001040 <fic_irq_gpio_7>:
    1040:	1141                	addi	sp,sp,-16
    1042:	c622                	sw	s0,12(sp)
    1044:	0800                	addi	s0,sp,16
    1046:	4432                	lw	s0,12(sp)
    1048:	0141                	addi	sp,sp,16
    104a:	b795                	j	fae <fic_irq_timer_1>

0000104c <handler_irq_spi>:
    104c:	1101                	addi	sp,sp,-32
    104e:	ce22                	sw	s0,28(sp)
    1050:	1000                	addi	s0,sp,32
    1052:	fea42623          	sw	a0,-20(s0)
    1056:	fec42503          	lw	a0,-20(s0)
    105a:	4472                	lw	s0,28(sp)
    105c:	6105                	addi	sp,sp,32
    105e:	b719                	j	f64 <handler_irq_uart>

00001060 <PQCLEAN_KYBER1024_CLEAN_poly_reduce>:
    1060:	6615                	lui	a2,0x5
    1062:	6685                	lui	a3,0x1
    1064:	20050813          	addi	a6,a0,512
    1068:	ebf60613          	addi	a2,a2,-321 # 4ebf <__libc_init_array+0x1d>
    106c:	020005b7          	lui	a1,0x2000
    1070:	d0168693          	addi	a3,a3,-767 # d01 <main+0xaeb>
    1074:	00051703          	lh	a4,0(a0)
    1078:	0509                	addi	a0,a0,2
    107a:	02c707b3          	mul	a5,a4,a2
    107e:	97ae                	add	a5,a5,a1
    1080:	87e9                	srai	a5,a5,0x1a
    1082:	02d787b3          	mul	a5,a5,a3
    1086:	8f1d                	sub	a4,a4,a5
    1088:	fee51f23          	sh	a4,-2(a0)
    108c:	fea814e3          	bne	a6,a0,1074 <PQCLEAN_KYBER1024_CLEAN_poly_reduce+0x14>
    1090:	8082                	ret

00001092 <handler_irq_gpio>:
    1092:	4781                	li	a5,0
    1094:	8782                	jr	a5

00001096 <handler_irq_dma>:
    1096:	8082                	ret

00001098 <init_ip>:
    1098:	300007b7          	lui	a5,0x30000
    109c:	0007a423          	sw	zero,8(a5) # 30000008 <_sp+0x2ff1f728>
    10a0:	300006b7          	lui	a3,0x30000
    10a4:	0007a623          	sw	zero,12(a5)
    10a8:	11068713          	addi	a4,a3,272 # 30000110 <_sp+0x2ff1f830>
    10ac:	07c1                	addi	a5,a5,16
    10ae:	0007a023          	sw	zero,0(a5)
    10b2:	0791                	addi	a5,a5,4
    10b4:	fee79de3          	bne	a5,a4,10ae <init_ip+0x16>
    10b8:	2006a023          	sw	zero,512(a3)
    10bc:	2006a223          	sw	zero,516(a3)
    10c0:	2006a423          	sw	zero,520(a3)
    10c4:	2086a783          	lw	a5,520(a3)
    10c8:	e791                	bnez	a5,10d4 <init_ip+0x3c>
    10ca:	2006a823          	sw	zero,528(a3)
    10ce:	2106a783          	lw	a5,528(a3)
    10d2:	c391                	beqz	a5,10d6 <init_ip+0x3e>
    10d4:	8082                	ret
    10d6:	00080eb7          	lui	t4,0x80
    10da:	6f05                	lui	t5,0x1
    10dc:	1141                	addi	sp,sp,-16
    10de:	6f8e8e93          	addi	t4,t4,1784 # 806f8 <handlers>
    10e2:	f76f0f13          	addi	t5,t5,-138 # f76 <handler_irq_dummy>
    10e6:	6885                	lui	a7,0x1
    10e8:	6505                	lui	a0,0x1
    10ea:	6305                	lui	t1,0x1
    10ec:	c626                	sw	s1,12(sp)
    10ee:	c44a                	sw	s2,8(sp)
    10f0:	c24e                	sw	s3,4(sp)
    10f2:	01eea023          	sw	t5,0(t4)
    10f6:	004e8713          	addi	a4,t4,4
    10fa:	4785                	li	a5,1
    10fc:	4481                	li	s1,0
    10fe:	4981                	li	s3,0
    1100:	4901                	li	s2,0
    1102:	4621                	li	a2,8
    1104:	02000593          	li	a1,32
    1108:	03000813          	li	a6,48
    110c:	03100e13          	li	t3,49
    1110:	03200f93          	li	t6,50
    1114:	03300293          	li	t0,51
    1118:	03f00393          	li	t2,63
    111c:	f9a88893          	addi	a7,a7,-102 # f9a <handler_irq_i2c>
    1120:	09250513          	addi	a0,a0,146 # 1092 <handler_irq_gpio>
    1124:	f6430313          	addi	t1,t1,-156 # f64 <handler_irq_uart>
    1128:	a021                	j	1130 <init_ip+0x98>
    112a:	c308                	sw	a0,0(a4)
    112c:	0785                	addi	a5,a5,1
    112e:	0711                	addi	a4,a4,4
    1130:	0ff7f693          	zext.b	a3,a5
    1134:	00f67963          	bgeu	a2,a5,1146 <init_ip+0xae>
    1138:	fed5f9e3          	bgeu	a1,a3,112a <init_ip+0x92>
    113c:	00d86863          	bltu	a6,a3,114c <init_ip+0xb4>
    1140:	01172023          	sw	a7,0(a4)
    1144:	b7e5                	j	112c <init_ip+0x94>
    1146:	00672023          	sw	t1,0(a4)
    114a:	b7cd                	j	112c <init_ip+0x94>
    114c:	0bc68f63          	beq	a3,t3,120a <init_ip+0x172>
    1150:	0bf68f63          	beq	a3,t6,120e <init_ip+0x176>
    1154:	0a568f63          	beq	a3,t0,1212 <init_ip+0x17a>
    1158:	01e72023          	sw	t5,0(a4)
    115c:	fc7698e3          	bne	a3,t2,112c <init_ip+0x94>
    1160:	c491                	beqz	s1,116c <init_ip+0xd4>
    1162:	6785                	lui	a5,0x1
    1164:	09678793          	addi	a5,a5,150 # 1096 <handler_irq_dma>
    1168:	0cfea623          	sw	a5,204(t4)
    116c:	00098663          	beqz	s3,1178 <init_ip+0xe0>
    1170:	00000793          	li	a5,0
    1174:	0cfea423          	sw	a5,200(t4)
    1178:	00090763          	beqz	s2,1186 <init_ip+0xee>
    117c:	6785                	lui	a5,0x1
    117e:	04c78793          	addi	a5,a5,76 # 104c <handler_irq_spi>
    1182:	0cfea223          	sw	a5,196(t4)
    1186:	300007b7          	lui	a5,0x30000
    118a:	0e078713          	addi	a4,a5,224 # 300000e0 <_sp+0x2ff1f800>
    118e:	4685                	li	a3,1
    1190:	c314                	sw	a3,0(a4)
    1192:	20478793          	addi	a5,a5,516
    1196:	4398                	lw	a4,0(a5)
    1198:	fff006b7          	lui	a3,0xfff00
    119c:	16fd                	addi	a3,a3,-1
    119e:	8f75                	and	a4,a4,a3
    11a0:	001006b7          	lui	a3,0x100
    11a4:	8f55                	or	a4,a4,a3
    11a6:	c398                	sw	a4,0(a5)
    11a8:	46a1                	li	a3,8
    11aa:	3006a073          	csrs	mstatus,a3
    11ae:	6705                	lui	a4,0x1
    11b0:	80070793          	addi	a5,a4,-2048 # 800 <main+0x5ea>
    11b4:	3047a073          	csrs	mie,a5
    11b8:	200607b7          	lui	a5,0x20060
    11bc:	0007a023          	sw	zero,0(a5) # 20060000 <_sp+0x1ff7f720>
    11c0:	0007a223          	sw	zero,4(a5)
    11c4:	0007a623          	sw	zero,12(a5)
    11c8:	0007aa23          	sw	zero,20(a5)
    11cc:	0007ac23          	sw	zero,24(a5)
    11d0:	0007ae23          	sw	zero,28(a5)
    11d4:	0207a023          	sw	zero,32(a5)
    11d8:	0207a223          	sw	zero,36(a5)
    11dc:	0207a623          	sw	zero,44(a5)
    11e0:	000817b7          	lui	a5,0x81
    11e4:	80078793          	addi	a5,a5,-2048 # 80800 <in+0x8>
    11e8:	3047b073          	csrc	mie,a5
    11ec:	3006a073          	csrs	mstatus,a3
    11f0:	3047a073          	csrs	mie,a5
    11f4:	200807b7          	lui	a5,0x20080
    11f8:	0721                	addi	a4,a4,8
    11fa:	c398                	sw	a4,0(a5)
    11fc:	0007a023          	sw	zero,0(a5) # 20080000 <_sp+0x1ff9f720>
    1200:	44b2                	lw	s1,12(sp)
    1202:	4922                	lw	s2,8(sp)
    1204:	4992                	lw	s3,4(sp)
    1206:	0141                	addi	sp,sp,16
    1208:	8082                	ret
    120a:	4905                	li	s2,1
    120c:	b705                	j	112c <init_ip+0x94>
    120e:	4985                	li	s3,1
    1210:	bf31                	j	112c <init_ip+0x94>
    1212:	4485                	li	s1,1
    1214:	bf21                	j	112c <init_ip+0x94>

00001216 <PQCLEAN_KYBER1024_CLEAN_polyvec_tobytes>:
    1216:	6885                	lui	a7,0x1
    1218:	18050313          	addi	t1,a0,384
    121c:	78050e13          	addi	t3,a0,1920
    1220:	d0188893          	addi	a7,a7,-767 # d01 <main+0xaeb>
    1224:	e8030693          	addi	a3,t1,-384
    1228:	862e                	mv	a2,a1
    122a:	00061703          	lh	a4,0(a2)
    122e:	00261783          	lh	a5,2(a2)
    1232:	068d                	addi	a3,a3,3
    1234:	40f75813          	srai	a6,a4,0xf
    1238:	40f7d513          	srai	a0,a5,0xf
    123c:	01187833          	and	a6,a6,a7
    1240:	01157533          	and	a0,a0,a7
    1244:	9742                	add	a4,a4,a6
    1246:	97aa                	add	a5,a5,a0
    1248:	0742                	slli	a4,a4,0x10
    124a:	07c2                	slli	a5,a5,0x10
    124c:	8341                	srli	a4,a4,0x10
    124e:	83c1                	srli	a5,a5,0x10
    1250:	00479813          	slli	a6,a5,0x4
    1254:	00875513          	srli	a0,a4,0x8
    1258:	01056533          	or	a0,a0,a6
    125c:	8391                	srli	a5,a5,0x4
    125e:	fee68ea3          	sb	a4,-3(a3) # ffffd <_sp+0x1f71d>
    1262:	fea68f23          	sb	a0,-2(a3)
    1266:	fef68fa3          	sb	a5,-1(a3)
    126a:	0611                	addi	a2,a2,4
    126c:	fad31fe3          	bne	t1,a3,122a <PQCLEAN_KYBER1024_CLEAN_polyvec_tobytes+0x14>
    1270:	18030313          	addi	t1,t1,384
    1274:	20058593          	addi	a1,a1,512 # 2000200 <_sp+0x1f1f920>
    1278:	fa6e16e3          	bne	t3,t1,1224 <PQCLEAN_KYBER1024_CLEAN_polyvec_tobytes+0xe>
    127c:	8082                	ret

0000127e <PQCLEAN_KYBER1024_CLEAN_polyvec_frombytes>:
    127e:	18058813          	addi	a6,a1,384
    1282:	78058893          	addi	a7,a1,1920
    1286:	6585                	lui	a1,0x1
    1288:	15fd                	addi	a1,a1,-1
    128a:	e8080713          	addi	a4,a6,-384
    128e:	86aa                	mv	a3,a0
    1290:	00174783          	lbu	a5,1(a4)
    1294:	00074603          	lbu	a2,0(a4)
    1298:	070d                	addi	a4,a4,3
    129a:	07a2                	slli	a5,a5,0x8
    129c:	8fd1                	or	a5,a5,a2
    129e:	8fed                	and	a5,a5,a1
    12a0:	00f69023          	sh	a5,0(a3)
    12a4:	ffe74603          	lbu	a2,-2(a4)
    12a8:	fff74783          	lbu	a5,-1(a4)
    12ac:	0691                	addi	a3,a3,4
    12ae:	8211                	srli	a2,a2,0x4
    12b0:	0792                	slli	a5,a5,0x4
    12b2:	8fd1                	or	a5,a5,a2
    12b4:	fef69f23          	sh	a5,-2(a3)
    12b8:	fd071ce3          	bne	a4,a6,1290 <PQCLEAN_KYBER1024_CLEAN_polyvec_frombytes+0x12>
    12bc:	18070813          	addi	a6,a4,384
    12c0:	20050513          	addi	a0,a0,512
    12c4:	fd0893e3          	bne	a7,a6,128a <PQCLEAN_KYBER1024_CLEAN_polyvec_frombytes+0xc>
    12c8:	8082                	ret

000012ca <PQCLEAN_KYBER1024_CLEAN_polyvec_ntt>:
    12ca:	7179                	addi	sp,sp,-48
    12cc:	6f85                	lui	t6,0x1
    12ce:	7e7d                	lui	t3,0xfffff
    12d0:	ce56                	sw	s5,28(sp)
    12d2:	cc5a                	sw	s6,24(sp)
    12d4:	ca5e                	sw	s7,20(sp)
    12d6:	20050b13          	addi	s6,a0,512
    12da:	a00f8b93          	addi	s7,t6,-1536 # a00 <main+0x7ea>
    12de:	00080ab7          	lui	s5,0x80
    12e2:	6395                	lui	t2,0x5
    12e4:	d626                	sw	s1,44(sp)
    12e6:	d24e                	sw	s3,36(sp)
    12e8:	301e0e93          	addi	t4,t3,769 # fffff301 <_sp+0xfff1ea21>
    12ec:	d44a                	sw	s2,40(sp)
    12ee:	d052                	sw	s4,32(sp)
    12f0:	c862                	sw	s8,16(sp)
    12f2:	c666                	sw	s9,12(sp)
    12f4:	862a                	mv	a2,a0
    12f6:	82da                	mv	t0,s6
    12f8:	9baa                	add	s7,s7,a0
    12fa:	380a8a93          	addi	s5,s5,896 # 80380 <PQCLEAN_KYBER1024_CLEAN_zetas>
    12fe:	2ffe0e13          	addi	t3,t3,767
    1302:	0ff00993          	li	s3,255
    1306:	ebf38393          	addi	t2,t2,-321 # 4ebf <__libc_init_array+0x1d>
    130a:	020004b7          	lui	s1,0x2000
    130e:	d01f8f93          	addi	t6,t6,-767
    1312:	4a1d                	li	s4,7
    1314:	d0a00813          	li	a6,-758
    1318:	4905                	li	s2,1
    131a:	08000f13          	li	t5,128
    131e:	00190513          	addi	a0,s2,1
    1322:	4701                	li	a4,0
    1324:	00151313          	slli	t1,a0,0x1
    1328:	00ef05b3          	add	a1,t5,a4
    132c:	9356                	add	t1,t1,s5
    132e:	892a                	mv	s2,a0
    1330:	06b77063          	bgeu	a4,a1,1390 <PQCLEAN_KYBER1024_CLEAN_polyvec_ntt+0xc6>
    1334:	00159693          	slli	a3,a1,0x1
    1338:	96b2                	add	a3,a3,a2
    133a:	0706                	slli	a4,a4,0x1
    133c:	9732                	add	a4,a4,a2
    133e:	88b6                	mv	a7,a3
    1340:	00069c83          	lh	s9,0(a3)
    1344:	00075c03          	lhu	s8,0(a4)
    1348:	0689                	addi	a3,a3,2
    134a:	030c8cb3          	mul	s9,s9,a6
    134e:	0709                	addi	a4,a4,2
    1350:	03dc87b3          	mul	a5,s9,t4
    1354:	07c2                	slli	a5,a5,0x10
    1356:	87c1                	srai	a5,a5,0x10
    1358:	03c787b3          	mul	a5,a5,t3
    135c:	97e6                	add	a5,a5,s9
    135e:	83c1                	srli	a5,a5,0x10
    1360:	40fc0c33          	sub	s8,s8,a5
    1364:	ff869f23          	sh	s8,-2(a3)
    1368:	ffe75c03          	lhu	s8,-2(a4)
    136c:	97e2                	add	a5,a5,s8
    136e:	fef71f23          	sh	a5,-2(a4)
    1372:	fce897e3          	bne	a7,a4,1340 <PQCLEAN_KYBER1024_CLEAN_polyvec_ntt+0x76>
    1376:	01e58733          	add	a4,a1,t5
    137a:	00e9ed63          	bltu	s3,a4,1394 <PQCLEAN_KYBER1024_CLEAN_polyvec_ntt+0xca>
    137e:	0505                	addi	a0,a0,1
    1380:	00ef05b3          	add	a1,t5,a4
    1384:	00031803          	lh	a6,0(t1)
    1388:	892a                	mv	s2,a0
    138a:	0309                	addi	t1,t1,2
    138c:	fab764e3          	bltu	a4,a1,1334 <PQCLEAN_KYBER1024_CLEAN_polyvec_ntt+0x6a>
    1390:	872e                	mv	a4,a1
    1392:	b7f5                	j	137e <PQCLEAN_KYBER1024_CLEAN_polyvec_ntt+0xb4>
    1394:	1a7d                	addi	s4,s4,-1
    1396:	001f5f13          	srli	t5,t5,0x1
    139a:	000a0863          	beqz	s4,13aa <PQCLEAN_KYBER1024_CLEAN_polyvec_ntt+0xe0>
    139e:	00151793          	slli	a5,a0,0x1
    13a2:	97d6                	add	a5,a5,s5
    13a4:	00079803          	lh	a6,0(a5)
    13a8:	bf9d                	j	131e <PQCLEAN_KYBER1024_CLEAN_polyvec_ntt+0x54>
    13aa:	00061703          	lh	a4,0(a2)
    13ae:	0609                	addi	a2,a2,2
    13b0:	027707b3          	mul	a5,a4,t2
    13b4:	97a6                	add	a5,a5,s1
    13b6:	87e9                	srai	a5,a5,0x1a
    13b8:	03f787b3          	mul	a5,a5,t6
    13bc:	8f1d                	sub	a4,a4,a5
    13be:	fee61f23          	sh	a4,-2(a2)
    13c2:	fec294e3          	bne	t0,a2,13aa <PQCLEAN_KYBER1024_CLEAN_polyvec_ntt+0xe0>
    13c6:	20028293          	addi	t0,t0,512
    13ca:	865a                	mv	a2,s6
    13cc:	005b8563          	beq	s7,t0,13d6 <PQCLEAN_KYBER1024_CLEAN_polyvec_ntt+0x10c>
    13d0:	200b0b13          	addi	s6,s6,512
    13d4:	bf3d                	j	1312 <PQCLEAN_KYBER1024_CLEAN_polyvec_ntt+0x48>
    13d6:	54b2                	lw	s1,44(sp)
    13d8:	5922                	lw	s2,40(sp)
    13da:	5992                	lw	s3,36(sp)
    13dc:	5a02                	lw	s4,32(sp)
    13de:	4af2                	lw	s5,28(sp)
    13e0:	4b62                	lw	s6,24(sp)
    13e2:	4bd2                	lw	s7,20(sp)
    13e4:	4c42                	lw	s8,16(sp)
    13e6:	4cb2                	lw	s9,12(sp)
    13e8:	6145                	addi	sp,sp,48
    13ea:	8082                	ret

000013ec <PQCLEAN_KYBER1024_CLEAN_invntt>:
    13ec:	1101                	addi	sp,sp,-32
    13ee:	787d                	lui	a6,0xfffff
    13f0:	ca4e                	sw	s3,20(sp)
    13f2:	c852                	sw	s4,16(sp)
    13f4:	000809b7          	lui	s3,0x80
    13f8:	80000a37          	lui	s4,0x80000
    13fc:	6315                	lui	t1,0x5
    13fe:	6885                	lui	a7,0x1
    1400:	ce26                	sw	s1,28(sp)
    1402:	cc4a                	sw	s2,24(sp)
    1404:	30180e13          	addi	t3,a6,769 # fffff301 <_sp+0xfff1ea21>
    1408:	c656                	sw	s5,12(sp)
    140a:	c45a                	sw	s6,8(sp)
    140c:	862a                	mv	a2,a0
    140e:	491d                	li	s2,7
    1410:	65c00593          	li	a1,1628
    1414:	07f00293          	li	t0,127
    1418:	4389                	li	t2,2
    141a:	38098993          	addi	s3,s3,896 # 80380 <PQCLEAN_KYBER1024_CLEAN_zetas>
    141e:	fffa4a13          	not	s4,s4
    1422:	ebf30313          	addi	t1,t1,-321 # 4ebf <__libc_init_array+0x1d>
    1426:	02000eb7          	lui	t4,0x2000
    142a:	d0188893          	addi	a7,a7,-767 # d01 <main+0xaeb>
    142e:	2ff80813          	addi	a6,a6,767
    1432:	0ff00493          	li	s1,255
    1436:	01428fb3          	add	t6,t0,s4
    143a:	4701                	li	a4,0
    143c:	0f86                	slli	t6,t6,0x1
    143e:	00770f33          	add	t5,a4,t2
    1442:	9fce                	add	t6,t6,s3
    1444:	12fd                	addi	t0,t0,-1
    1446:	07e77d63          	bgeu	a4,t5,14c0 <PQCLEAN_KYBER1024_CLEAN_invntt+0xd4>
    144a:	001f1693          	slli	a3,t5,0x1
    144e:	0706                	slli	a4,a4,0x1
    1450:	96b2                	add	a3,a3,a2
    1452:	9732                	add	a4,a4,a2
    1454:	8536                	mv	a0,a3
    1456:	00075b03          	lhu	s6,0(a4)
    145a:	0006da83          	lhu	s5,0(a3)
    145e:	0709                	addi	a4,a4,2
    1460:	0689                	addi	a3,a3,2
    1462:	9ada                	add	s5,s5,s6
    1464:	010a9793          	slli	a5,s5,0x10
    1468:	87c1                	srai	a5,a5,0x10
    146a:	026787b3          	mul	a5,a5,t1
    146e:	97f6                	add	a5,a5,t4
    1470:	87e9                	srai	a5,a5,0x1a
    1472:	031787b3          	mul	a5,a5,a7
    1476:	40fa8ab3          	sub	s5,s5,a5
    147a:	ff571f23          	sh	s5,-2(a4)
    147e:	ffe6da83          	lhu	s5,-2(a3)
    1482:	416a8ab3          	sub	s5,s5,s6
    1486:	0ac2                	slli	s5,s5,0x10
    1488:	410ada93          	srai	s5,s5,0x10
    148c:	02ba8ab3          	mul	s5,s5,a1
    1490:	03ca87b3          	mul	a5,s5,t3
    1494:	07c2                	slli	a5,a5,0x10
    1496:	87c1                	srai	a5,a5,0x10
    1498:	030787b3          	mul	a5,a5,a6
    149c:	97d6                	add	a5,a5,s5
    149e:	87c1                	srai	a5,a5,0x10
    14a0:	fef69f23          	sh	a5,-2(a3)
    14a4:	fae519e3          	bne	a0,a4,1456 <PQCLEAN_KYBER1024_CLEAN_invntt+0x6a>
    14a8:	007f0733          	add	a4,t5,t2
    14ac:	00e4ed63          	bltu	s1,a4,14c6 <PQCLEAN_KYBER1024_CLEAN_invntt+0xda>
    14b0:	00770f33          	add	t5,a4,t2
    14b4:	000f9583          	lh	a1,0(t6)
    14b8:	12fd                	addi	t0,t0,-1
    14ba:	1ff9                	addi	t6,t6,-2
    14bc:	f9e767e3          	bltu	a4,t5,144a <PQCLEAN_KYBER1024_CLEAN_invntt+0x5e>
    14c0:	877a                	mv	a4,t5
    14c2:	fee4f7e3          	bgeu	s1,a4,14b0 <PQCLEAN_KYBER1024_CLEAN_invntt+0xc4>
    14c6:	197d                	addi	s2,s2,-1
    14c8:	0386                	slli	t2,t2,0x1
    14ca:	00090863          	beqz	s2,14da <PQCLEAN_KYBER1024_CLEAN_invntt+0xee>
    14ce:	00129793          	slli	a5,t0,0x1
    14d2:	97ce                	add	a5,a5,s3
    14d4:	00079583          	lh	a1,0(a5)
    14d8:	bfb9                	j	1436 <PQCLEAN_KYBER1024_CLEAN_invntt+0x4a>
    14da:	76fd                	lui	a3,0xfffff
    14dc:	30168593          	addi	a1,a3,769 # fffff301 <_sp+0xfff1ea21>
    14e0:	20060813          	addi	a6,a2,512
    14e4:	5a100513          	li	a0,1441
    14e8:	2ff68693          	addi	a3,a3,767
    14ec:	00061703          	lh	a4,0(a2)
    14f0:	0609                	addi	a2,a2,2
    14f2:	02a70733          	mul	a4,a4,a0
    14f6:	02b707b3          	mul	a5,a4,a1
    14fa:	07c2                	slli	a5,a5,0x10
    14fc:	87c1                	srai	a5,a5,0x10
    14fe:	02d787b3          	mul	a5,a5,a3
    1502:	97ba                	add	a5,a5,a4
    1504:	87c1                	srai	a5,a5,0x10
    1506:	fef61f23          	sh	a5,-2(a2)
    150a:	fec811e3          	bne	a6,a2,14ec <PQCLEAN_KYBER1024_CLEAN_invntt+0x100>
    150e:	44f2                	lw	s1,28(sp)
    1510:	4962                	lw	s2,24(sp)
    1512:	49d2                	lw	s3,20(sp)
    1514:	4a42                	lw	s4,16(sp)
    1516:	4ab2                	lw	s5,12(sp)
    1518:	4b22                	lw	s6,8(sp)
    151a:	6105                	addi	sp,sp,32
    151c:	8082                	ret

0000151e <PQCLEAN_KYBER1024_CLEAN_poly_basemul_montgomery>:
    151e:	000808b7          	lui	a7,0x80
    1522:	38088893          	addi	a7,a7,896 # 80380 <PQCLEAN_KYBER1024_CLEAN_zetas>
    1526:	777d                	lui	a4,0xfffff
    1528:	08088813          	addi	a6,a7,128
    152c:	30170693          	addi	a3,a4,769 # fffff301 <_sp+0xfff1ea21>
    1530:	10088893          	addi	a7,a7,256
    1534:	2ff70713          	addi	a4,a4,767
    1538:	00261783          	lh	a5,2(a2)
    153c:	00259e03          	lh	t3,2(a1) # 1002 <fic_irq_gpio_1+0xa>
    1540:	00081e83          	lh	t4,0(a6)
    1544:	0521                	addi	a0,a0,8
    1546:	02fe0e33          	mul	t3,t3,a5
    154a:	05a1                	addi	a1,a1,8
    154c:	0621                	addi	a2,a2,8
    154e:	41d00333          	neg	t1,t4
    1552:	0342                	slli	t1,t1,0x10
    1554:	41035313          	srai	t1,t1,0x10
    1558:	0809                	addi	a6,a6,2
    155a:	02de07b3          	mul	a5,t3,a3
    155e:	07c2                	slli	a5,a5,0x10
    1560:	87c1                	srai	a5,a5,0x10
    1562:	02e787b3          	mul	a5,a5,a4
    1566:	97f2                	add	a5,a5,t3
    1568:	87c1                	srai	a5,a5,0x10
    156a:	03d787b3          	mul	a5,a5,t4
    156e:	02d78e33          	mul	t3,a5,a3
    1572:	0e42                	slli	t3,t3,0x10
    1574:	410e5e13          	srai	t3,t3,0x10
    1578:	02ee0e33          	mul	t3,t3,a4
    157c:	9e3e                	add	t3,t3,a5
    157e:	410e5e13          	srai	t3,t3,0x10
    1582:	ffc51c23          	sh	t3,-8(a0)
    1586:	ff861783          	lh	a5,-8(a2)
    158a:	ff859e83          	lh	t4,-8(a1)
    158e:	02fe8eb3          	mul	t4,t4,a5
    1592:	02de87b3          	mul	a5,t4,a3
    1596:	07c2                	slli	a5,a5,0x10
    1598:	87c1                	srai	a5,a5,0x10
    159a:	02e787b3          	mul	a5,a5,a4
    159e:	97f6                	add	a5,a5,t4
    15a0:	87c1                	srai	a5,a5,0x10
    15a2:	97f2                	add	a5,a5,t3
    15a4:	fef51c23          	sh	a5,-8(a0)
    15a8:	ffa61e03          	lh	t3,-6(a2)
    15ac:	ff859783          	lh	a5,-8(a1)
    15b0:	03c787b3          	mul	a5,a5,t3
    15b4:	02d78e33          	mul	t3,a5,a3
    15b8:	0e42                	slli	t3,t3,0x10
    15ba:	410e5e13          	srai	t3,t3,0x10
    15be:	02ee0e33          	mul	t3,t3,a4
    15c2:	9e3e                	add	t3,t3,a5
    15c4:	410e5e13          	srai	t3,t3,0x10
    15c8:	ffc51d23          	sh	t3,-6(a0)
    15cc:	ff861783          	lh	a5,-8(a2)
    15d0:	ffa59e83          	lh	t4,-6(a1)
    15d4:	02fe8eb3          	mul	t4,t4,a5
    15d8:	02de87b3          	mul	a5,t4,a3
    15dc:	07c2                	slli	a5,a5,0x10
    15de:	87c1                	srai	a5,a5,0x10
    15e0:	02e787b3          	mul	a5,a5,a4
    15e4:	97f6                	add	a5,a5,t4
    15e6:	87c1                	srai	a5,a5,0x10
    15e8:	97f2                	add	a5,a5,t3
    15ea:	fef51d23          	sh	a5,-6(a0)
    15ee:	ffe61783          	lh	a5,-2(a2)
    15f2:	ffe59e03          	lh	t3,-2(a1)
    15f6:	02fe0e33          	mul	t3,t3,a5
    15fa:	02de07b3          	mul	a5,t3,a3
    15fe:	07c2                	slli	a5,a5,0x10
    1600:	87c1                	srai	a5,a5,0x10
    1602:	02e787b3          	mul	a5,a5,a4
    1606:	97f2                	add	a5,a5,t3
    1608:	87c1                	srai	a5,a5,0x10
    160a:	026787b3          	mul	a5,a5,t1
    160e:	02d78333          	mul	t1,a5,a3
    1612:	0342                	slli	t1,t1,0x10
    1614:	41035313          	srai	t1,t1,0x10
    1618:	02e30333          	mul	t1,t1,a4
    161c:	933e                	add	t1,t1,a5
    161e:	41035313          	srai	t1,t1,0x10
    1622:	fe651e23          	sh	t1,-4(a0)
    1626:	ffc61783          	lh	a5,-4(a2)
    162a:	ffc59e03          	lh	t3,-4(a1)
    162e:	02fe0e33          	mul	t3,t3,a5
    1632:	02de07b3          	mul	a5,t3,a3
    1636:	07c2                	slli	a5,a5,0x10
    1638:	87c1                	srai	a5,a5,0x10
    163a:	02e787b3          	mul	a5,a5,a4
    163e:	97f2                	add	a5,a5,t3
    1640:	87c1                	srai	a5,a5,0x10
    1642:	979a                	add	a5,a5,t1
    1644:	fef51e23          	sh	a5,-4(a0)
    1648:	ffe61303          	lh	t1,-2(a2)
    164c:	ffc59783          	lh	a5,-4(a1)
    1650:	026787b3          	mul	a5,a5,t1
    1654:	02d78333          	mul	t1,a5,a3
    1658:	0342                	slli	t1,t1,0x10
    165a:	41035313          	srai	t1,t1,0x10
    165e:	02e30333          	mul	t1,t1,a4
    1662:	933e                	add	t1,t1,a5
    1664:	41035313          	srai	t1,t1,0x10
    1668:	fe651f23          	sh	t1,-2(a0)
    166c:	ffc61783          	lh	a5,-4(a2)
    1670:	ffe59e03          	lh	t3,-2(a1)
    1674:	02fe0e33          	mul	t3,t3,a5
    1678:	02de07b3          	mul	a5,t3,a3
    167c:	07c2                	slli	a5,a5,0x10
    167e:	87c1                	srai	a5,a5,0x10
    1680:	02e787b3          	mul	a5,a5,a4
    1684:	97f2                	add	a5,a5,t3
    1686:	87c1                	srai	a5,a5,0x10
    1688:	979a                	add	a5,a5,t1
    168a:	fef51f23          	sh	a5,-2(a0)
    168e:	eb0895e3          	bne	a7,a6,1538 <PQCLEAN_KYBER1024_CLEAN_poly_basemul_montgomery+0x1a>
    1692:	8082                	ret

00001694 <PQCLEAN_KYBER1024_CLEAN_polyvec_basemul_acc_montgomery>:
    1694:	de010113          	addi	sp,sp,-544
    1698:	20912c23          	sw	s1,536(sp)
    169c:	21212a23          	sw	s2,532(sp)
    16a0:	21312823          	sw	s3,528(sp)
    16a4:	21412623          	sw	s4,524(sp)
    16a8:	21512423          	sw	s5,520(sp)
    16ac:	20112e23          	sw	ra,540(sp)
    16b0:	892a                	mv	s2,a0
    16b2:	8aae                	mv	s5,a1
    16b4:	8a32                	mv	s4,a2
    16b6:	20000993          	li	s3,512
    16ba:	3595                	jal	151e <PQCLEAN_KYBER1024_CLEAN_poly_basemul_montgomery>
    16bc:	0404                	addi	s1,sp,512
    16be:	013a85b3          	add	a1,s5,s3
    16c2:	013a0633          	add	a2,s4,s3
    16c6:	850a                	mv	a0,sp
    16c8:	3d99                	jal	151e <PQCLEAN_KYBER1024_CLEAN_poly_basemul_montgomery>
    16ca:	85ca                	mv	a1,s2
    16cc:	870a                	mv	a4,sp
    16ce:	87ca                	mv	a5,s2
    16d0:	0007d683          	lhu	a3,0(a5)
    16d4:	00075603          	lhu	a2,0(a4)
    16d8:	0789                	addi	a5,a5,2
    16da:	0709                	addi	a4,a4,2
    16dc:	96b2                	add	a3,a3,a2
    16de:	fed79f23          	sh	a3,-2(a5)
    16e2:	fee497e3          	bne	s1,a4,16d0 <PQCLEAN_KYBER1024_CLEAN_polyvec_basemul_acc_montgomery+0x3c>
    16e6:	20098993          	addi	s3,s3,512
    16ea:	80098793          	addi	a5,s3,-2048
    16ee:	fbe1                	bnez	a5,16be <PQCLEAN_KYBER1024_CLEAN_polyvec_basemul_acc_montgomery+0x2a>
    16f0:	6515                	lui	a0,0x5
    16f2:	6605                	lui	a2,0x1
    16f4:	20090693          	addi	a3,s2,512
    16f8:	ebf50513          	addi	a0,a0,-321 # 4ebf <__libc_init_array+0x1d>
    16fc:	02000837          	lui	a6,0x2000
    1700:	d0160613          	addi	a2,a2,-767 # d01 <main+0xaeb>
    1704:	00059703          	lh	a4,0(a1)
    1708:	0589                	addi	a1,a1,2
    170a:	02a707b3          	mul	a5,a4,a0
    170e:	97c2                	add	a5,a5,a6
    1710:	87e9                	srai	a5,a5,0x1a
    1712:	02c787b3          	mul	a5,a5,a2
    1716:	8f1d                	sub	a4,a4,a5
    1718:	fee59f23          	sh	a4,-2(a1)
    171c:	feb694e3          	bne	a3,a1,1704 <PQCLEAN_KYBER1024_CLEAN_polyvec_basemul_acc_montgomery+0x70>
    1720:	21c12083          	lw	ra,540(sp)
    1724:	21812483          	lw	s1,536(sp)
    1728:	21412903          	lw	s2,532(sp)
    172c:	21012983          	lw	s3,528(sp)
    1730:	20c12a03          	lw	s4,524(sp)
    1734:	20812a83          	lw	s5,520(sp)
    1738:	22010113          	addi	sp,sp,544
    173c:	8082                	ret

0000173e <KeccakF1600_StatePermute>:
    173e:	4118                	lw	a4,0(a0)
    1740:	7109                	addi	sp,sp,-384
    1742:	16912e23          	sw	s1,380(sp)
    1746:	d73a                	sw	a4,172(sp)
    1748:	4158                	lw	a4,4(a0)
    174a:	17312a23          	sw	s3,372(sp)
    174e:	17512623          	sw	s5,364(sp)
    1752:	d93a                	sw	a4,176(sp)
    1754:	4518                	lw	a4,8(a0)
    1756:	17612423          	sw	s6,360(sp)
    175a:	17712223          	sw	s7,356(sp)
    175e:	c43a                	sw	a4,8(sp)
    1760:	4558                	lw	a4,12(a0)
    1762:	15912e23          	sw	s9,348(sp)
    1766:	15a12c23          	sw	s10,344(sp)
    176a:	db3a                	sw	a4,180(sp)
    176c:	4918                	lw	a4,16(a0)
    176e:	15b12a23          	sw	s11,340(sp)
    1772:	17212c23          	sw	s2,376(sp)
    1776:	dd3a                	sw	a4,184(sp)
    1778:	4958                	lw	a4,20(a0)
    177a:	17412823          	sw	s4,368(sp)
    177e:	17812023          	sw	s8,352(sp)
    1782:	df3a                	sw	a4,188(sp)
    1784:	4d18                	lw	a4,24(a0)
    1786:	14a12623          	sw	a0,332(sp)
    178a:	000807b7          	lui	a5,0x80
    178e:	c1ba                	sw	a4,192(sp)
    1790:	4d58                	lw	a4,28(a0)
    1792:	2c078793          	addi	a5,a5,704 # 802c0 <KeccakF_RoundConstants>
    1796:	c3ba                	sw	a4,196(sp)
    1798:	5118                	lw	a4,32(a0)
    179a:	c5ba                	sw	a4,200(sp)
    179c:	5158                	lw	a4,36(a0)
    179e:	c7ba                	sw	a4,204(sp)
    17a0:	5518                	lw	a4,40(a0)
    17a2:	03052d83          	lw	s11,48(a0)
    17a6:	4564                	lw	s1,76(a0)
    17a8:	c9ba                	sw	a4,208(sp)
    17aa:	5558                	lw	a4,44(a0)
    17ac:	06052c83          	lw	s9,96(a0)
    17b0:	8b26                	mv	s6,s1
    17b2:	cbba                	sw	a4,212(sp)
    17b4:	5958                	lw	a4,52(a0)
    17b6:	c63a                	sw	a4,12(sp)
    17b8:	5d18                	lw	a4,56(a0)
    17ba:	cc3a                	sw	a4,24(sp)
    17bc:	5d58                	lw	a4,60(a0)
    17be:	ce3a                	sw	a4,28(sp)
    17c0:	4138                	lw	a4,64(a0)
    17c2:	cdba                	sw	a4,216(sp)
    17c4:	4178                	lw	a4,68(a0)
    17c6:	cfba                	sw	a4,220(sp)
    17c8:	4538                	lw	a4,72(a0)
    17ca:	ca3a                	sw	a4,20(sp)
    17cc:	4938                	lw	a4,80(a0)
    17ce:	d03a                	sw	a4,32(sp)
    17d0:	4978                	lw	a4,84(a0)
    17d2:	d23a                	sw	a4,36(sp)
    17d4:	4d38                	lw	a4,88(a0)
    17d6:	d1ba                	sw	a4,224(sp)
    17d8:	4d78                	lw	a4,92(a0)
    17da:	d3ba                	sw	a4,228(sp)
    17dc:	5178                	lw	a4,100(a0)
    17de:	c83a                	sw	a4,16(sp)
    17e0:	5538                	lw	a4,104(a0)
    17e2:	d43a                	sw	a4,40(sp)
    17e4:	5578                	lw	a4,108(a0)
    17e6:	d63a                	sw	a4,44(sp)
    17e8:	5938                	lw	a4,112(a0)
    17ea:	09052983          	lw	s3,144(a0)
    17ee:	09452b83          	lw	s7,148(a0)
    17f2:	d5ba                	sw	a4,232(sp)
    17f4:	5978                	lw	a4,116(a0)
    17f6:	8d5e                	mv	s10,s7
    17f8:	8bce                	mv	s7,s3
    17fa:	d7ba                	sw	a4,236(sp)
    17fc:	5d38                	lw	a4,120(a0)
    17fe:	89e6                	mv	s3,s9
    1800:	d9ba                	sw	a4,240(sp)
    1802:	5d78                	lw	a4,124(a0)
    1804:	dbba                	sw	a4,244(sp)
    1806:	08052703          	lw	a4,128(a0)
    180a:	d83a                	sw	a4,48(sp)
    180c:	08452703          	lw	a4,132(a0)
    1810:	da3a                	sw	a4,52(sp)
    1812:	08852703          	lw	a4,136(a0)
    1816:	ccba                	sw	a4,88(sp)
    1818:	08c52703          	lw	a4,140(a0)
    181c:	ceba                	sw	a4,92(sp)
    181e:	09852703          	lw	a4,152(a0)
    1822:	dc3a                	sw	a4,56(sp)
    1824:	09c52703          	lw	a4,156(a0)
    1828:	de3a                	sw	a4,60(sp)
    182a:	0a052703          	lw	a4,160(a0)
    182e:	c0ba                	sw	a4,64(sp)
    1830:	0a452703          	lw	a4,164(a0)
    1834:	c2ba                	sw	a4,68(sp)
    1836:	0a852703          	lw	a4,168(a0)
    183a:	d8ba                	sw	a4,112(sp)
    183c:	0ac52703          	lw	a4,172(a0)
    1840:	daba                	sw	a4,116(sp)
    1842:	0b052703          	lw	a4,176(a0)
    1846:	c4ba                	sw	a4,72(sp)
    1848:	0b452703          	lw	a4,180(a0)
    184c:	0c452a83          	lw	s5,196(a0)
    1850:	ddee                	sw	s11,248(sp)
    1852:	c6ba                	sw	a4,76(sp)
    1854:	0b852703          	lw	a4,184(a0)
    1858:	c23e                	sw	a5,4(sp)
    185a:	8dd6                	mv	s11,s5
    185c:	d0ba                	sw	a4,96(sp)
    185e:	0bc52703          	lw	a4,188(a0)
    1862:	d2ba                	sw	a4,100(sp)
    1864:	0c052703          	lw	a4,192(a0)
    1868:	c8ba                	sw	a4,80(sp)
    186a:	57ba                	lw	a5,172(sp)
    186c:	474e                	lw	a4,208(sp)
    186e:	58ea                	lw	a7,184(sp)
    1870:	4362                	lw	t1,24(sp)
    1872:	5efa                	lw	t4,188(sp)
    1874:	4ff2                	lw	t6,28(sp)
    1876:	45de                	lw	a1,212(sp)
    1878:	54da                	lw	s1,180(sp)
    187a:	4832                	lw	a6,12(sp)
    187c:	428e                	lw	t0,192(sp)
    187e:	43ee                	lw	t2,216(sp)
    1880:	56ca                	lw	a3,176(sp)
    1882:	4522                	lw	a0,8(sp)
    1884:	4c2e                	lw	s8,200(sp)
    1886:	4cd2                	lw	s9,20(sp)
    1888:	00e7c633          	xor	a2,a5,a4
    188c:	0068ce33          	xor	t3,a7,t1
    1890:	576e                	lw	a4,248(sp)
    1892:	01fec333          	xor	t1,t4,t6
    1896:	5f9e                	lw	t6,228(sp)
    1898:	491e                	lw	s2,196(sp)
    189a:	4a7e                	lw	s4,220(sp)
    189c:	5e92                	lw	t4,36(sp)
    189e:	5f0e                	lw	t5,224(sp)
    18a0:	0104c7b3          	xor	a5,s1,a6
    18a4:	0072c8b3          	xor	a7,t0,t2
    18a8:	5482                	lw	s1,32(sp)
    18aa:	53a2                	lw	t2,40(sp)
    18ac:	8ead                	xor	a3,a3,a1
    18ae:	45be                	lw	a1,204(sp)
    18b0:	8f29                	xor	a4,a4,a0
    18b2:	01f7c7b3          	xor	a5,a5,t6
    18b6:	019c4533          	xor	a0,s8,s9
    18ba:	5fd2                	lw	t6,52(sp)
    18bc:	5cbe                	lw	s9,236(sp)
    18be:	42c2                	lw	t0,16(sp)
    18c0:	01494833          	xor	a6,s2,s4
    18c4:	0165c5b3          	xor	a1,a1,s6
    18c8:	5932                	lw	s2,44(sp)
    18ca:	5a2e                	lw	s4,232(sp)
    18cc:	8e25                	xor	a2,a2,s1
    18ce:	01d6c6b3          	xor	a3,a3,t4
    18d2:	54ce                	lw	s1,240(sp)
    18d4:	5ede                	lw	t4,244(sp)
    18d6:	01e74733          	xor	a4,a4,t5
    18da:	0078c8b3          	xor	a7,a7,t2
    18de:	5f42                	lw	t5,48(sp)
    18e0:	43e6                	lw	t2,88(sp)
    18e2:	0195c5b3          	xor	a1,a1,s9
    18e6:	01f7c7b3          	xor	a5,a5,t6
    18ea:	4c86                	lw	s9,64(sp)
    18ec:	4fa6                	lw	t6,72(sp)
    18ee:	013e4e33          	xor	t3,t3,s3
    18f2:	007e4e33          	xor	t3,t3,t2
    18f6:	01284833          	xor	a6,a6,s2
    18fa:	8e25                	xor	a2,a2,s1
    18fc:	4976                	lw	s2,92(sp)
    18fe:	01964633          	xor	a2,a2,s9
    1902:	5c72                	lw	s8,60(sp)
    1904:	01fe4cb3          	xor	s9,t3,t6
    1908:	4e36                	lw	t3,76(sp)
    190a:	00534333          	xor	t1,t1,t0
    190e:	01234333          	xor	t1,t1,s2
    1912:	01454533          	xor	a0,a0,s4
    1916:	01d6c6b3          	xor	a3,a3,t4
    191a:	5a62                	lw	s4,56(sp)
    191c:	5ec6                	lw	t4,112(sp)
    191e:	01e74733          	xor	a4,a4,t5
    1922:	0185c5b3          	xor	a1,a1,s8
    1926:	5f56                	lw	t5,116(sp)
    1928:	01c34c33          	xor	s8,t1,t3
    192c:	5306                	lw	t1,96(sp)
    192e:	4496                	lw	s1,68(sp)
    1930:	0178c8b3          	xor	a7,a7,s7
    1934:	01d74733          	xor	a4,a4,t4
    1938:	01e7c7b3          	xor	a5,a5,t5
    193c:	01454533          	xor	a0,a0,s4
    1940:	0068ca33          	xor	s4,a7,t1
    1944:	5896                	lw	a7,100(sp)
    1946:	00179a93          	slli	s5,a5,0x1
    194a:	01f75393          	srli	t2,a4,0x1f
    194e:	8ea5                	xor	a3,a3,s1
    1950:	01a84833          	xor	a6,a6,s10
    1954:	0153e3b3          	or	t2,t2,s5
    1958:	01f7d493          	srli	s1,a5,0x1f
    195c:	00171a93          	slli	s5,a4,0x1
    1960:	01184933          	xor	s2,a6,a7
    1964:	0154e4b3          	or	s1,s1,s5
    1968:	4846                	lw	a6,80(sp)
    196a:	001c1a93          	slli	s5,s8,0x1
    196e:	01fcdf93          	srli	t6,s9,0x1f
    1972:	015fefb3          	or	t6,t6,s5
    1976:	001c9293          	slli	t0,s9,0x1
    197a:	01fc5a93          	srli	s5,s8,0x1f
    197e:	005ae2b3          	or	t0,s5,t0
    1982:	01fa5e93          	srli	t4,s4,0x1f
    1986:	00191a93          	slli	s5,s2,0x1
    198a:	01054533          	xor	a0,a0,a6
    198e:	01b5c5b3          	xor	a1,a1,s11
    1992:	001a1f13          	slli	t5,s4,0x1
    1996:	015eeeb3          	or	t4,t4,s5
    199a:	01f95a93          	srli	s5,s2,0x1f
    199e:	01eaef33          	or	t5,s5,t5
    19a2:	00159313          	slli	t1,a1,0x1
    19a6:	01f55a93          	srli	s5,a0,0x1f
    19aa:	01f5de13          	srli	t3,a1,0x1f
    19ae:	006ae333          	or	t1,s5,t1
    19b2:	00151a93          	slli	s5,a0,0x1
    19b6:	8d25                	xor	a0,a0,s1
    19b8:	00ef44b3          	xor	s1,t5,a4
    19bc:	576e                	lw	a4,248(sp)
    19be:	00169813          	slli	a6,a3,0x1
    19c2:	015e6e33          	or	t3,t3,s5
    19c6:	01f65a93          	srli	s5,a2,0x1f
    19ca:	01f6d893          	srli	a7,a3,0x1f
    19ce:	010ae833          	or	a6,s5,a6
    19d2:	00161a93          	slli	s5,a2,0x1
    19d6:	00c2c633          	xor	a2,t0,a2
    19da:	00feceb3          	xor	t4,t4,a5
    19de:	0158e8b3          	or	a7,a7,s5
    19e2:	87b2                	mv	a5,a2
    19e4:	00e64ab3          	xor	s5,a2,a4
    19e8:	4632                	lw	a2,12(sp)
    19ea:	00dfc6b3          	xor	a3,t6,a3
    19ee:	0148c8b3          	xor	a7,a7,s4
    19f2:	42c2                	lw	t0,16(sp)
    19f4:	00c6ca33          	xor	s4,a3,a2
    19f8:	460e                	lw	a2,192(sp)
    19fa:	019e4e33          	xor	t3,t3,s9
    19fe:	01284833          	xor	a6,a6,s2
    1a02:	8cf6                	mv	s9,t4
    1a04:	005ec933          	xor	s2,t4,t0
    1a08:	00ce4eb3          	xor	t4,t3,a2
    1a0c:	461e                	lw	a2,196(sp)
    1a0e:	01834333          	xor	t1,t1,s8
    1a12:	01b842b3          	xor	t0,a6,s11
    1a16:	00c34f33          	xor	t5,t1,a2
    1a1a:	4652                	lw	a2,20(sp)
    1a1c:	8c26                	mv	s8,s1
    1a1e:	0134c9b3          	xor	s3,s1,s3
    1a22:	8d9a                	mv	s11,t1
    1a24:	01a344b3          	xor	s1,t1,s10
    1a28:	4d46                	lw	s10,80(sp)
    1a2a:	00c8c333          	xor	t1,a7,a2
    1a2e:	5602                	lw	a2,32(sp)
    1a30:	00b3c5b3          	xor	a1,t2,a1
    1a34:	01a8cfb3          	xor	t6,a7,s10
    1a38:	017e43b3          	xor	t2,t3,s7
    1a3c:	8d72                	mv	s10,t3
    1a3e:	ca42                	sw	a6,20(sp)
    1a40:	01684e33          	xor	t3,a6,s6
    1a44:	00c54833          	xor	a6,a0,a2
    1a48:	5612                	lw	a2,36(sp)
    1a4a:	c846                	sw	a7,16(sp)
    1a4c:	8b2a                	mv	s6,a0
    1a4e:	00c5c8b3          	xor	a7,a1,a2
    1a52:	5642                	lw	a2,48(sp)
    1a54:	8736                	mv	a4,a3
    1a56:	8bae                	mv	s7,a1
    1a58:	00c7c533          	xor	a0,a5,a2
    1a5c:	c8aa                	sw	a0,80(sp)
    1a5e:	5652                	lw	a2,52(sp)
    1a60:	4522                	lw	a0,8(sp)
    1a62:	dcbe                	sw	a5,120(sp)
    1a64:	00c6c5b3          	xor	a1,a3,a2
    1a68:	8fa9                	xor	a5,a5,a0
    1a6a:	4626                	lw	a2,72(sp)
    1a6c:	46b6                	lw	a3,76(sp)
    1a6e:	deba                	sw	a4,124(sp)
    1a70:	555a                	lw	a0,180(sp)
    1a72:	00cc4633          	xor	a2,s8,a2
    1a76:	c162                	sw	s8,128(sp)
    1a78:	8f29                	xor	a4,a4,a0
    1a7a:	4562                	lw	a0,24(sp)
    1a7c:	00dcc6b3          	xor	a3,s9,a3
    1a80:	c366                	sw	s9,132(sp)
    1a82:	00ac4c33          	xor	s8,s8,a0
    1a86:	4572                	lw	a0,28(sp)
    1a88:	c56a                	sw	s10,136(sp)
    1a8a:	d162                	sw	s8,160(sp)
    1a8c:	00acccb3          	xor	s9,s9,a0
    1a90:	5522                	lw	a0,40(sp)
    1a92:	4c42                	lw	s8,16(sp)
    1a94:	c76e                	sw	s11,140(sp)
    1a96:	00ad4d33          	xor	s10,s10,a0
    1a9a:	5532                	lw	a0,44(sp)
    1a9c:	db66                	sw	s9,180(sp)
    1a9e:	c1ea                	sw	s10,192(sp)
    1aa0:	00adcdb3          	xor	s11,s11,a0
    1aa4:	5562                	lw	a0,56(sp)
    1aa6:	4cd2                	lw	s9,20(sp)
    1aa8:	c3ee                	sw	s11,196(sp)
    1aaa:	00ac4d33          	xor	s10,s8,a0
    1aae:	5572                	lw	a0,60(sp)
    1ab0:	c45a                	sw	s6,8(sp)
    1ab2:	ddea                	sw	s10,248(sp)
    1ab4:	00accdb3          	xor	s11,s9,a0
    1ab8:	4506                	lw	a0,64(sp)
    1aba:	00ca1d13          	slli	s10,s4,0xc
    1abe:	dfee                	sw	s11,252(sp)
    1ac0:	00ab4b33          	xor	s6,s6,a0
    1ac4:	4516                	lw	a0,68(sp)
    1ac6:	11612023          	sw	s6,256(sp)
    1aca:	4b12                	lw	s6,4(sp)
    1acc:	00abc533          	xor	a0,s7,a0
    1ad0:	10a12223          	sw	a0,260(sp)
    1ad4:	000b2503          	lw	a0,0(s6)
    1ad8:	c65e                	sw	s7,12(sp)
    1ada:	cc6a                	sw	s10,24(sp)
    1adc:	c92a                	sw	a0,144(sp)
    1ade:	004b2503          	lw	a0,4(s6)
    1ae2:	00b91b13          	slli	s6,s2,0xb
    1ae6:	01595913          	srli	s2,s2,0x15
    1aea:	cf2a                	sw	a0,156(sp)
    1aec:	014ad513          	srli	a0,s5,0x14
    1af0:	ce2a                	sw	a0,28(sp)
    1af2:	d05a                	sw	s6,32(sp)
    1af4:	4546                	lw	a0,80(sp)
    1af6:	d44a                	sw	s2,40(sp)
    1af8:	00b3d913          	srli	s2,t2,0xb
    1afc:	d64a                	sw	s2,44(sp)
    1afe:	01549913          	slli	s2,s1,0x15
    1b02:	d84a                	sw	s2,48(sp)
    1b04:	012fd913          	srli	s2,t6,0x12
    1b08:	da4a                	sw	s2,52(sp)
    1b0a:	014e1b93          	slli	s7,t3,0x14
    1b0e:	01355913          	srli	s2,a0,0x13
    1b12:	00ce5e13          	srli	t3,t3,0xc
    1b16:	dc72                	sw	t3,56(sp)
    1b18:	c6ca                	sw	s2,76(sp)
    1b1a:	00389e13          	slli	t3,a7,0x3
    1b1e:	01d69913          	slli	s2,a3,0x1d
    1b22:	c0f2                	sw	t3,64(sp)
    1b24:	c8ca                	sw	s2,80(sp)
    1b26:	00d59e13          	slli	t3,a1,0xd
    1b2a:	01f7d913          	srli	s2,a5,0x1f
    1b2e:	c4f2                	sw	t3,72(sp)
    1b30:	d4ca                	sw	s2,104(sp)
    1b32:	00365e13          	srli	t3,a2,0x3
    1b36:	00171913          	slli	s2,a4,0x1
    1b3a:	caf2                	sw	t3,84(sp)
    1b3c:	d6ca                	sw	s2,108(sp)
    1b3e:	4e72                	lw	t3,28(sp)
    1b40:	4962                	lw	s2,24(sp)
    1b42:	0159dc93          	srli	s9,s3,0x15
    1b46:	d266                	sw	s9,36(sp)
    1b48:	0ab2                	slli	s5,s5,0xc
    1b4a:	014a5a13          	srli	s4,s4,0x14
    1b4e:	01c96933          	or	s2,s2,t3
    1b52:	014aea33          	or	s4,s5,s4
    1b56:	5e02                	lw	t3,32(sp)
    1b58:	5a92                	lw	s5,36(sp)
    1b5a:	cb4a                	sw	s2,148(sp)
    1b5c:	cd52                	sw	s4,152(sp)
    1b5e:	015e6ab3          	or	s5,t3,s5
    1b62:	cc56                	sw	s5,24(sp)
    1b64:	5e32                	lw	t3,44(sp)
    1b66:	5ac2                	lw	s5,48(sp)
    1b68:	5922                	lw	s2,40(sp)
    1b6a:	00e29d93          	slli	s11,t0,0xe
    1b6e:	015e6a33          	or	s4,t3,s5
    1b72:	5e52                	lw	t3,52(sp)
    1b74:	0122d293          	srli	t0,t0,0x12
    1b78:	0fba                	slli	t6,t6,0xe
    1b7a:	004edd13          	srli	s10,t4,0x4
    1b7e:	01cf1c93          	slli	s9,t5,0x1c
    1b82:	01f2efb3          	or	t6,t0,t6
    1b86:	80ad                	srli	s1,s1,0xb
    1b88:	0ef2                	slli	t4,t4,0x1c
    1b8a:	09ae                	slli	s3,s3,0xb
    1b8c:	03d6                	slli	t2,t2,0x15
    1b8e:	004f5f13          	srli	t5,t5,0x4
    1b92:	00c35c13          	srli	s8,t1,0xc
    1b96:	0129e9b3          	or	s3,s3,s2
    1b9a:	0074e3b3          	or	t2,s1,t2
    1b9e:	01df6f33          	or	t5,t5,t4
    1ba2:	01be64b3          	or	s1,t3,s11
    1ba6:	d47e                	sw	t6,40(sp)
    1ba8:	019d6fb3          	or	t6,s10,s9
    1bac:	017c6eb3          	or	t4,s8,s7
    1bb0:	01d85b13          	srli	s6,a6,0x1d
    1bb4:	01d8d893          	srli	a7,a7,0x1d
    1bb8:	080e                	slli	a6,a6,0x3
    1bba:	ce4e                	sw	s3,28(sp)
    1bbc:	d252                	sw	s4,36(sp)
    1bbe:	d01e                	sw	t2,32(sp)
    1bc0:	d626                	sw	s1,44(sp)
    1bc2:	da7e                	sw	t6,52(sp)
    1bc4:	d87a                	sw	t5,48(sp)
    1bc6:	de76                	sw	t4,60(sp)
    1bc8:	0108e2b3          	or	t0,a7,a6
    1bcc:	4e26                	lw	t3,72(sp)
    1bce:	4836                	lw	a6,76(sp)
    1bd0:	4ea2                	lw	t4,8(sp)
    1bd2:	4a86                	lw	s5,64(sp)
    1bd4:	49ce                	lw	s3,208(sp)
    1bd6:	010e6f33          	or	t5,t3,a6
    1bda:	4846                	lw	a6,80(sp)
    1bdc:	4e56                	lw	t3,84(sp)
    1bde:	54e2                	lw	s1,56(sp)
    1be0:	4bb2                	lw	s7,12(sp)
    1be2:	015b6ab3          	or	s5,s6,s5
    1be6:	013ecb33          	xor	s6,t4,s3
    1bea:	49de                	lw	s3,212(sp)
    1bec:	81cd                	srli	a1,a1,0x13
    1bee:	0536                	slli	a0,a0,0xd
    1bf0:	5936                	lw	s2,108(sp)
    1bf2:	8d4d                	or	a0,a0,a1
    1bf4:	0352                	slli	t1,t1,0x14
    1bf6:	01c865b3          	or	a1,a6,t3
    1bfa:	828d                	srli	a3,a3,0x3
    1bfc:	5826                	lw	a6,104(sp)
    1bfe:	0676                	slli	a2,a2,0x1d
    1c00:	0064e3b3          	or	t2,s1,t1
    1c04:	8e55                	or	a2,a2,a3
    1c06:	013bc333          	xor	t1,s7,s3
    1c0a:	56e6                	lw	a3,120(sp)
    1c0c:	598e                	lw	s3,224(sp)
    1c0e:	cab2                	sw	a2,84(sp)
    1c10:	01286633          	or	a2,a6,s2
    1c14:	0136ccb3          	xor	s9,a3,s3
    1c18:	48c2                	lw	a7,16(sp)
    1c1a:	4c2e                	lw	s8,200(sp)
    1c1c:	599e                	lw	s3,228(sp)
    1c1e:	d532                	sw	a2,168(sp)
    1c20:	5676                	lw	a2,124(sp)
    1c22:	837d                	srli	a4,a4,0x1f
    1c24:	0786                	slli	a5,a5,0x1
    1c26:	00f76933          	or	s2,a4,a5
    1c2a:	4852                	lw	a6,20(sp)
    1c2c:	0188c7b3          	xor	a5,a7,s8
    1c30:	c6aa                	sw	a0,76(sp)
    1c32:	01364c33          	xor	s8,a2,s3
    1c36:	453e                	lw	a0,204(sp)
    1c38:	49e6                	lw	s3,88(sp)
    1c3a:	c8ae                	sw	a1,80(sp)
    1c3c:	458a                	lw	a1,128(sp)
    1c3e:	00a84733          	xor	a4,a6,a0
    1c42:	dc1e                	sw	t2,56(sp)
    1c44:	0135c833          	xor	a6,a1,s3
    1c48:	c2d6                	sw	s5,68(sp)
    1c4a:	c096                	sw	t0,64(sp)
    1c4c:	c4fa                	sw	t5,72(sp)
    1c4e:	d34a                	sw	s2,164(sp)
    1c50:	10612423          	sw	t1,264(sp)
    1c54:	451a                	lw	a0,132(sp)
    1c56:	49f6                	lw	s3,92(sp)
    1c58:	4d2a                	lw	s10,136(sp)
    1c5a:	5fda                	lw	t6,180(sp)
    1c5c:	013548b3          	xor	a7,a0,s3
    1c60:	5986                	lw	s3,96(sp)
    1c62:	4dba                	lw	s11,140(sp)
    1c64:	006f9a13          	slli	s4,t6,0x6
    1c68:	013d4d33          	xor	s10,s10,s3
    1c6c:	5996                	lw	s3,100(sp)
    1c6e:	01afde13          	srli	t3,t6,0x1a
    1c72:	4f8e                	lw	t6,192(sp)
    1c74:	013dcdb3          	xor	s11,s11,s3
    1c78:	598a                	lw	s3,160(sp)
    1c7a:	429e                	lw	t0,196(sp)
    1c7c:	5f3a                	lw	t5,172(sp)
    1c7e:	00699313          	slli	t1,s3,0x6
    1c82:	01a9da93          	srli	s5,s3,0x1a
    1c86:	007fd993          	srli	s3,t6,0x7
    1c8a:	0fe6                	slli	t6,t6,0x19
    1c8c:	d4fe                	sw	t6,104(sp)
    1c8e:	01929913          	slli	s2,t0,0x19
    1c92:	5fee                	lw	t6,248(sp)
    1c94:	0072d393          	srli	t2,t0,0x7
    1c98:	52fe                	lw	t0,252(sp)
    1c9a:	01eecf33          	xor	t5,t4,t5
    1c9e:	8ede                	mv	t4,s7
    1ca0:	5bca                	lw	s7,176(sp)
    1ca2:	d09e                	sw	t2,96(sp)
    1ca4:	018fd493          	srli	s1,t6,0x18
    1ca8:	00829393          	slli	t2,t0,0x8
    1cac:	0182d513          	srli	a0,t0,0x18
    1cb0:	008f9593          	slli	a1,t6,0x8
    1cb4:	0074e4b3          	or	s1,s1,t2
    1cb8:	017eceb3          	xor	t4,t4,s7
    1cbc:	014aeab3          	or	s5,s5,s4
    1cc0:	5bea                	lw	s7,184(sp)
    1cc2:	006e6a33          	or	s4,t3,t1
    1cc6:	0129e9b3          	or	s3,s3,s2
    1cca:	5e26                	lw	t3,104(sp)
    1ccc:	5906                	lw	s2,96(sp)
    1cce:	d6a6                	sw	s1,108(sp)
    1cd0:	00b564b3          	or	s1,a0,a1
    1cd4:	458a                	lw	a1,128(sp)
    1cd6:	10012683          	lw	a3,256(sp)
    1cda:	10412603          	lw	a2,260(sp)
    1cde:	01c96933          	or	s2,s2,t3
    1ce2:	451a                	lw	a0,132(sp)
    1ce4:	0175ce33          	xor	t3,a1,s7
    1ce8:	5bfa                	lw	s7,188(sp)
    1cea:	00e6d293          	srli	t0,a3,0xe
    1cee:	01261f93          	slli	t6,a2,0x12
    1cf2:	06ca                	slli	a3,a3,0x12
    1cf4:	8239                	srli	a2,a2,0xe
    1cf6:	8e55                	or	a2,a2,a3
    1cf8:	01754533          	xor	a0,a0,s7
    1cfc:	ced6                	sw	s5,92(sp)
    1cfe:	ccd2                	sw	s4,88(sp)
    1d00:	d2ce                	sw	s3,100(sp)
    1d02:	d0ca                	sw	s2,96(sp)
    1d04:	d4a6                	sw	s1,104(sp)
    1d06:	d732                	sw	a2,172(sp)
    1d08:	13c12623          	sw	t3,300(sp)
    1d0c:	12a12823          	sw	a0,304(sp)
    1d10:	45aa                	lw	a1,136(sp)
    1d12:	4bee                	lw	s7,216(sp)
    1d14:	46a2                	lw	a3,8(sp)
    1d16:	44e2                	lw	s1,24(sp)
    1d18:	0175c533          	xor	a0,a1,s7
    1d1c:	45ba                	lw	a1,140(sp)
    1d1e:	4bfe                	lw	s7,220(sp)
    1d20:	01f2efb3          	or	t6,t0,t6
    1d24:	5282                	lw	t0,32(sp)
    1d26:	0175c3b3          	xor	t2,a1,s7
    1d2a:	45c2                	lw	a1,16(sp)
    1d2c:	5bae                	lw	s7,232(sp)
    1d2e:	5e12                	lw	t3,36(sp)
    1d30:	4372                	lw	t1,28(sp)
    1d32:	0175cab3          	xor	s5,a1,s7
    1d36:	45d2                	lw	a1,20(sp)
    1d38:	5bbe                	lw	s7,236(sp)
    1d3a:	12712c23          	sw	t2,312(sp)
    1d3e:	fffe4393          	not	t2,t3
    1d42:	0175ca33          	xor	s4,a1,s7
    1d46:	5bce                	lw	s7,240(sp)
    1d48:	12a12a23          	sw	a0,308(sp)
    1d4c:	d11e                	sw	t2,160(sp)
    1d4e:	0176c9b3          	xor	s3,a3,s7
    1d52:	46b2                	lw	a3,12(sp)
    1d54:	5bde                	lw	s7,244(sp)
    1d56:	0176c933          	xor	s2,a3,s7
    1d5a:	56e6                	lw	a3,120(sp)
    1d5c:	5bc6                	lw	s7,112(sp)
    1d5e:	0176c5b3          	xor	a1,a3,s7
    1d62:	56f6                	lw	a3,124(sp)
    1d64:	5bd6                	lw	s7,116(sp)
    1d66:	c32e                	sw	a1,132(sp)
    1d68:	45ea                	lw	a1,152(sp)
    1d6a:	0176c633          	xor	a2,a3,s7
    1d6e:	fff4cb93          	not	s7,s1
    1d72:	c55e                	sw	s7,136(sp)
    1d74:	fff2cb93          	not	s7,t0
    1d78:	52a2                	lw	t0,40(sp)
    1d7a:	54b2                	lw	s1,44(sp)
    1d7c:	46da                	lw	a3,148(sp)
    1d7e:	c75e                	sw	s7,140(sp)
    1d80:	fff2cb93          	not	s7,t0
    1d84:	fff4c393          	not	t2,s1
    1d88:	12c12e23          	sw	a2,316(sp)
    1d8c:	d95e                	sw	s7,176(sp)
    1d8e:	db1e                	sw	t2,180(sp)
    1d90:	fff6c513          	not	a0,a3
    1d94:	5e62                	lw	t3,56(sp)
    1d96:	fff34693          	not	a3,t1
    1d9a:	5372                	lw	t1,60(sp)
    1d9c:	fffe4493          	not	s1,t3
    1da0:	4e26                	lw	t3,72(sp)
    1da2:	fff34293          	not	t0,t1
    1da6:	4316                	lw	t1,68(sp)
    1da8:	fffe4b93          	not	s7,t3
    1dac:	4e46                	lw	t3,80(sp)
    1dae:	fff34393          	not	t2,t1
    1db2:	4336                	lw	t1,76(sp)
    1db4:	df1e                	sw	t2,188(sp)
    1db6:	c1de                	sw	s7,192(sp)
    1db8:	fff34393          	not	t2,t1
    1dbc:	fffe4313          	not	t1,t3
    1dc0:	c59a                	sw	t1,200(sp)
    1dc2:	4356                	lw	t1,84(sp)
    1dc4:	5e42                	lw	t3,48(sp)
    1dc6:	c39e                	sw	t2,196(sp)
    1dc8:	fff34b93          	not	s7,t1
    1dcc:	5352                	lw	t1,52(sp)
    1dce:	fffe4393          	not	t2,t3
    1dd2:	c7de                	sw	s7,204(sp)
    1dd4:	fff34e13          	not	t3,t1
    1dd8:	01b71313          	slli	t1,a4,0x1b
    1ddc:	c41a                	sw	t1,8(sp)
    1dde:	10812303          	lw	t1,264(sp)
    1de2:	cbf2                	sw	t3,212(sp)
    1de4:	5e1a                	lw	t3,164(sp)
    1de6:	00431613          	slli	a2,t1,0x4
    1dea:	c632                	sw	a2,12(sp)
    1dec:	01cb5613          	srli	a2,s6,0x1c
    1df0:	fffe4b93          	not	s7,t3
    1df4:	c832                	sw	a2,16(sp)
    1df6:	5e2a                	lw	t3,168(sp)
    1df8:	016cd613          	srli	a2,s9,0x16
    1dfc:	ca32                	sw	a2,20(sp)
    1dfe:	00ac1613          	slli	a2,s8,0xa
    1e02:	d8b2                	sw	a2,112(sp)
    1e04:	4622                	lw	a2,8(sp)
    1e06:	c99e                	sw	t2,208(sp)
    1e08:	fffe4393          	not	t2,t3
    1e0c:	12712423          	sw	t2,296(sp)
    1e10:	8315                	srli	a4,a4,0x5
    1e12:	0057d393          	srli	t2,a5,0x5
    1e16:	07ee                	slli	a5,a5,0x1b
    1e18:	00c3e3b3          	or	t2,t2,a2
    1e1c:	8f5d                	or	a4,a4,a5
    1e1e:	016c5c13          	srli	s8,s8,0x16
    1e22:	0caa                	slli	s9,s9,0xa
    1e24:	dd16                	sw	t0,184(sp)
    1e26:	cdde                	sw	s7,216(sp)
    1e28:	4286                	lw	t0,64(sp)
    1e2a:	dae2                	sw	s8,116(sp)
    1e2c:	dce6                	sw	s9,120(sp)
    1e2e:	c41e                	sw	t2,8(sp)
    1e30:	83ba                	mv	t2,a4
    1e32:	4732                	lw	a4,12(sp)
    1e34:	4642                	lw	a2,16(sp)
    1e36:	57c6                	lw	a5,112(sp)
    1e38:	01185e13          	srli	t3,a6,0x11
    1e3c:	8f51                	or	a4,a4,a2
    1e3e:	4652                	lw	a2,20(sp)
    1e40:	00f81c93          	slli	s9,a6,0xf
    1e44:	01c35b93          	srli	s7,t1,0x1c
    1e48:	008d5813          	srli	a6,s10,0x8
    1e4c:	00f89313          	slli	t1,a7,0xf
    1e50:	8fd1                	or	a5,a5,a2
    1e52:	0118dc13          	srli	s8,a7,0x11
    1e56:	5656                	lw	a2,116(sp)
    1e58:	018d9893          	slli	a7,s11,0x18
    1e5c:	c63a                	sw	a4,12(sp)
    1e5e:	008ddd93          	srli	s11,s11,0x8
    1e62:	5766                	lw	a4,120(sp)
    1e64:	0d62                	slli	s10,s10,0x18
    1e66:	01bd6d33          	or	s10,s10,s11
    1e6a:	4dca                	lw	s11,144(sp)
    1e6c:	8f51                	or	a4,a4,a2
    1e6e:	ca3a                	sw	a4,20(sp)
    1e70:	01edc633          	xor	a2,s11,t5
    1e74:	4762                	lw	a4,24(sp)
    1e76:	4dfa                	lw	s11,156(sp)
    1e78:	0108e8b3          	or	a7,a7,a6
    1e7c:	dec6                	sw	a7,124(sp)
    1e7e:	c16a                	sw	s10,128(sp)
    1e80:	00e578b3          	and	a7,a0,a4
    1e84:	01ddcd33          	xor	s10,s11,t4
    1e88:	5502                	lw	a0,32(sp)
    1e8a:	4daa                	lw	s11,136(sp)
    1e8c:	0b12                	slli	s6,s6,0x4
    1e8e:	d1ea                	sw	s10,224(sp)
    1e90:	d3c6                	sw	a7,228(sp)
    1e92:	00adfd33          	and	s10,s11,a0
    1e96:	58a2                	lw	a7,40(sp)
    1e98:	4dba                	lw	s11,140(sp)
    1e9a:	017b6bb3          	or	s7,s6,s7
    1e9e:	c85e                	sw	s7,16(sp)
    1ea0:	006e6bb3          	or	s7,t3,t1
    1ea4:	4372                	lw	t1,28(sp)
    1ea6:	5e12                	lw	t3,36(sp)
    1ea8:	5832                	lw	a6,44(sp)
    1eaa:	d8be                	sw	a5,112(sp)
    1eac:	011df7b3          	and	a5,s11,a7
    1eb0:	5d8a                	lw	s11,160(sp)
    1eb2:	fff5c593          	not	a1,a1
    1eb6:	019c6c33          	or	s8,s8,s9
    1eba:	01c6f6b3          	and	a3,a3,t3
    1ebe:	0065fcb3          	and	s9,a1,t1
    1ec2:	dcde                	sw	s7,120(sp)
    1ec4:	dae2                	sw	s8,116(sp)
    1ec6:	cfb2                	sw	a2,220(sp)
    1ec8:	d5e6                	sw	s9,232(sp)
    1eca:	d7ea                	sw	s10,236(sp)
    1ecc:	010dfcb3          	and	s9,s11,a6
    1ed0:	d9b6                	sw	a3,240(sp)
    1ed2:	dbbe                	sw	a5,244(sp)
    1ed4:	dde6                	sw	s9,248(sp)
    1ed6:	5dca                	lw	s11,176(sp)
    1ed8:	4b86                	lw	s7,64(sp)
    1eda:	4cb6                	lw	s9,76(sp)
    1edc:	01edf5b3          	and	a1,s11,t5
    1ee0:	5dda                	lw	s11,180(sp)
    1ee2:	0174f4b3          	and	s1,s1,s7
    1ee6:	4b96                	lw	s7,68(sp)
    1ee8:	01ddfc33          	and	s8,s11,t4
    1eec:	5dea                	lw	s11,184(sp)
    1eee:	ffff4e13          	not	t3,t5
    1ef2:	4d46                	lw	s10,80(sp)
    1ef4:	017dff33          	and	t5,s11,s7
    1ef8:	5dfa                	lw	s11,188(sp)
    1efa:	fffec313          	not	t1,t4
    1efe:	481e                	lw	a6,196(sp)
    1f00:	019dfeb3          	and	t4,s11,s9
    1f04:	4d8e                	lw	s11,192(sp)
    1f06:	11e12223          	sw	t5,260(sp)
    1f0a:	5f42                	lw	t5,48(sp)
    1f0c:	01adfdb3          	and	s11,s11,s10
    1f10:	11b12623          	sw	s11,268(sp)
    1f14:	4dd6                	lw	s11,84(sp)
    1f16:	dfae                	sw	a1,252(sp)
    1f18:	11d12423          	sw	t4,264(sp)
    1f1c:	01b876b3          	and	a3,a6,s11
    1f20:	482e                	lw	a6,200(sp)
    1f22:	5ed2                	lw	t4,52(sp)
    1f24:	5be2                	lw	s7,56(sp)
    1f26:	01e875b3          	and	a1,a6,t5
    1f2a:	483e                	lw	a6,204(sp)
    1f2c:	4b66                	lw	s6,88(sp)
    1f2e:	11812023          	sw	s8,256(sp)
    1f32:	01d87533          	and	a0,a6,t4
    1f36:	484e                	lw	a6,208(sp)
    1f38:	4c26                	lw	s8,72(sp)
    1f3a:	4ef6                	lw	t4,92(sp)
    1f3c:	01787833          	and	a6,a6,s7
    1f40:	11012e23          	sw	a6,284(sp)
    1f44:	5bf2                	lw	s7,60(sp)
    1f46:	485e                	lw	a6,212(sp)
    1f48:	10d12823          	sw	a3,272(sp)
    1f4c:	10b12a23          	sw	a1,276(sp)
    1f50:	01787833          	and	a6,a6,s7
    1f54:	10a12c23          	sw	a0,280(sp)
    1f58:	13012023          	sw	a6,288(sp)
    1f5c:	5706                	lw	a4,96(sp)
    1f5e:	56a6                	lw	a3,104(sp)
    1f60:	4dee                	lw	s11,216(sp)
    1f62:	12c12c83          	lw	s9,300(sp)
    1f66:	fff6cf13          	not	t5,a3
    1f6a:	fff2c293          	not	t0,t0
    1f6e:	0182f2b3          	and	t0,t0,s8
    1f72:	fffb4893          	not	a7,s6
    1f76:	13012c03          	lw	s8,304(sp)
    1f7a:	13e12223          	sw	t5,292(sp)
    1f7e:	016dff33          	and	t5,s11,s6
    1f82:	12812d83          	lw	s11,296(sp)
    1f86:	01ec9b13          	slli	s6,s9,0x1e
    1f8a:	c55a                	sw	s6,136(sp)
    1f8c:	13412b03          	lw	s6,308(sp)
    1f90:	13812b83          	lw	s7,312(sp)
    1f94:	563a                	lw	a2,172(sp)
    1f96:	fffec813          	not	a6,t4
    1f9a:	fff74513          	not	a0,a4
    1f9e:	01ddfeb3          	and	t4,s11,t4
    1fa2:	5736                	lw	a4,108(sp)
    1fa4:	01ec1d93          	slli	s11,s8,0x1e
    1fa8:	002c5c13          	srli	s8,s8,0x2
    1fac:	c762                	sw	s8,140(sp)
    1fae:	009b5c13          	srli	s8,s6,0x9
    1fb2:	0b5e                	slli	s6,s6,0x17
    1fb4:	c95a                	sw	s6,144(sp)
    1fb6:	009bdb13          	srli	s6,s7,0x9
    1fba:	cf5a                	sw	s6,156(sp)
    1fbc:	fff74693          	not	a3,a4
    1fc0:	019adb13          	srli	s6,s5,0x19
    1fc4:	fff64713          	not	a4,a2
    1fc8:	0a9e                	slli	s5,s5,0x7
    1fca:	13c12603          	lw	a2,316(sp)
    1fce:	d156                	sw	s5,160(sp)
    1fd0:	019a5a93          	srli	s5,s4,0x19
    1fd4:	d956                	sw	s5,176(sp)
    1fd6:	00991a93          	slli	s5,s2,0x9
    1fda:	01795913          	srli	s2,s2,0x17
    1fde:	c9ca                	sw	s2,208(sp)
    1fe0:	00261913          	slli	s2,a2,0x2
    1fe4:	8279                	srli	a2,a2,0x1e
    1fe6:	cbb2                	sw	a2,212(sp)
    1fe8:	461a                	lw	a2,132(sp)
    1fea:	002cdd13          	srli	s10,s9,0x2
    1fee:	01adedb3          	or	s11,s11,s10
    1ff2:	060a                	slli	a2,a2,0x2
    1ff4:	cdb2                	sw	a2,216(sp)
    1ff6:	dd6e                	sw	s11,184(sp)
    1ff8:	463a                	lw	a2,140(sp)
    1ffa:	4daa                	lw	s11,136(sp)
    1ffc:	017b9c93          	slli	s9,s7,0x17
    2000:	018cecb3          	or	s9,s9,s8
    2004:	00cded33          	or	s10,s11,a2
    2008:	4c7a                	lw	s8,156(sp)
    200a:	007a1b93          	slli	s7,s4,0x7
    200e:	4dca                	lw	s11,144(sp)
    2010:	0179da13          	srli	s4,s3,0x17
    2014:	09a6                	slli	s3,s3,0x9
    2016:	db4e                	sw	s3,180(sp)
    2018:	499a                	lw	s3,132(sp)
    201a:	018dedb3          	or	s11,s11,s8
    201e:	df6a                	sw	s10,188(sp)
    2020:	c1e6                	sw	s9,192(sp)
    2022:	5796                	lw	a5,100(sp)
    2024:	01e9d993          	srli	s3,s3,0x1e
    2028:	c3ee                	sw	s11,196(sp)
    202a:	016bedb3          	or	s11,s7,s6
    202e:	5c4a                	lw	s8,176(sp)
    2030:	5b0a                	lw	s6,160(sp)
    2032:	0129e9b3          	or	s3,s3,s2
    2036:	014aeab3          	or	s5,s5,s4
    203a:	467e                	lw	a2,220(sp)
    203c:	c94e                	sw	s3,144(sp)
    203e:	599e                	lw	s3,228(sp)
    2040:	018b6b33          	or	s6,s6,s8
    2044:	c356                	sw	s5,132(sp)
    2046:	5c5a                	lw	s8,180(sp)
    2048:	4ace                	lw	s5,208(sp)
    204a:	01364633          	xor	a2,a2,s3
    204e:	495e                	lw	s2,212(sp)
    2050:	59ae                	lw	s3,232(sp)
    2052:	015c6c33          	or	s8,s8,s5
    2056:	cf32                	sw	a2,156(sp)
    2058:	4aee                	lw	s5,216(sp)
    205a:	560e                	lw	a2,224(sp)
    205c:	4a62                	lw	s4,24(sp)
    205e:	01596933          	or	s2,s2,s5
    2062:	01364633          	xor	a2,a2,s3
    2066:	c74a                	sw	s2,140(sp)
    2068:	d132                	sw	a2,160(sp)
    206a:	495a                	lw	s2,148(sp)
    206c:	563e                	lw	a2,236(sp)
    206e:	49ea                	lw	s3,152(sp)
    2070:	5cee                	lw	s9,248(sp)
    2072:	01264633          	xor	a2,a2,s2
    2076:	cb32                	sw	a2,148(sp)
    2078:	564e                	lw	a2,240(sp)
    207a:	5d7e                	lw	s10,252(sp)
    207c:	5a82                	lw	s5,32(sp)
    207e:	01364633          	xor	a2,a2,s3
    2082:	cd32                	sw	a2,152(sp)
    2084:	565e                	lw	a2,244(sp)
    2086:	015d4ab3          	xor	s5,s10,s5
    208a:	c5ee                	sw	s11,200(sp)
    208c:	01464633          	xor	a2,a2,s4
    2090:	4a72                	lw	s4,28(sp)
    2092:	c7da                	sw	s6,204(sp)
    2094:	c562                	sw	s8,136(sp)
    2096:	014cccb3          	xor	s9,s9,s4
    209a:	cc32                	sw	a2,24(sp)
    209c:	ce66                	sw	s9,28(sp)
    209e:	d056                	sw	s5,32(sp)
    20a0:	10012a83          	lw	s5,256(sp)
    20a4:	5a12                	lw	s4,36(sp)
    20a6:	5bf2                	lw	s7,60(sp)
    20a8:	4cb6                	lw	s9,76(sp)
    20aa:	014aca33          	xor	s4,s5,s4
    20ae:	5ac2                	lw	s5,48(sp)
    20b0:	d252                	sw	s4,36(sp)
    20b2:	5a52                	lw	s4,52(sp)
    20b4:	0154cab3          	xor	s5,s1,s5
    20b8:	10412483          	lw	s1,260(sp)
    20bc:	4d46                	lw	s10,80(sp)
    20be:	4dd6                	lw	s11,84(sp)
    20c0:	0144ca33          	xor	s4,s1,s4
    20c4:	da52                	sw	s4,52(sp)
    20c6:	5a62                	lw	s4,56(sp)
    20c8:	4c26                	lw	s8,72(sp)
    20ca:	563a                	lw	a2,172(sp)
    20cc:	0142c2b3          	xor	t0,t0,s4
    20d0:	dc16                	sw	t0,56(sp)
    20d2:	10812283          	lw	t0,264(sp)
    20d6:	4a06                	lw	s4,64(sp)
    20d8:	00cf4f33          	xor	t5,t5,a2
    20dc:	0172c2b3          	xor	t0,t0,s7
    20e0:	de16                	sw	t0,60(sp)
    20e2:	10c12283          	lw	t0,268(sp)
    20e6:	4b96                	lw	s7,68(sp)
    20e8:	d856                	sw	s5,48(sp)
    20ea:	0142ca33          	xor	s4,t0,s4
    20ee:	c0d2                	sw	s4,64(sp)
    20f0:	11812a03          	lw	s4,280(sp)
    20f4:	11012283          	lw	t0,272(sp)
    20f8:	fff7c593          	not	a1,a5
    20fc:	019a4cb3          	xor	s9,s4,s9
    2100:	11c12a03          	lw	s4,284(sp)
    2104:	0172cbb3          	xor	s7,t0,s7
    2108:	11412283          	lw	t0,276(sp)
    210c:	01aa4d33          	xor	s10,s4,s10
    2110:	12012a03          	lw	s4,288(sp)
    2114:	0182cc33          	xor	s8,t0,s8
    2118:	c2de                	sw	s7,68(sp)
    211a:	01ba4a33          	xor	s4,s4,s11
    211e:	c4e2                	sw	s8,72(sp)
    2120:	c6e6                	sw	s9,76(sp)
    2122:	c8ea                	sw	s10,80(sp)
    2124:	cad2                	sw	s4,84(sp)
    2126:	d77a                	sw	t5,172(sp)
    2128:	54b6                	lw	s1,108(sp)
    212a:	01337333          	and	t1,t1,s3
    212e:	5996                	lw	s3,100(sp)
    2130:	01fecf33          	xor	t5,t4,t6
    2134:	8de5                	and	a1,a1,s1
    2136:	5eaa                	lw	t4,168(sp)
    2138:	54b2                	lw	s1,44(sp)
    213a:	5a26                	lw	s4,104(sp)
    213c:	ffffc793          	not	a5,t6
    2140:	01387833          	and	a6,a6,s3
    2144:	01d7f7b3          	and	a5,a5,t4
    2148:	00934333          	xor	t1,t1,s1
    214c:	01d84833          	xor	a6,a6,t4
    2150:	44e6                	lw	s1,88(sp)
    2152:	4ef6                	lw	t4,92(sp)
    2154:	12412983          	lw	s3,292(sp)
    2158:	01457533          	and	a0,a0,s4
    215c:	8d25                	xor	a0,a0,s1
    215e:	01d5c4b3          	xor	s1,a1,t4
    2162:	5586                	lw	a1,96(sp)
    2164:	00c9f633          	and	a2,s3,a2
    2168:	012e7e33          	and	t3,t3,s2
    216c:	8db1                	xor	a1,a1,a2
    216e:	5616                	lw	a2,100(sp)
    2170:	5906                	lw	s2,96(sp)
    2172:	52a2                	lw	t0,40(sp)
    2174:	01f6f6b3          	and	a3,a3,t6
    2178:	d97a                	sw	t5,176(sp)
    217a:	5f1a                	lw	t5,164(sp)
    217c:	00c6ceb3          	xor	t4,a3,a2
    2180:	56a6                	lw	a3,104(sp)
    2182:	4ab2                	lw	s5,12(sp)
    2184:	5fe6                	lw	t6,120(sp)
    2186:	0128f8b3          	and	a7,a7,s2
    218a:	01e77733          	and	a4,a4,t5
    218e:	005e4e33          	xor	t3,t3,t0
    2192:	01e8c8b3          	xor	a7,a7,t5
    2196:	8eb9                	xor	a3,a3,a4
    2198:	d472                	sw	t3,40(sp)
    219a:	d61a                	sw	t1,44(sp)
    219c:	d346                	sw	a7,164(sp)
    219e:	d542                	sw	a6,168(sp)
    21a0:	ccaa                	sw	a0,88(sp)
    21a2:	cea6                	sw	s1,92(sp)
    21a4:	d0ae                	sw	a1,96(sp)
    21a6:	d2f6                	sw	t4,100(sp)
    21a8:	4bc2                	lw	s7,16(sp)
    21aa:	5a56                	lw	s4,116(sp)
    21ac:	490a                	lw	s2,128(sp)
    21ae:	4cd2                	lw	s9,20(sp)
    21b0:	5c46                	lw	s8,112(sp)
    21b2:	fffacd93          	not	s11,s5
    21b6:	ffffcb13          	not	s6,t6
    21ba:	5af6                	lw	s5,124(sp)
    21bc:	4fa2                	lw	t6,8(sp)
    21be:	d4b6                	sw	a3,104(sp)
    21c0:	5736                	lw	a4,108(sp)
    21c2:	46c2                	lw	a3,16(sp)
    21c4:	4e3e                	lw	t3,204(sp)
    21c6:	00e7c5b3          	xor	a1,a5,a4
    21ca:	d6ae                	sw	a1,108(sp)
    21cc:	55d6                	lw	a1,116(sp)
    21ce:	fffbcd13          	not	s10,s7
    21d2:	fffa4b93          	not	s7,s4
    21d6:	fff94a13          	not	s4,s2
    21da:	ffffc913          	not	s2,t6
    21de:	00d977b3          	and	a5,s2,a3
    21e2:	fffccc93          	not	s9,s9
    21e6:	4652                	lw	a2,20(sp)
    21e8:	58f6                	lw	a7,124(sp)
    21ea:	450a                	lw	a0,128(sp)
    21ec:	481e                	lw	a6,196(sp)
    21ee:	432e                	lw	t1,200(sp)
    21f0:	4e9a                	lw	t4,132(sp)
    21f2:	4f2a                	lw	t5,136(sp)
    21f4:	46ba                	lw	a3,140(sp)
    21f6:	00bcfcb3          	and	s9,s9,a1
    21fa:	01fa7a33          	and	s4,s4,t6
    21fe:	55e6                	lw	a1,120(sp)
    2200:	c9be                	sw	a5,208(sp)
    2202:	fffe4f93          	not	t6,t3
    2206:	47ca                	lw	a5,144(sp)
    2208:	5e7a                	lw	t3,188(sp)
    220a:	fffc4c13          	not	s8,s8
    220e:	fffaca93          	not	s5,s5
    2212:	4732                	lw	a4,12(sp)
    2214:	00bc7c33          	and	s8,s8,a1
    2218:	011bfbb3          	and	s7,s7,a7
    221c:	00ab7b33          	and	s6,s6,a0
    2220:	007afab3          	and	s5,s5,t2
    2224:	fff34293          	not	t0,t1
    2228:	fff3c993          	not	s3,t2
    222c:	536a                	lw	t1,184(sp)
    222e:	00cdfdb3          	and	s11,s11,a2
    2232:	db1e                	sw	t2,180(sp)
    2234:	5646                	lw	a2,112(sp)
    2236:	fff84393          	not	t2,a6
    223a:	fffec893          	not	a7,t4
    223e:	ffff4813          	not	a6,t5
    2242:	4efa                	lw	t4,156(sp)
    2244:	5f42                	lw	t5,48(sp)
    2246:	fff6c513          	not	a0,a3
    224a:	fff7c593          	not	a1,a5
    224e:	fffe4693          	not	a3,t3
    2252:	578a                	lw	a5,160(sp)
    2254:	5e52                	lw	t3,52(sp)
    2256:	00cd7d33          	and	s10,s10,a2
    225a:	00e9f9b3          	and	s3,s3,a4
    225e:	fff34613          	not	a2,t1
    2262:	5772                	lw	a4,60(sp)
    2264:	435a                	lw	t1,148(sp)
    2266:	01eecf33          	xor	t5,t4,t5
    226a:	01c7ceb3          	xor	t4,a5,t3
    226e:	5e62                	lw	t3,56(sp)
    2270:	47ea                	lw	a5,152(sp)
    2272:	448e                	lw	s1,192(sp)
    2274:	cb96                	sw	t0,212(sp)
    2276:	01c34e33          	xor	t3,t1,t3
    227a:	00e7c333          	xor	t1,a5,a4
    227e:	4762                	lw	a4,24(sp)
    2280:	4786                	lw	a5,64(sp)
    2282:	4916                	lw	s2,68(sp)
    2284:	42a6                	lw	t0,72(sp)
    2286:	8f3d                	xor	a4,a4,a5
    2288:	47f2                	lw	a5,28(sp)
    228a:	fff4c493          	not	s1,s1
    228e:	0127c7b3          	xor	a5,a5,s2
    2292:	5902                	lw	s2,32(sp)
    2294:	005942b3          	xor	t0,s2,t0
    2298:	cd96                	sw	t0,216(sp)
    229a:	5912                	lw	s2,36(sp)
    229c:	42b6                	lw	t0,76(sp)
    229e:	005942b3          	xor	t0,s2,t0
    22a2:	cf96                	sw	t0,220(sp)
    22a4:	593a                	lw	s2,172(sp)
    22a6:	42c6                	lw	t0,80(sp)
    22a8:	0122c2b3          	xor	t0,t0,s2
    22ac:	d196                	sw	t0,224(sp)
    22ae:	594a                	lw	s2,176(sp)
    22b0:	42d6                	lw	t0,84(sp)
    22b2:	0122c2b3          	xor	t0,t0,s2
    22b6:	595a                	lw	s2,180(sp)
    22b8:	d396                	sw	t0,228(sp)
    22ba:	012dcdb3          	xor	s11,s11,s2
    22be:	db6e                	sw	s11,180(sp)
    22c0:	4da2                	lw	s11,8(sp)
    22c2:	4932                	lw	s2,12(sp)
    22c4:	01bd4d33          	xor	s10,s10,s11
    22c8:	c46a                	sw	s10,8(sp)
    22ca:	012ccd33          	xor	s10,s9,s2
    22ce:	4cd2                	lw	s9,20(sp)
    22d0:	4942                	lw	s2,16(sp)
    22d2:	c66a                	sw	s10,12(sp)
    22d4:	019bccb3          	xor	s9,s7,s9
    22d8:	5bd6                	lw	s7,116(sp)
    22da:	012c4db3          	xor	s11,s8,s2
    22de:	5966                	lw	s2,120(sp)
    22e0:	5c46                	lw	s8,112(sp)
    22e2:	017acbb3          	xor	s7,s5,s7
    22e6:	5af6                	lw	s5,124(sp)
    22e8:	018b4c33          	xor	s8,s6,s8
    22ec:	012a4a33          	xor	s4,s4,s2
    22f0:	0159c9b3          	xor	s3,s3,s5
    22f4:	c86e                	sw	s11,16(sp)
    22f6:	ca66                	sw	s9,20(sp)
    22f8:	d8e2                	sw	s8,112(sp)
    22fa:	dade                	sw	s7,116(sp)
    22fc:	dcd2                	sw	s4,120(sp)
    22fe:	dece                	sw	s3,124(sp)
    2300:	490a                	lw	s2,128(sp)
    2302:	49ce                	lw	s3,208(sp)
    2304:	4a9a                	lw	s5,132(sp)
    2306:	42de                	lw	t0,212(sp)
    2308:	0129cbb3          	xor	s7,s3,s2
    230c:	49ca                	lw	s3,144(sp)
    230e:	4a3a                	lw	s4,140(sp)
    2310:	0152f2b3          	and	t0,t0,s5
    2314:	01387833          	and	a6,a6,s3
    2318:	4ae6                	lw	s5,88(sp)
    231a:	599a                	lw	s3,164(sp)
    231c:	0148f8b3          	and	a7,a7,s4
    2320:	015e4e33          	xor	t3,t3,s5
    2324:	5a2a                	lw	s4,168(sp)
    2326:	5a96                	lw	s5,100(sp)
    2328:	013f4f33          	xor	t5,t5,s3
    232c:	49f6                	lw	s3,92(sp)
    232e:	492a                	lw	s2,136(sp)
    2330:	014eceb3          	xor	t4,t4,s4
    2334:	01334333          	xor	t1,t1,s3
    2338:	5a06                	lw	s4,96(sp)
    233a:	59a6                	lw	s3,104(sp)
    233c:	0157c7b3          	xor	a5,a5,s5
    2340:	4aee                	lw	s5,216(sp)
    2342:	4b3e                	lw	s6,204(sp)
    2344:	4dae                	lw	s11,200(sp)
    2346:	5c7a                	lw	s8,188(sp)
    2348:	012fffb3          	and	t6,t6,s2
    234c:	01474733          	xor	a4,a4,s4
    2350:	013ac933          	xor	s2,s5,s3
    2354:	5a36                	lw	s4,108(sp)
    2356:	4afe                	lw	s5,220(sp)
    2358:	4c8e                	lw	s9,192(sp)
    235a:	4d1e                	lw	s10,196(sp)
    235c:	c15e                	sw	s7,128(sp)
    235e:	5bea                	lw	s7,184(sp)
    2360:	0163f3b3          	and	t2,t2,s6
    2364:	01b4f4b3          	and	s1,s1,s11
    2368:	0185f5b3          	and	a1,a1,s8
    236c:	014ac9b3          	xor	s3,s5,s4
    2370:	0183cc33          	xor	s8,t2,s8
    2374:	5a8e                	lw	s5,224(sp)
    2376:	5a22                	lw	s4,40(sp)
    2378:	83e2                	mv	t2,s8
    237a:	01757533          	and	a0,a0,s7
    237e:	0192cc33          	xor	s8,t0,s9
    2382:	01a6f6b3          	and	a3,a3,s10
    2386:	0174cbb3          	xor	s7,s1,s7
    238a:	01afcfb3          	xor	t6,t6,s10
    238e:	01b8c8b3          	xor	a7,a7,s11
    2392:	c5b6                	sw	a3,200(sp)
    2394:	dd5e                	sw	s7,184(sp)
    2396:	df62                	sw	s8,188(sp)
    2398:	c1fe                	sw	t6,192(sp)
    239a:	569e                	lw	a3,228(sp)
    239c:	014aca33          	xor	s4,s5,s4
    23a0:	5ab2                	lw	s5,44(sp)
    23a2:	c3c6                	sw	a7,196(sp)
    23a4:	449a                	lw	s1,132(sp)
    23a6:	01684833          	xor	a6,a6,s6
    23aa:	8b42                	mv	s6,a6
    23ac:	00954833          	xor	a6,a0,s1
    23b0:	452a                	lw	a0,136(sp)
    23b2:	01967633          	and	a2,a2,s9
    23b6:	84c2                	mv	s1,a6
    23b8:	8d2d                	xor	a0,a0,a1
    23ba:	45ba                	lw	a1,140(sp)
    23bc:	8d2a                	mv	s10,a0
    23be:	4842                	lw	a6,16(sp)
    23c0:	4532                	lw	a0,12(sp)
    23c2:	0156cab3          	xor	s5,a3,s5
    23c6:	00b646b3          	xor	a3,a2,a1
    23ca:	464a                	lw	a2,144(sp)
    23cc:	45ae                	lw	a1,200(sp)
    23ce:	5bd6                	lw	s7,116(sp)
    23d0:	58e6                	lw	a7,120(sp)
    23d2:	00c5cdb3          	xor	s11,a1,a2
    23d6:	00ae4e33          	xor	t3,t3,a0
    23da:	45a2                	lw	a1,8(sp)
    23dc:	557a                	lw	a0,188(sp)
    23de:	01034333          	xor	t1,t1,a6
    23e2:	480e                	lw	a6,192(sp)
    23e4:	c336                	sw	a3,132(sp)
    23e6:	5ff6                	lw	t6,124(sp)
    23e8:	460a                	lw	a2,128(sp)
    23ea:	01794933          	xor	s2,s2,s7
    23ee:	00994933          	xor	s2,s2,s1
    23f2:	56da                	lw	a3,180(sp)
    23f4:	4cd2                	lw	s9,20(sp)
    23f6:	5c46                	lw	s8,112(sp)
    23f8:	c926                	sw	s1,144(sp)
    23fa:	449a                	lw	s1,132(sp)
    23fc:	00ae4e33          	xor	t3,t3,a0
    2400:	01034333          	xor	t1,t1,a6
    2404:	00beceb3          	xor	t4,t4,a1
    2408:	0119c9b3          	xor	s3,s3,a7
    240c:	489e                	lw	a7,196(sp)
    240e:	007eceb3          	xor	t4,t4,t2
    2412:	01a9c9b3          	xor	s3,s3,s10
    2416:	01fa42b3          	xor	t0,s4,t6
    241a:	c51e                	sw	t2,136(sp)
    241c:	00cacfb3          	xor	t6,s5,a2
    2420:	c5ea                	sw	s10,200(sp)
    2422:	01fe5393          	srli	t2,t3,0x1f
    2426:	00131d13          	slli	s10,t1,0x1
    242a:	0092c2b3          	xor	t0,t0,s1
    242e:	01bfcfb3          	xor	t6,t6,s11
    2432:	01974733          	xor	a4,a4,s9
    2436:	0187c7b3          	xor	a5,a5,s8
    243a:	01a3e3b3          	or	t2,t2,s10
    243e:	00df4f33          	xor	t5,t5,a3
    2442:	001e1d13          	slli	s10,t3,0x1
    2446:	56ea                	lw	a3,184(sp)
    2448:	01f35493          	srli	s1,t1,0x1f
    244c:	01174ab3          	xor	s5,a4,a7
    2450:	0167ca33          	xor	s4,a5,s6
    2454:	01a4e4b3          	or	s1,s1,s10
    2458:	001f9593          	slli	a1,t6,0x1
    245c:	01f2dd13          	srli	s10,t0,0x1f
    2460:	001a9c13          	slli	s8,s5,0x1
    2464:	01fa5713          	srli	a4,s4,0x1f
    2468:	00bd65b3          	or	a1,s10,a1
    246c:	01ffdd13          	srli	s10,t6,0x1f
    2470:	01f3cfb3          	xor	t6,t2,t6
    2474:	53e2                	lw	t2,56(sp)
    2476:	00df4f33          	xor	t5,t5,a3
    247a:	01876733          	or	a4,a4,s8
    247e:	01e74733          	xor	a4,a4,t5
    2482:	001a1c93          	slli	s9,s4,0x1
    2486:	01fad793          	srli	a5,s5,0x1f
    248a:	0197e7b3          	or	a5,a5,s9
    248e:	00e3ccb3          	xor	s9,t2,a4
    2492:	53f2                	lw	t2,60(sp)
    2494:	01d7c7b3          	xor	a5,a5,t4
    2498:	c75a                	sw	s6,140(sp)
    249a:	00f3cc33          	xor	s8,t2,a5
    249e:	01f9db13          	srli	s6,s3,0x1f
    24a2:	5386                	lw	t2,96(sp)
    24a4:	00191893          	slli	a7,s2,0x1
    24a8:	011b68b3          	or	a7,s6,a7
    24ac:	01c8c8b3          	xor	a7,a7,t3
    24b0:	00199b93          	slli	s7,s3,0x1
    24b4:	01f95813          	srli	a6,s2,0x1f
    24b8:	01786833          	or	a6,a6,s7
    24bc:	0113cbb3          	xor	s7,t2,a7
    24c0:	5396                	lw	t2,100(sp)
    24c2:	00684833          	xor	a6,a6,t1
    24c6:	00129513          	slli	a0,t0,0x1
    24ca:	0103cb33          	xor	s6,t2,a6
    24ce:	001e9693          	slli	a3,t4,0x1
    24d2:	53d6                	lw	t2,116(sp)
    24d4:	00ad6533          	or	a0,s10,a0
    24d8:	01ff5d13          	srli	s10,t5,0x1f
    24dc:	001f1613          	slli	a2,t5,0x1
    24e0:	00dd66b3          	or	a3,s10,a3
    24e4:	01fedd13          	srli	s10,t4,0x1f
    24e8:	01554533          	xor	a0,a0,s5
    24ec:	00cd6633          	or	a2,s10,a2
    24f0:	0054c2b3          	xor	t0,s1,t0
    24f4:	0145c5b3          	xor	a1,a1,s4
    24f8:	01264633          	xor	a2,a2,s2
    24fc:	00a3ca33          	xor	s4,t2,a0
    2500:	449a                	lw	s1,132(sp)
    2502:	53e6                	lw	t2,120(sp)
    2504:	5902                	lw	s2,32(sp)
    2506:	433a                	lw	t1,140(sp)
    2508:	5e1a                	lw	t3,164(sp)
    250a:	0136c6b3          	xor	a3,a3,s3
    250e:	01034333          	xor	t1,t1,a6
    2512:	d09a                	sw	t1,96(sp)
    2514:	435a                	lw	t1,148(sp)
    2516:	00c4cd33          	xor	s10,s1,a2
    251a:	005e4eb3          	xor	t4,t3,t0
    251e:	00e34333          	xor	t1,t1,a4
    2522:	d29a                	sw	t1,100(sp)
    2524:	436a                	lw	t1,152(sp)
    2526:	5e2a                	lw	t3,168(sp)
    2528:	5492                	lw	s1,36(sp)
    252a:	00f34333          	xor	t1,t1,a5
    252e:	da9a                	sw	t1,116(sp)
    2530:	4306                	lw	t1,64(sp)
    2532:	00b4c9b3          	xor	s3,s1,a1
    2536:	01fe4f33          	xor	t5,t3,t6
    253a:	01134333          	xor	t1,t1,a7
    253e:	dc9a                	sw	t1,120(sp)
    2540:	4316                	lw	t1,68(sp)
    2542:	44c6                	lw	s1,80(sp)
    2544:	4e32                	lw	t3,12(sp)
    2546:	01034333          	xor	t1,t1,a6
    254a:	c31a                	sw	t1,132(sp)
    254c:	5326                	lw	t1,104(sp)
    254e:	00b3cab3          	xor	s5,t2,a1
    2552:	00c4c3b3          	xor	t2,s1,a2
    2556:	00a34333          	xor	t1,t1,a0
    255a:	c71a                	sw	t1,140(sp)
    255c:	5336                	lw	t1,108(sp)
    255e:	44d6                	lw	s1,84(sp)
    2560:	cafa                	sw	t5,84(sp)
    2562:	00b34333          	xor	t1,t1,a1
    2566:	cb1a                	sw	t1,148(sp)
    2568:	5376                	lw	t1,124(sp)
    256a:	00ee4f33          	xor	t5,t3,a4
    256e:	4e42                	lw	t3,16(sp)
    2570:	00c34333          	xor	t1,t1,a2
    2574:	cd1a                	sw	t1,152(sp)
    2576:	430a                	lw	t1,128(sp)
    2578:	c8f6                	sw	t4,80(sp)
    257a:	00fe4eb3          	xor	t4,t3,a5
    257e:	00d34333          	xor	t1,t1,a3
    2582:	d31a                	sw	t1,164(sp)
    2584:	536a                	lw	t1,184(sp)
    2586:	4e1e                	lw	t3,196(sp)
    2588:	00a94933          	xor	s2,s2,a0
    258c:	00534333          	xor	t1,t1,t0
    2590:	d51a                	sw	t1,168(sp)
    2592:	432a                	lw	t1,136(sp)
    2594:	011e4e33          	xor	t3,t3,a7
    2598:	8cb5                	xor	s1,s1,a3
    259a:	01f34333          	xor	t1,t1,t6
    259e:	dd1a                	sw	t1,184(sp)
    25a0:	5322                	lw	t1,40(sp)
    25a2:	00ddcdb3          	xor	s11,s11,a3
    25a6:	00c34333          	xor	t1,t1,a2
    25aa:	c39a                	sw	t1,196(sp)
    25ac:	5332                	lw	t1,44(sp)
    25ae:	00d34333          	xor	t1,t1,a3
    25b2:	cb9a                	sw	t1,212(sp)
    25b4:	5342                	lw	t1,48(sp)
    25b6:	00534333          	xor	t1,t1,t0
    25ba:	cd9a                	sw	t1,216(sp)
    25bc:	5352                	lw	t1,52(sp)
    25be:	01f34333          	xor	t1,t1,t6
    25c2:	cf9a                	sw	t1,220(sp)
    25c4:	4366                	lw	t1,88(sp)
    25c6:	00e34333          	xor	t1,t1,a4
    25ca:	d19a                	sw	t1,224(sp)
    25cc:	4376                	lw	t1,92(sp)
    25ce:	00f34333          	xor	t1,t1,a5
    25d2:	d39a                	sw	t1,228(sp)
    25d4:	4352                	lw	t1,20(sp)
    25d6:	01134333          	xor	t1,t1,a7
    25da:	d99a                	sw	t1,240(sp)
    25dc:	5346                	lw	t1,112(sp)
    25de:	01034333          	xor	t1,t1,a6
    25e2:	db9a                	sw	t1,244(sp)
    25e4:	434a                	lw	t1,144(sp)
    25e6:	00a34333          	xor	t1,t1,a0
    25ea:	10612223          	sw	t1,260(sp)
    25ee:	432e                	lw	t1,200(sp)
    25f0:	00b34333          	xor	t1,t1,a1
    25f4:	10612023          	sw	t1,256(sp)
    25f8:	4362                	lw	t1,24(sp)
    25fa:	011348b3          	xor	a7,t1,a7
    25fe:	4372                	lw	t1,28(sp)
    2600:	01034833          	xor	a6,t1,a6
    2604:	4326                	lw	t1,72(sp)
    2606:	00a34533          	xor	a0,t1,a0
    260a:	4336                	lw	t1,76(sp)
    260c:	00b345b3          	xor	a1,t1,a1
    2610:	533a                	lw	t1,172(sp)
    2612:	00c34633          	xor	a2,t1,a2
    2616:	534a                	lw	t1,176(sp)
    2618:	00d346b3          	xor	a3,t1,a3
    261c:	535a                	lw	t1,180(sp)
    261e:	00534333          	xor	t1,t1,t0
    2622:	12612a23          	sw	t1,308(sp)
    2626:	4322                	lw	t1,8(sp)
    2628:	01f34333          	xor	t1,t1,t6
    262c:	12612823          	sw	t1,304(sp)
    2630:	537a                	lw	t1,188(sp)
    2632:	00e34733          	xor	a4,t1,a4
    2636:	12e12c23          	sw	a4,312(sp)
    263a:	430e                	lw	t1,192(sp)
    263c:	00f34733          	xor	a4,t1,a5
    2640:	4792                	lw	a5,4(sp)
    2642:	0087a303          	lw	t1,8(a5)
    2646:	47dc                	lw	a5,12(a5)
    2648:	c79a                	sw	t1,204(sp)
    264a:	c9be                	sw	a5,208(sp)
    264c:	00cc1793          	slli	a5,s8,0xc
    2650:	c43e                	sw	a5,8(sp)
    2652:	014cd793          	srli	a5,s9,0x14
    2656:	c63e                	sw	a5,12(sp)
    2658:	00bb1793          	slli	a5,s6,0xb
    265c:	c83e                	sw	a5,16(sp)
    265e:	015bd793          	srli	a5,s7,0x15
    2662:	ca3e                	sw	a5,20(sp)
    2664:	00ba5793          	srli	a5,s4,0xb
    2668:	cc3e                	sw	a5,24(sp)
    266a:	015a9793          	slli	a5,s5,0x15
    266e:	ce3e                	sw	a5,28(sp)
    2670:	012d5793          	srli	a5,s10,0x12
    2674:	d03e                	sw	a5,32(sp)
    2676:	00ed9793          	slli	a5,s11,0xe
    267a:	d23e                	sw	a5,36(sp)
    267c:	00495793          	srli	a5,s2,0x4
    2680:	d43e                	sw	a5,40(sp)
    2682:	01c99793          	slli	a5,s3,0x1c
    2686:	d63e                	sw	a5,44(sp)
    2688:	01449793          	slli	a5,s1,0x14
    268c:	00c3d313          	srli	t1,t2,0xc
    2690:	da3e                	sw	a5,52(sp)
    2692:	00c4d793          	srli	a5,s1,0xc
    2696:	d81a                	sw	t1,48(sp)
    2698:	dc3e                	sw	a5,56(sp)
    269a:	4346                	lw	t1,80(sp)
    269c:	01439793          	slli	a5,t2,0x14
    26a0:	de3e                	sw	a5,60(sp)
    26a2:	47d6                	lw	a5,84(sp)
    26a4:	01d35393          	srli	t2,t1,0x1d
    26a8:	c09e                	sw	t2,64(sp)
    26aa:	00379393          	slli	t2,a5,0x3
    26ae:	5486                	lw	s1,96(sp)
    26b0:	c29e                	sw	t2,68(sp)
    26b2:	01d7d393          	srli	t2,a5,0x1d
    26b6:	003e5793          	srli	a5,t3,0x3
    26ba:	c49e                	sw	t2,72(sp)
    26bc:	cebe                	sw	a5,92(sp)
    26be:	00331393          	slli	t2,t1,0x3
    26c2:	5796                	lw	a5,100(sp)
    26c4:	c69e                	sw	t2,76(sp)
    26c6:	00de9393          	slli	t2,t4,0xd
    26ca:	013f5313          	srli	t1,t5,0x13
    26ce:	c89e                	sw	t2,80(sp)
    26d0:	01d49393          	slli	t2,s1,0x1d
    26d4:	ca9a                	sw	t1,84(sp)
    26d6:	cc9e                	sw	t2,88(sp)
    26d8:	01f7d393          	srli	t2,a5,0x1f
    26dc:	d09e                	sw	t2,96(sp)
    26de:	0034d313          	srli	t1,s1,0x3
    26e2:	54d6                	lw	s1,116(sp)
    26e4:	0786                	slli	a5,a5,0x1
    26e6:	d6be                	sw	a5,108(sp)
    26e8:	00149393          	slli	t2,s1,0x1
    26ec:	d29e                	sw	t2,100(sp)
    26ee:	01f4d393          	srli	t2,s1,0x1f
    26f2:	d49e                	sw	t2,104(sp)
    26f4:	53e6                	lw	t2,120(sp)
    26f6:	0cb2                	slli	s9,s9,0xc
    26f8:	014c5c13          	srli	s8,s8,0x14
    26fc:	01a3d793          	srli	a5,t2,0x1a
    2700:	d8be                	sw	a5,112(sp)
    2702:	479a                	lw	a5,132(sp)
    2704:	018cec33          	or	s8,s9,s8
    2708:	015b5b13          	srli	s6,s6,0x15
    270c:	00679493          	slli	s1,a5,0x6
    2710:	daa6                	sw	s1,116(sp)
    2712:	01a7d493          	srli	s1,a5,0x1a
    2716:	dca6                	sw	s1,120(sp)
    2718:	00639493          	slli	s1,t2,0x6
    271c:	43ba                	lw	t2,140(sp)
    271e:	47da                	lw	a5,148(sp)
    2720:	dea6                	sw	s1,124(sp)
    2722:	0073d493          	srli	s1,t2,0x7
    2726:	c126                	sw	s1,128(sp)
    2728:	01979493          	slli	s1,a5,0x19
    272c:	c326                	sw	s1,132(sp)
    272e:	0077d493          	srli	s1,a5,0x7
    2732:	c526                	sw	s1,136(sp)
    2734:	01939493          	slli	s1,t2,0x19
    2738:	43ea                	lw	t2,152(sp)
    273a:	579a                	lw	a5,164(sp)
    273c:	c726                	sw	s1,140(sp)
    273e:	0183d493          	srli	s1,t2,0x18
    2742:	c926                	sw	s1,144(sp)
    2744:	00879493          	slli	s1,a5,0x8
    2748:	cb26                	sw	s1,148(sp)
    274a:	0187d493          	srli	s1,a5,0x18
    274e:	cd26                	sw	s1,152(sp)
    2750:	00839493          	slli	s1,t2,0x8
    2754:	53aa                	lw	t2,168(sp)
    2756:	57ea                	lw	a5,184(sp)
    2758:	d326                	sw	s1,164(sp)
    275a:	00e3d493          	srli	s1,t2,0xe
    275e:	d526                	sw	s1,168(sp)
    2760:	01279493          	slli	s1,a5,0x12
    2764:	d726                	sw	s1,172(sp)
    2766:	00e7d493          	srli	s1,a5,0xe
    276a:	d926                	sw	s1,176(sp)
    276c:	01239493          	slli	s1,t2,0x12
    2770:	439e                	lw	t2,196(sp)
    2772:	47de                	lw	a5,212(sp)
    2774:	db26                	sw	s1,180(sp)
    2776:	0053d493          	srli	s1,t2,0x5
    277a:	dd26                	sw	s1,184(sp)
    277c:	01b79493          	slli	s1,a5,0x1b
    2780:	df26                	sw	s1,188(sp)
    2782:	0057d493          	srli	s1,a5,0x5
    2786:	c1a6                	sw	s1,192(sp)
    2788:	47fe                	lw	a5,220(sp)
    278a:	01b39493          	slli	s1,t2,0x1b
    278e:	43ee                	lw	t2,216(sp)
    2790:	c3a6                	sw	s1,196(sp)
    2792:	00479493          	slli	s1,a5,0x4
    2796:	c5a6                	sw	s1,200(sp)
    2798:	01c3d493          	srli	s1,t2,0x1c
    279c:	cba6                	sw	s1,212(sp)
    279e:	00439493          	slli	s1,t2,0x4
    27a2:	538e                	lw	t2,224(sp)
    27a4:	83f1                	srli	a5,a5,0x1c
    27a6:	cfbe                	sw	a5,220(sp)
    27a8:	0163d793          	srli	a5,t2,0x16
    27ac:	d1be                	sw	a5,224(sp)
    27ae:	579e                	lw	a5,228(sp)
    27b0:	cda6                	sw	s1,216(sp)
    27b2:	0bae                	slli	s7,s7,0xb
    27b4:	00a79493          	slli	s1,a5,0xa
    27b8:	83d9                	srli	a5,a5,0x16
    27ba:	d5be                	sw	a5,232(sp)
    27bc:	00a39793          	slli	a5,t2,0xa
    27c0:	53ce                	lw	t2,240(sp)
    27c2:	d7be                	sw	a5,236(sp)
    27c4:	57de                	lw	a5,244(sp)
    27c6:	d3a6                	sw	s1,228(sp)
    27c8:	0113d493          	srli	s1,t2,0x11
    27cc:	d9a6                	sw	s1,240(sp)
    27ce:	00f79493          	slli	s1,a5,0xf
    27d2:	83c5                	srli	a5,a5,0x11
    27d4:	ddbe                	sw	a5,248(sp)
    27d6:	00f39793          	slli	a5,t2,0xf
    27da:	dfbe                	sw	a5,252(sp)
    27dc:	10012783          	lw	a5,256(sp)
    27e0:	dba6                	sw	s1,244(sp)
    27e2:	016bebb3          	or	s7,s7,s6
    27e6:	01879393          	slli	t2,a5,0x18
    27ea:	83a1                	srli	a5,a5,0x8
    27ec:	10712023          	sw	t2,256(sp)
    27f0:	10f12623          	sw	a5,268(sp)
    27f4:	10412383          	lw	t2,260(sp)
    27f8:	01e81793          	slli	a5,a6,0x1e
    27fc:	10f12823          	sw	a5,272(sp)
    2800:	0028d793          	srli	a5,a7,0x2
    2804:	08fa                	slli	a7,a7,0x1e
    2806:	11112c23          	sw	a7,280(sp)
    280a:	01759893          	slli	a7,a1,0x17
    280e:	0083d493          	srli	s1,t2,0x8
    2812:	11112e23          	sw	a7,284(sp)
    2816:	00955893          	srli	a7,a0,0x9
    281a:	10912223          	sw	s1,260(sp)
    281e:	13112023          	sw	a7,288(sp)
    2822:	01839493          	slli	s1,t2,0x18
    2826:	055e                	slli	a0,a0,0x17
    2828:	0095d893          	srli	a7,a1,0x9
    282c:	00769593          	slli	a1,a3,0x7
    2830:	10912423          	sw	s1,264(sp)
    2834:	10f12a23          	sw	a5,276(sp)
    2838:	12a12223          	sw	a0,292(sp)
    283c:	12b12423          	sw	a1,296(sp)
    2840:	01965593          	srli	a1,a2,0x19
    2844:	12b12623          	sw	a1,300(sp)
    2848:	13012383          	lw	t2,304(sp)
    284c:	0196d593          	srli	a1,a3,0x19
    2850:	13412683          	lw	a3,308(sp)
    2854:	00271493          	slli	s1,a4,0x2
    2858:	8379                	srli	a4,a4,0x1e
    285a:	00761513          	slli	a0,a2,0x7
    285e:	14e12023          	sw	a4,320(sp)
    2862:	00939613          	slli	a2,t2,0x9
    2866:	477a                	lw	a4,156(sp)
    2868:	12c12823          	sw	a2,304(sp)
    286c:	0176d613          	srli	a2,a3,0x17
    2870:	12c12a23          	sw	a2,308(sp)
    2874:	00969613          	slli	a2,a3,0x9
    2878:	0173d693          	srli	a3,t2,0x17
    287c:	13812383          	lw	t2,312(sp)
    2880:	005742b3          	xor	t0,a4,t0
    2884:	570a                	lw	a4,160(sp)
    2886:	01e3d793          	srli	a5,t2,0x1e
    288a:	12f12c23          	sw	a5,312(sp)
    288e:	01f74fb3          	xor	t6,a4,t6
    2892:	00239793          	slli	a5,t2,0x2
    2896:	4722                	lw	a4,8(sp)
    2898:	43b2                	lw	t2,12(sp)
    289a:	4cd2                	lw	s9,20(sp)
    289c:	4b72                	lw	s6,28(sp)
    289e:	00776733          	or	a4,a4,t2
    28a2:	43c2                	lw	t2,16(sp)
    28a4:	00bada93          	srli	s5,s5,0xb
    28a8:	0a56                	slli	s4,s4,0x15
    28aa:	0193ecb3          	or	s9,t2,s9
    28ae:	43e2                	lw	t2,24(sp)
    28b0:	014aea33          	or	s4,s5,s4
    28b4:	5a92                	lw	s5,36(sp)
    28b6:	0163eb33          	or	s6,t2,s6
    28ba:	5382                	lw	t2,32(sp)
    28bc:	012ddd93          	srli	s11,s11,0x12
    28c0:	0d3a                	slli	s10,s10,0xe
    28c2:	0153eab3          	or	s5,t2,s5
    28c6:	c656                	sw	s5,12(sp)
    28c8:	53a2                	lw	t2,40(sp)
    28ca:	01adeab3          	or	s5,s11,s10
    28ce:	5d32                	lw	s10,44(sp)
    28d0:	0049d993          	srli	s3,s3,0x4
    28d4:	0972                	slli	s2,s2,0x1c
    28d6:	01a3ed33          	or	s10,t2,s10
    28da:	0129e933          	or	s2,s3,s2
    28de:	53c2                	lw	t2,48(sp)
    28e0:	59d2                	lw	s3,52(sp)
    28e2:	12912e23          	sw	s1,316(sp)
    28e6:	54f2                	lw	s1,60(sp)
    28e8:	0133e9b3          	or	s3,t2,s3
    28ec:	53e2                	lw	t2,56(sp)
    28ee:	cc4e                	sw	s3,24(sp)
    28f0:	4996                	lw	s3,68(sp)
    28f2:	0093e4b3          	or	s1,t2,s1
    28f6:	4386                	lw	t2,64(sp)
    28f8:	013ede93          	srli	t4,t4,0x13
    28fc:	0f36                	slli	t5,t5,0xd
    28fe:	0133e3b3          	or	t2,t2,s3
    2902:	01df6f33          	or	t5,t5,t4
    2906:	c43a                	sw	a4,8(sp)
    2908:	ca6a                	sw	s10,20(sp)
    290a:	c84a                	sw	s2,16(sp)
    290c:	d01e                	sw	t2,32(sp)
    290e:	43a6                	lw	t2,72(sp)
    2910:	49b6                	lw	s3,76(sp)
    2912:	4ee6                	lw	t4,88(sp)
    2914:	d47a                	sw	t5,40(sp)
    2916:	4f76                	lw	t5,92(sp)
    2918:	0e76                	slli	t3,t3,0x1d
    291a:	4d56                	lw	s10,84(sp)
    291c:	0133e3b3          	or	t2,t2,s3
    2920:	01eeeeb3          	or	t4,t4,t5
    2924:	49c6                	lw	s3,80(sp)
    2926:	5f16                	lw	t5,100(sp)
    2928:	006e6333          	or	t1,t3,t1
    292c:	5e06                	lw	t3,96(sp)
    292e:	01a9e9b3          	or	s3,s3,s10
    2932:	5d36                	lw	s10,108(sp)
    2934:	01ee6e33          	or	t3,t3,t5
    2938:	5f26                	lw	t5,104(sp)
    293a:	5956                	lw	s2,116(sp)
    293c:	5776                	lw	a4,124(sp)
    293e:	01af6f33          	or	t5,t5,s10
    2942:	5d46                	lw	s10,112(sp)
    2944:	dc72                	sw	t3,56(sp)
    2946:	4e1a                	lw	t3,132(sp)
    2948:	012d6d33          	or	s10,s10,s2
    294c:	5966                	lw	s2,120(sp)
    294e:	d676                	sw	t4,44(sp)
    2950:	4eba                	lw	t4,140(sp)
    2952:	00e96933          	or	s2,s2,a4
    2956:	470a                	lw	a4,128(sp)
    2958:	da7a                	sw	t5,52(sp)
    295a:	4f5a                	lw	t5,148(sp)
    295c:	01c76733          	or	a4,a4,t3
    2960:	4e2a                	lw	t3,136(sp)
    2962:	ce1e                	sw	t2,28(sp)
    2964:	d24e                	sw	s3,36(sp)
    2966:	01de6e33          	or	t3,t3,t4
    296a:	4eca                	lw	t4,144(sp)
    296c:	d81a                	sw	t1,48(sp)
    296e:	c0ea                	sw	s10,64(sp)
    2970:	01eeeeb3          	or	t4,t4,t5
    2974:	de4a                	sw	s2,60(sp)
    2976:	c4ba                	sw	a4,72(sp)
    2978:	c2f2                	sw	t3,68(sp)
    297a:	c8f6                	sw	t4,80(sp)
    297c:	4f6a                	lw	t5,152(sp)
    297e:	539a                	lw	t2,164(sp)
    2980:	59da                	lw	s3,180(sp)
    2982:	5d7a                	lw	s10,188(sp)
    2984:	007f6333          	or	t1,t5,t2
    2988:	53ba                	lw	t2,172(sp)
    298a:	5f2a                	lw	t5,168(sp)
    298c:	491e                	lw	s2,196(sp)
    298e:	4dde                	lw	s11,212(sp)
    2990:	007f6f33          	or	t5,t5,t2
    2994:	53ca                	lw	t2,176(sp)
    2996:	4e7e                	lw	t3,220(sp)
    2998:	5e9e                	lw	t4,228(sp)
    299a:	0133e3b3          	or	t2,t2,s3
    299e:	59ea                	lw	s3,184(sp)
    29a0:	ccfa                	sw	t5,88(sp)
    29a2:	5f3e                	lw	t5,236(sp)
    29a4:	01a9e9b3          	or	s3,s3,s10
    29a8:	4d0e                	lw	s10,192(sp)
    29aa:	ca9e                	sw	t2,84(sp)
    29ac:	53de                	lw	t2,244(sp)
    29ae:	012d6d33          	or	s10,s10,s2
    29b2:	492e                	lw	s2,200(sp)
    29b4:	c69a                	sw	t1,76(sp)
    29b6:	d0ce                	sw	s3,96(sp)
    29b8:	01b96933          	or	s2,s2,s11
    29bc:	4dee                	lw	s11,216(sp)
    29be:	ceea                	sw	s10,92(sp)
    29c0:	d2ca                	sw	s2,100(sp)
    29c2:	01cdedb3          	or	s11,s11,t3
    29c6:	5e0e                	lw	t3,224(sp)
    29c8:	d4ee                	sw	s11,104(sp)
    29ca:	00285813          	srli	a6,a6,0x2
    29ce:	01de6e33          	or	t3,t3,t4
    29d2:	5eae                	lw	t4,232(sp)
    29d4:	d8f2                	sw	t3,112(sp)
    29d6:	8dc9                	or	a1,a1,a0
    29d8:	01eeeeb3          	or	t4,t4,t5
    29dc:	5f4e                	lw	t5,240(sp)
    29de:	d6f6                	sw	t4,108(sp)
    29e0:	8ed1                	or	a3,a3,a2
    29e2:	007f6333          	or	t1,t5,t2
    29e6:	53fe                	lw	t2,252(sp)
    29e8:	5f6e                	lw	t5,248(sp)
    29ea:	dc9a                	sw	t1,120(sp)
    29ec:	007f6f33          	or	t5,t5,t2
    29f0:	dafa                	sw	t5,116(sp)
    29f2:	10412983          	lw	s3,260(sp)
    29f6:	10012383          	lw	t2,256(sp)
    29fa:	10c12d03          	lw	s10,268(sp)
    29fe:	11412903          	lw	s2,276(sp)
    2a02:	0133e3b3          	or	t2,t2,s3
    2a06:	10812983          	lw	s3,264(sp)
    2a0a:	13012503          	lw	a0,304(sp)
    2a0e:	cd2e                	sw	a1,152(sp)
    2a10:	01a9e9b3          	or	s3,s3,s10
    2a14:	11012d03          	lw	s10,272(sp)
    2a18:	13412583          	lw	a1,308(sp)
    2a1c:	14012703          	lw	a4,320(sp)
    2a20:	012d6d33          	or	s10,s10,s2
    2a24:	11812903          	lw	s2,280(sp)
    2a28:	8d4d                	or	a0,a0,a1
    2a2a:	13812603          	lw	a2,312(sp)
    2a2e:	01096833          	or	a6,s2,a6
    2a32:	c542                	sw	a6,136(sp)
    2a34:	12012903          	lw	s2,288(sp)
    2a38:	11c12803          	lw	a6,284(sp)
    2a3c:	13c12583          	lw	a1,316(sp)
    2a40:	de9e                	sw	t2,124(sp)
    2a42:	01286833          	or	a6,a6,s2
    2a46:	c742                	sw	a6,140(sp)
    2a48:	12412803          	lw	a6,292(sp)
    2a4c:	8e4d                	or	a2,a2,a1
    2a4e:	00f765b3          	or	a1,a4,a5
    2a52:	011868b3          	or	a7,a6,a7
    2a56:	c946                	sw	a7,144(sp)
    2a58:	12c12803          	lw	a6,300(sp)
    2a5c:	12812883          	lw	a7,296(sp)
    2a60:	c14e                	sw	s3,128(sp)
    2a62:	c36a                	sw	s10,132(sp)
    2a64:	0108e8b3          	or	a7,a7,a6
    2a68:	cb46                	sw	a7,148(sp)
    2a6a:	cf2a                	sw	a0,156(sp)
    2a6c:	d136                	sw	a3,160(sp)
    2a6e:	d532                	sw	a2,168(sp)
    2a70:	d32e                	sw	a1,164(sp)
    2a72:	db62                	sw	s8,180(sp)
    2a74:	dd66                	sw	s9,184(sp)
    2a76:	4722                	lw	a4,8(sp)
    2a78:	df5e                	sw	s7,188(sp)
    2a7a:	5302                	lw	t1,32(sp)
    2a7c:	fffb4793          	not	a5,s6
    2a80:	c3da                	sw	s6,196(sp)
    2a82:	4b56                	lw	s6,84(sp)
    2a84:	d97e                	sw	t6,176(sp)
    2a86:	ffffc913          	not	s2,t6
    2a8a:	fff34f93          	not	t6,t1
    2a8e:	d1fe                	sw	t6,224(sp)
    2a90:	fffb4f93          	not	t6,s6
    2a94:	4b66                	lw	s6,88(sp)
    2a96:	d3fe                	sw	t6,228(sp)
    2a98:	4632                	lw	a2,12(sp)
    2a9a:	fffb4f93          	not	t6,s6
    2a9e:	5b52                	lw	s6,52(sp)
    2aa0:	4e72                	lw	t3,28(sp)
    2aa2:	5e92                	lw	t4,36(sp)
    2aa4:	5522                	lw	a0,40(sp)
    2aa6:	5832                	lw	a6,44(sp)
    2aa8:	d5fe                	sw	t6,232(sp)
    2aaa:	fffb4f93          	not	t6,s6
    2aae:	5b62                	lw	s6,56(sp)
    2ab0:	48e2                	lw	a7,24(sp)
    2ab2:	4686                	lw	a3,64(sp)
    2ab4:	fff74d93          	not	s11,a4
    2ab8:	fffc4d13          	not	s10,s8
    2abc:	4726                	lw	a4,72(sp)
    2abe:	fffbcc13          	not	s8,s7
    2ac2:	c1d2                	sw	s4,192(sp)
    2ac4:	fffa4b93          	not	s7,s4
    2ac8:	cfbe                	sw	a5,220(sp)
    2aca:	fff64a13          	not	s4,a2
    2ace:	4796                	lw	a5,68(sp)
    2ad0:	5672                	lw	a2,60(sp)
    2ad2:	d716                	sw	t0,172(sp)
    2ad4:	fff2c993          	not	s3,t0
    2ad8:	fffecf13          	not	t5,t4
    2adc:	fffe4293          	not	t0,t3
    2ae0:	fff54e93          	not	t4,a0
    2ae4:	fff84e13          	not	t3,a6
    2ae8:	4552                	lw	a0,20(sp)
    2aea:	4842                	lw	a6,16(sp)
    2aec:	d9fe                	sw	t6,240(sp)
    2aee:	fffb4f93          	not	t6,s6
    2af2:	5342                	lw	t1,48(sp)
    2af4:	c5d6                	sw	s5,200(sp)
    2af6:	cda6                	sw	s1,216(sp)
    2af8:	fff8c393          	not	t2,a7
    2afc:	fff6c593          	not	a1,a3
    2b00:	fff84893          	not	a7,a6
    2b04:	fff74693          	not	a3,a4
    2b08:	fff54813          	not	a6,a0
    2b0c:	4736                	lw	a4,76(sp)
    2b0e:	fff64513          	not	a0,a2
    2b12:	dbfe                	sw	t6,244(sp)
    2b14:	fff7c613          	not	a2,a5
    2b18:	47c6                	lw	a5,80(sp)
    2b1a:	5b16                	lw	s6,100(sp)
    2b1c:	fffccc93          	not	s9,s9
    2b20:	fffaca93          	not	s5,s5
    2b24:	fffb4f93          	not	t6,s6
    2b28:	5b26                	lw	s6,104(sp)
    2b2a:	ddfe                	sw	t6,248(sp)
    2b2c:	fff4c493          	not	s1,s1
    2b30:	fffb4f93          	not	t6,s6
    2b34:	5b36                	lw	s6,108(sp)
    2b36:	dffe                	sw	t6,252(sp)
    2b38:	fff34313          	not	t1,t1
    2b3c:	fffb4f93          	not	t6,s6
    2b40:	5b46                	lw	s6,112(sp)
    2b42:	11f12223          	sw	t6,260(sp)
    2b46:	fff74713          	not	a4,a4
    2b4a:	fffb4f93          	not	t6,s6
    2b4e:	5b56                	lw	s6,116(sp)
    2b50:	11f12423          	sw	t6,264(sp)
    2b54:	fff7c793          	not	a5,a5
    2b58:	fffb4f93          	not	t6,s6
    2b5c:	5b66                	lw	s6,120(sp)
    2b5e:	11f12623          	sw	t6,268(sp)
    2b62:	fffb4b13          	not	s6,s6
    2b66:	11612823          	sw	s6,272(sp)
    2b6a:	5b76                	lw	s6,124(sp)
    2b6c:	fffb4b13          	not	s6,s6
    2b70:	11612a23          	sw	s6,276(sp)
    2b74:	4b0a                	lw	s6,128(sp)
    2b76:	fffb4f93          	not	t6,s6
    2b7a:	4b76                	lw	s6,92(sp)
    2b7c:	11f12c23          	sw	t6,280(sp)
    2b80:	fffb4b13          	not	s6,s6
    2b84:	11612e23          	sw	s6,284(sp)
    2b88:	5b06                	lw	s6,96(sp)
    2b8a:	fffb4b13          	not	s6,s6
    2b8e:	13612023          	sw	s6,288(sp)
    2b92:	4b3a                	lw	s6,140(sp)
    2b94:	fffb4b13          	not	s6,s6
    2b98:	13612223          	sw	s6,292(sp)
    2b9c:	4b4a                	lw	s6,144(sp)
    2b9e:	fffb4f93          	not	t6,s6
    2ba2:	4b5a                	lw	s6,148(sp)
    2ba4:	13f12423          	sw	t6,296(sp)
    2ba8:	fffb4b13          	not	s6,s6
    2bac:	13612623          	sw	s6,300(sp)
    2bb0:	4b6a                	lw	s6,152(sp)
    2bb2:	fffb4b13          	not	s6,s6
    2bb6:	13612823          	sw	s6,304(sp)
    2bba:	4b7a                	lw	s6,156(sp)
    2bbc:	fffb4b13          	not	s6,s6
    2bc0:	13612a23          	sw	s6,308(sp)
    2bc4:	5b0a                	lw	s6,160(sp)
    2bc6:	fffb4f93          	not	t6,s6
    2bca:	13f12c23          	sw	t6,312(sp)
    2bce:	5b1a                	lw	s6,164(sp)
    2bd0:	fffb4b13          	not	s6,s6
    2bd4:	13612e23          	sw	s6,316(sp)
    2bd8:	5b2a                	lw	s6,168(sp)
    2bda:	fffb4b13          	not	s6,s6
    2bde:	15612023          	sw	s6,320(sp)
    2be2:	4b1a                	lw	s6,132(sp)
    2be4:	fffb4b13          	not	s6,s6
    2be8:	15612223          	sw	s6,324(sp)
    2bec:	4b2a                	lw	s6,136(sp)
    2bee:	fffb4f93          	not	t6,s6
    2bf2:	15f12423          	sw	t6,328(sp)
    2bf6:	5b3a                	lw	s6,172(sp)
    2bf8:	4fbe                	lw	t6,204(sp)
    2bfa:	016fcb33          	xor	s6,t6,s6
    2bfe:	c7da                	sw	s6,204(sp)
    2c00:	4fce                	lw	t6,208(sp)
    2c02:	5b4a                	lw	s6,176(sp)
    2c04:	016fcfb3          	xor	t6,t6,s6
    2c08:	5b6a                	lw	s6,184(sp)
    2c0a:	c9fe                	sw	t6,208(sp)
    2c0c:	5f8e                	lw	t6,224(sp)
    2c0e:	016dfb33          	and	s6,s11,s6
    2c12:	cbda                	sw	s6,212(sp)
    2c14:	5b7a                	lw	s6,188(sp)
    2c16:	4d8e                	lw	s11,192(sp)
    2c18:	016d7d33          	and	s10,s10,s6
    2c1c:	4b1e                	lw	s6,196(sp)
    2c1e:	01bcfcb3          	and	s9,s9,s11
    2c22:	4dfe                	lw	s11,220(sp)
    2c24:	016c7c33          	and	s8,s8,s6
    2c28:	4b2e                	lw	s6,200(sp)
    2c2a:	016bfbb3          	and	s7,s7,s6
    2c2e:	4b32                	lw	s6,12(sp)
    2c30:	016dfb33          	and	s6,s11,s6
    2c34:	5dba                	lw	s11,172(sp)
    2c36:	01bafab3          	and	s5,s5,s11
    2c3a:	5dca                	lw	s11,176(sp)
    2c3c:	01ba7a33          	and	s4,s4,s11
    2c40:	4da2                	lw	s11,8(sp)
    2c42:	01b9f9b3          	and	s3,s3,s11
    2c46:	5dda                	lw	s11,180(sp)
    2c48:	01b97933          	and	s2,s2,s11
    2c4c:	4df2                	lw	s11,28(sp)
    2c4e:	01b4f4b3          	and	s1,s1,s11
    2c52:	5d82                	lw	s11,32(sp)
    2c54:	01b3f3b3          	and	t2,t2,s11
    2c58:	5d92                	lw	s11,36(sp)
    2c5a:	01b2f2b3          	and	t0,t0,s11
    2c5e:	5da2                	lw	s11,40(sp)
    2c60:	01bfffb3          	and	t6,t6,s11
    2c64:	cffe                	sw	t6,220(sp)
    2c66:	5db2                	lw	s11,44(sp)
    2c68:	5f9e                	lw	t6,228(sp)
    2c6a:	01bf7f33          	and	t5,t5,s11
    2c6e:	5dc2                	lw	s11,48(sp)
    2c70:	01befeb3          	and	t4,t4,s11
    2c74:	4dc2                	lw	s11,16(sp)
    2c76:	01be7e33          	and	t3,t3,s11
    2c7a:	4dd2                	lw	s11,20(sp)
    2c7c:	01b37333          	and	t1,t1,s11
    2c80:	4dee                	lw	s11,216(sp)
    2c82:	01b8f8b3          	and	a7,a7,s11
    2c86:	4de2                	lw	s11,24(sp)
    2c88:	01b87833          	and	a6,a6,s11
    2c8c:	4d96                	lw	s11,68(sp)
    2c8e:	01b57533          	and	a0,a0,s11
    2c92:	4da6                	lw	s11,72(sp)
    2c94:	01b5f5b3          	and	a1,a1,s11
    2c98:	4db6                	lw	s11,76(sp)
    2c9a:	01b67633          	and	a2,a2,s11
    2c9e:	4dc6                	lw	s11,80(sp)
    2ca0:	01b6f6b3          	and	a3,a3,s11
    2ca4:	4dd6                	lw	s11,84(sp)
    2ca6:	01b77733          	and	a4,a4,s11
    2caa:	4de6                	lw	s11,88(sp)
    2cac:	01b7f7b3          	and	a5,a5,s11
    2cb0:	5dd2                	lw	s11,52(sp)
    2cb2:	01bffdb3          	and	s11,t6,s11
    2cb6:	d7ee                	sw	s11,236(sp)
    2cb8:	5fae                	lw	t6,232(sp)
    2cba:	5de2                	lw	s11,56(sp)
    2cbc:	01bfffb3          	and	t6,t6,s11
    2cc0:	d5fe                	sw	t6,232(sp)
    2cc2:	5df2                	lw	s11,60(sp)
    2cc4:	5fce                	lw	t6,240(sp)
    2cc6:	01bfffb3          	and	t6,t6,s11
    2cca:	d9fe                	sw	t6,240(sp)
    2ccc:	4d86                	lw	s11,64(sp)
    2cce:	5fde                	lw	t6,244(sp)
    2cd0:	01bfffb3          	and	t6,t6,s11
    2cd4:	dbfe                	sw	t6,244(sp)
    2cd6:	5db6                	lw	s11,108(sp)
    2cd8:	5fee                	lw	t6,248(sp)
    2cda:	01bfffb3          	and	t6,t6,s11
    2cde:	11f12023          	sw	t6,256(sp)
    2ce2:	5dc6                	lw	s11,112(sp)
    2ce4:	5ffe                	lw	t6,252(sp)
    2ce6:	01bfffb3          	and	t6,t6,s11
    2cea:	dffe                	sw	t6,252(sp)
    2cec:	5dd6                	lw	s11,116(sp)
    2cee:	10412f83          	lw	t6,260(sp)
    2cf2:	01bfffb3          	and	t6,t6,s11
    2cf6:	11f12223          	sw	t6,260(sp)
    2cfa:	10812f83          	lw	t6,264(sp)
    2cfe:	5de6                	lw	s11,120(sp)
    2d00:	01bfffb3          	and	t6,t6,s11
    2d04:	11f12423          	sw	t6,264(sp)
    2d08:	5df6                	lw	s11,124(sp)
    2d0a:	10c12f83          	lw	t6,268(sp)
    2d0e:	01bfffb3          	and	t6,t6,s11
    2d12:	11f12623          	sw	t6,268(sp)
    2d16:	4d8a                	lw	s11,128(sp)
    2d18:	11012f83          	lw	t6,272(sp)
    2d1c:	01bfffb3          	and	t6,t6,s11
    2d20:	11f12823          	sw	t6,272(sp)
    2d24:	4df6                	lw	s11,92(sp)
    2d26:	11412f83          	lw	t6,276(sp)
    2d2a:	01bfffb3          	and	t6,t6,s11
    2d2e:	11f12a23          	sw	t6,276(sp)
    2d32:	5d86                	lw	s11,96(sp)
    2d34:	11812f83          	lw	t6,280(sp)
    2d38:	01bfffb3          	and	t6,t6,s11
    2d3c:	11f12c23          	sw	t6,280(sp)
    2d40:	5d96                	lw	s11,100(sp)
    2d42:	11c12f83          	lw	t6,284(sp)
    2d46:	01bfffb3          	and	t6,t6,s11
    2d4a:	11f12e23          	sw	t6,284(sp)
    2d4e:	5da6                	lw	s11,104(sp)
    2d50:	12012f83          	lw	t6,288(sp)
    2d54:	01bfffb3          	and	t6,t6,s11
    2d58:	13f12023          	sw	t6,288(sp)
    2d5c:	4dda                	lw	s11,148(sp)
    2d5e:	12412f83          	lw	t6,292(sp)
    2d62:	01bfffb3          	and	t6,t6,s11
    2d66:	13f12223          	sw	t6,292(sp)
    2d6a:	4dea                	lw	s11,152(sp)
    2d6c:	12812f83          	lw	t6,296(sp)
    2d70:	01bfffb3          	and	t6,t6,s11
    2d74:	13f12423          	sw	t6,296(sp)
    2d78:	4dfa                	lw	s11,156(sp)
    2d7a:	12c12f83          	lw	t6,300(sp)
    2d7e:	01bfffb3          	and	t6,t6,s11
    2d82:	13f12623          	sw	t6,300(sp)
    2d86:	5d8a                	lw	s11,160(sp)
    2d88:	13012f83          	lw	t6,304(sp)
    2d8c:	01bfffb3          	and	t6,t6,s11
    2d90:	13f12823          	sw	t6,304(sp)
    2d94:	13412f83          	lw	t6,308(sp)
    2d98:	5d9a                	lw	s11,164(sp)
    2d9a:	01bfffb3          	and	t6,t6,s11
    2d9e:	13f12a23          	sw	t6,308(sp)
    2da2:	5daa                	lw	s11,168(sp)
    2da4:	13812f83          	lw	t6,312(sp)
    2da8:	01bfffb3          	and	t6,t6,s11
    2dac:	13f12c23          	sw	t6,312(sp)
    2db0:	4d9a                	lw	s11,132(sp)
    2db2:	13c12f83          	lw	t6,316(sp)
    2db6:	01bfffb3          	and	t6,t6,s11
    2dba:	13f12e23          	sw	t6,316(sp)
    2dbe:	4daa                	lw	s11,136(sp)
    2dc0:	14012f83          	lw	t6,320(sp)
    2dc4:	01bfffb3          	and	t6,t6,s11
    2dc8:	15f12023          	sw	t6,320(sp)
    2dcc:	4dba                	lw	s11,140(sp)
    2dce:	14412f83          	lw	t6,324(sp)
    2dd2:	01bfffb3          	and	t6,t6,s11
    2dd6:	15f12223          	sw	t6,324(sp)
    2dda:	4dca                	lw	s11,144(sp)
    2ddc:	14812f83          	lw	t6,328(sp)
    2de0:	01bfffb3          	and	t6,t6,s11
    2de4:	4d92                	lw	s11,4(sp)
    2de6:	15f12423          	sw	t6,328(sp)
    2dea:	4fbe                	lw	t6,204(sp)
    2dec:	0dc1                	addi	s11,s11,16
    2dee:	c26e                	sw	s11,4(sp)
    2df0:	4dde                	lw	s11,212(sp)
    2df2:	01bfcfb3          	xor	t6,t6,s11
    2df6:	d77e                	sw	t6,172(sp)
    2df8:	4fce                	lw	t6,208(sp)
    2dfa:	4da2                	lw	s11,8(sp)
    2dfc:	01afcd33          	xor	s10,t6,s10
    2e00:	d96a                	sw	s10,176(sp)
    2e02:	01bccd33          	xor	s10,s9,s11
    2e06:	5dda                	lw	s11,180(sp)
    2e08:	5cea                	lw	s9,184(sp)
    2e0a:	c46a                	sw	s10,8(sp)
    2e0c:	01bc4c33          	xor	s8,s8,s11
    2e10:	db62                	sw	s8,180(sp)
    2e12:	019bcc33          	xor	s8,s7,s9
    2e16:	5bfa                	lw	s7,188(sp)
    2e18:	dd62                	sw	s8,184(sp)
    2e1a:	017b4bb3          	xor	s7,s6,s7
    2e1e:	df5e                	sw	s7,188(sp)
    2e20:	4d8e                	lw	s11,192(sp)
    2e22:	4b1e                	lw	s6,196(sp)
    2e24:	01bacbb3          	xor	s7,s5,s11
    2e28:	4aae                	lw	s5,200(sp)
    2e2a:	016a4a33          	xor	s4,s4,s6
    2e2e:	4b32                	lw	s6,12(sp)
    2e30:	0159c9b3          	xor	s3,s3,s5
    2e34:	c5ce                	sw	s3,200(sp)
    2e36:	016949b3          	xor	s3,s2,s6
    2e3a:	4942                	lw	s2,16(sp)
    2e3c:	4dd2                	lw	s11,20(sp)
    2e3e:	c1de                	sw	s7,192(sp)
    2e40:	0124c933          	xor	s2,s1,s2
    2e44:	44ee                	lw	s1,216(sp)
    2e46:	01b3c3b3          	xor	t2,t2,s11
    2e4a:	4de2                	lw	s11,24(sp)
    2e4c:	0092c4b3          	xor	s1,t0,s1
    2e50:	dda6                	sw	s1,248(sp)
    2e52:	44fe                	lw	s1,220(sp)
    2e54:	c7ce                	sw	s3,204(sp)
    2e56:	c3d2                	sw	s4,196(sp)
    2e58:	01b4c2b3          	xor	t0,s1,s11
    2e5c:	44f2                	lw	s1,28(sp)
    2e5e:	5d82                	lw	s11,32(sp)
    2e60:	c9ca                	sw	s2,208(sp)
    2e62:	009f4f33          	xor	t5,t5,s1
    2e66:	cc7a                	sw	t5,24(sp)
    2e68:	01becf33          	xor	t5,t4,s11
    2e6c:	5d92                	lw	s11,36(sp)
    2e6e:	54d2                	lw	s1,52(sp)
    2e70:	cb9e                	sw	t2,212(sp)
    2e72:	01be4e33          	xor	t3,t3,s11
    2e76:	5da2                	lw	s11,40(sp)
    2e78:	cdf2                	sw	t3,216(sp)
    2e7a:	8d25                	xor	a0,a0,s1
    2e7c:	01b34e33          	xor	t3,t1,s11
    2e80:	5db2                	lw	s11,44(sp)
    2e82:	d02a                	sw	a0,32(sp)
    2e84:	c616                	sw	t0,12(sp)
    2e86:	01b8c8b3          	xor	a7,a7,s11
    2e8a:	5dc2                	lw	s11,48(sp)
    2e8c:	ce7a                	sw	t5,28(sp)
    2e8e:	cff2                	sw	t3,220(sp)
    2e90:	01b84b33          	xor	s6,a6,s11
    2e94:	5de2                	lw	s11,56(sp)
    2e96:	ca46                	sw	a7,20(sp)
    2e98:	01b5c533          	xor	a0,a1,s11
    2e9c:	d22a                	sw	a0,36(sp)
    2e9e:	55f2                	lw	a1,60(sp)
    2ea0:	4d86                	lw	s11,64(sp)
    2ea2:	8e2d                	xor	a2,a2,a1
    2ea4:	d1b2                	sw	a2,224(sp)
    2ea6:	01b6c633          	xor	a2,a3,s11
    2eaa:	4696                	lw	a3,68(sp)
    2eac:	4da6                	lw	s11,72(sp)
    2eae:	d3b2                	sw	a2,228(sp)
    2eb0:	00d749b3          	xor	s3,a4,a3
    2eb4:	56be                	lw	a3,236(sp)
    2eb6:	4736                	lw	a4,76(sp)
    2eb8:	01b7c633          	xor	a2,a5,s11
    2ebc:	4dc6                	lw	s11,80(sp)
    2ebe:	8eb9                	xor	a3,a3,a4
    2ec0:	572e                	lw	a4,232(sp)
    2ec2:	47d6                	lw	a5,84(sp)
    2ec4:	d436                	sw	a3,40(sp)
    2ec6:	01b746b3          	xor	a3,a4,s11
    2eca:	574e                	lw	a4,240(sp)
    2ecc:	4de6                	lw	s11,88(sp)
    2ece:	d636                	sw	a3,44(sp)
    2ed0:	00f746b3          	xor	a3,a4,a5
    2ed4:	575e                	lw	a4,244(sp)
    2ed6:	47f6                	lw	a5,92(sp)
    2ed8:	d5b6                	sw	a3,232(sp)
    2eda:	01b746b3          	xor	a3,a4,s11
    2ede:	10012703          	lw	a4,256(sp)
    2ee2:	5d86                	lw	s11,96(sp)
    2ee4:	d7b6                	sw	a3,236(sp)
    2ee6:	00f746b3          	xor	a3,a4,a5
    2eea:	577e                	lw	a4,252(sp)
    2eec:	d9b6                	sw	a3,240(sp)
    2eee:	c832                	sw	a2,16(sp)
    2ef0:	01b746b3          	xor	a3,a4,s11
    2ef4:	10412703          	lw	a4,260(sp)
    2ef8:	5d96                	lw	s11,100(sp)
    2efa:	dbb6                	sw	a3,244(sp)
    2efc:	01b746b3          	xor	a3,a4,s11
    2f00:	10812703          	lw	a4,264(sp)
    2f04:	5da6                	lw	s11,104(sp)
    2f06:	d836                	sw	a3,48(sp)
    2f08:	01b746b3          	xor	a3,a4,s11
    2f0c:	da36                	sw	a3,52(sp)
    2f0e:	10c12703          	lw	a4,268(sp)
    2f12:	57b6                	lw	a5,108(sp)
    2f14:	5dc6                	lw	s11,112(sp)
    2f16:	00f746b3          	xor	a3,a4,a5
    2f1a:	11012703          	lw	a4,272(sp)
    2f1e:	57d6                	lw	a5,116(sp)
    2f20:	ccb6                	sw	a3,88(sp)
    2f22:	01b746b3          	xor	a3,a4,s11
    2f26:	11412703          	lw	a4,276(sp)
    2f2a:	5de6                	lw	s11,120(sp)
    2f2c:	ceb6                	sw	a3,92(sp)
    2f2e:	00f74bb3          	xor	s7,a4,a5
    2f32:	11812703          	lw	a4,280(sp)
    2f36:	01b74d33          	xor	s10,a4,s11
    2f3a:	11c12703          	lw	a4,284(sp)
    2f3e:	5df6                	lw	s11,124(sp)
    2f40:	01b746b3          	xor	a3,a4,s11
    2f44:	12012703          	lw	a4,288(sp)
    2f48:	4d8a                	lw	s11,128(sp)
    2f4a:	dc36                	sw	a3,56(sp)
    2f4c:	01b746b3          	xor	a3,a4,s11
    2f50:	12412703          	lw	a4,292(sp)
    2f54:	4d9a                	lw	s11,132(sp)
    2f56:	de36                	sw	a3,60(sp)
    2f58:	01b746b3          	xor	a3,a4,s11
    2f5c:	12812703          	lw	a4,296(sp)
    2f60:	4daa                	lw	s11,136(sp)
    2f62:	c0b6                	sw	a3,64(sp)
    2f64:	01b746b3          	xor	a3,a4,s11
    2f68:	12c12703          	lw	a4,300(sp)
    2f6c:	4dba                	lw	s11,140(sp)
    2f6e:	c2b6                	sw	a3,68(sp)
    2f70:	01b746b3          	xor	a3,a4,s11
    2f74:	13012703          	lw	a4,304(sp)
    2f78:	4dca                	lw	s11,144(sp)
    2f7a:	d8b6                	sw	a3,112(sp)
    2f7c:	01b746b3          	xor	a3,a4,s11
    2f80:	13412703          	lw	a4,308(sp)
    2f84:	4dda                	lw	s11,148(sp)
    2f86:	dab6                	sw	a3,116(sp)
    2f88:	01b746b3          	xor	a3,a4,s11
    2f8c:	13812703          	lw	a4,312(sp)
    2f90:	4dea                	lw	s11,152(sp)
    2f92:	c4b6                	sw	a3,72(sp)
    2f94:	01b746b3          	xor	a3,a4,s11
    2f98:	c6b6                	sw	a3,76(sp)
    2f9a:	13c12703          	lw	a4,316(sp)
    2f9e:	4dfa                	lw	s11,156(sp)
    2fa0:	579a                	lw	a5,164(sp)
    2fa2:	01b746b3          	xor	a3,a4,s11
    2fa6:	14012703          	lw	a4,320(sp)
    2faa:	5d8a                	lw	s11,160(sp)
    2fac:	d0b6                	sw	a3,96(sp)
    2fae:	01b746b3          	xor	a3,a4,s11
    2fb2:	14412703          	lw	a4,324(sp)
    2fb6:	5daa                	lw	s11,168(sp)
    2fb8:	d2b6                	sw	a3,100(sp)
    2fba:	00f746b3          	xor	a3,a4,a5
    2fbe:	14812703          	lw	a4,328(sp)
    2fc2:	4792                	lw	a5,4(sp)
    2fc4:	c8b6                	sw	a3,80(sp)
    2fc6:	01b74db3          	xor	s11,a4,s11
    2fca:	00080737          	lui	a4,0x80
    2fce:	38070713          	addi	a4,a4,896 # 80380 <PQCLEAN_KYBER1024_CLEAN_zetas>
    2fd2:	00f70463          	beq	a4,a5,2fda <KeccakF1600_StatePermute+0x189c>
    2fd6:	895fe06f          	j	186a <KeccakF1600_StatePermute+0x12c>
    2fda:	14c12783          	lw	a5,332(sp)
    2fde:	573a                	lw	a4,172(sp)
    2fe0:	8aee                	mv	s5,s11
    2fe2:	5dee                	lw	s11,248(sp)
    2fe4:	c398                	sw	a4,0(a5)
    2fe6:	574a                	lw	a4,176(sp)
    2fe8:	0187a823          	sw	s8,16(a5)
    2fec:	0147ae23          	sw	s4,28(a5)
    2ff0:	c3d8                	sw	a4,4(a5)
    2ff2:	4722                	lw	a4,8(sp)
    2ff4:	0327a423          	sw	s2,40(a5)
    2ff8:	03b7a823          	sw	s11,48(a5)
    2ffc:	c798                	sw	a4,8(a5)
    2ffe:	575a                	lw	a4,180(sp)
    3000:	0567a623          	sw	s6,76(a5)
    3004:	0277a623          	sw	t2,44(a5)
    3008:	c7d8                	sw	a4,12(a5)
    300a:	577a                	lw	a4,188(sp)
    300c:	0257aa23          	sw	t0,52(a5)
    3010:	03e7ae23          	sw	t5,60(a5)
    3014:	cbd8                	sw	a4,20(a5)
    3016:	470e                	lw	a4,192(sp)
    3018:	05c7a223          	sw	t3,68(a5)
    301c:	0517a423          	sw	a7,72(a5)
    3020:	cf98                	sw	a4,24(a5)
    3022:	472e                	lw	a4,200(sp)
    3024:	8cce                	mv	s9,s3
    3026:	d398                	sw	a4,32(a5)
    3028:	473e                	lw	a4,204(sp)
    302a:	d3d8                	sw	a4,36(a5)
    302c:	4762                	lw	a4,24(sp)
    302e:	df98                	sw	a4,56(a5)
    3030:	476e                	lw	a4,216(sp)
    3032:	c3b8                	sw	a4,64(a5)
    3034:	5702                	lw	a4,32(sp)
    3036:	0797a023          	sw	s9,96(a5)
    303a:	0977a823          	sw	s7,144(a5)
    303e:	cbb8                	sw	a4,80(a5)
    3040:	570e                	lw	a4,224(sp)
    3042:	09a7aa23          	sw	s10,148(a5)
    3046:	cbe8                	sw	a0,84(a5)
    3048:	cfb8                	sw	a4,88(a5)
    304a:	571e                	lw	a4,228(sp)
    304c:	d3f0                	sw	a2,100(a5)
    304e:	cff8                	sw	a4,92(a5)
    3050:	5722                	lw	a4,40(sp)
    3052:	d7b8                	sw	a4,104(a5)
    3054:	5732                	lw	a4,44(sp)
    3056:	d7f8                	sw	a4,108(a5)
    3058:	572e                	lw	a4,232(sp)
    305a:	dbb8                	sw	a4,112(a5)
    305c:	573e                	lw	a4,236(sp)
    305e:	dbf8                	sw	a4,116(a5)
    3060:	574e                	lw	a4,240(sp)
    3062:	dfb8                	sw	a4,120(a5)
    3064:	575e                	lw	a4,244(sp)
    3066:	dff8                	sw	a4,124(a5)
    3068:	5742                	lw	a4,48(sp)
    306a:	08e7a023          	sw	a4,128(a5)
    306e:	5752                	lw	a4,52(sp)
    3070:	08e7a223          	sw	a4,132(a5)
    3074:	4766                	lw	a4,88(sp)
    3076:	08e7a423          	sw	a4,136(a5)
    307a:	4776                	lw	a4,92(sp)
    307c:	08e7a623          	sw	a4,140(a5)
    3080:	5762                	lw	a4,56(sp)
    3082:	08e7ac23          	sw	a4,152(a5)
    3086:	5772                	lw	a4,60(sp)
    3088:	0d57a223          	sw	s5,196(a5)
    308c:	0cd7a023          	sw	a3,192(a5)
    3090:	08e7ae23          	sw	a4,156(a5)
    3094:	4706                	lw	a4,64(sp)
    3096:	17c12483          	lw	s1,380(sp)
    309a:	17812903          	lw	s2,376(sp)
    309e:	0ae7a023          	sw	a4,160(a5)
    30a2:	4716                	lw	a4,68(sp)
    30a4:	17412983          	lw	s3,372(sp)
    30a8:	17012a03          	lw	s4,368(sp)
    30ac:	0ae7a223          	sw	a4,164(a5)
    30b0:	5746                	lw	a4,112(sp)
    30b2:	16c12a83          	lw	s5,364(sp)
    30b6:	16812b03          	lw	s6,360(sp)
    30ba:	0ae7a423          	sw	a4,168(a5)
    30be:	5756                	lw	a4,116(sp)
    30c0:	16412b83          	lw	s7,356(sp)
    30c4:	16012c03          	lw	s8,352(sp)
    30c8:	0ae7a623          	sw	a4,172(a5)
    30cc:	4726                	lw	a4,72(sp)
    30ce:	15c12c83          	lw	s9,348(sp)
    30d2:	15812d03          	lw	s10,344(sp)
    30d6:	0ae7a823          	sw	a4,176(a5)
    30da:	4736                	lw	a4,76(sp)
    30dc:	15412d83          	lw	s11,340(sp)
    30e0:	0ae7aa23          	sw	a4,180(a5)
    30e4:	5706                	lw	a4,96(sp)
    30e6:	0ae7ac23          	sw	a4,184(a5)
    30ea:	5716                	lw	a4,100(sp)
    30ec:	0ae7ae23          	sw	a4,188(a5)
    30f0:	6119                	addi	sp,sp,384
    30f2:	8082                	ret

000030f4 <keccak_squeezeblocks.constprop.0>:
    30f4:	1141                	addi	sp,sp,-16
    30f6:	c04e                	sw	s3,0(sp)
    30f8:	89aa                	mv	s3,a0
    30fa:	852e                	mv	a0,a1
    30fc:	c426                	sw	s1,8(sp)
    30fe:	c24a                	sw	s2,4(sp)
    3100:	84ae                	mv	s1,a1
    3102:	8932                	mv	s2,a2
    3104:	c606                	sw	ra,12(sp)
    3106:	e38fe0ef          	jal	ra,173e <KeccakF1600_StatePermute>
    310a:	ff897e93          	andi	t4,s2,-8
    310e:	87ce                	mv	a5,s3
    3110:	8626                	mv	a2,s1
    3112:	9ece                	add	t4,t4,s3
    3114:	4214                	lw	a3,0(a2)
    3116:	4258                	lw	a4,4(a2)
    3118:	07a1                	addi	a5,a5,8
    311a:	0086de13          	srli	t3,a3,0x8
    311e:	0106d313          	srli	t1,a3,0x10
    3122:	0186d893          	srli	a7,a3,0x18
    3126:	00875813          	srli	a6,a4,0x8
    312a:	01075513          	srli	a0,a4,0x10
    312e:	01875593          	srli	a1,a4,0x18
    3132:	ffc78ca3          	sb	t3,-7(a5)
    3136:	fe678d23          	sb	t1,-6(a5)
    313a:	ff178da3          	sb	a7,-5(a5)
    313e:	ff078ea3          	sb	a6,-3(a5)
    3142:	fea78f23          	sb	a0,-2(a5)
    3146:	feb78fa3          	sb	a1,-1(a5)
    314a:	fed78c23          	sb	a3,-8(a5)
    314e:	fee78e23          	sb	a4,-4(a5)
    3152:	0621                	addi	a2,a2,8
    3154:	fcfe90e3          	bne	t4,a5,3114 <keccak_squeezeblocks.constprop.0+0x20>
    3158:	40b2                	lw	ra,12(sp)
    315a:	44a2                	lw	s1,8(sp)
    315c:	4912                	lw	s2,4(sp)
    315e:	4982                	lw	s3,0(sp)
    3160:	0141                	addi	sp,sp,16
    3162:	8082                	ret

00003164 <sha3_512>:
    3164:	7125                	addi	sp,sp,-416
    3166:	18912c23          	sw	s1,408(sp)
    316a:	19212a23          	sw	s2,404(sp)
    316e:	19312823          	sw	s3,400(sp)
    3172:	8932                	mv	s2,a2
    3174:	89ae                	mv	s3,a1
    3176:	0c800613          	li	a2,200
    317a:	4581                	li	a1,0
    317c:	84aa                	mv	s1,a0
    317e:	850a                	mv	a0,sp
    3180:	18112e23          	sw	ra,412(sp)
    3184:	585010ef          	jal	ra,4f08 <memset>
    3188:	04800613          	li	a2,72
    318c:	4581                	li	a1,0
    318e:	01a8                	addi	a0,sp,200
    3190:	579010ef          	jal	ra,4f08 <memset>
    3194:	864a                	mv	a2,s2
    3196:	85ce                	mv	a1,s3
    3198:	01a8                	addi	a0,sp,200
    319a:	3b9020ef          	jal	ra,5d52 <memcpy>
    319e:	19090793          	addi	a5,s2,400
    31a2:	00278933          	add	s2,a5,sp
    31a6:	4799                	li	a5,6
    31a8:	f2f90c23          	sb	a5,-200(s2)
    31ac:	10f14703          	lbu	a4,271(sp)
    31b0:	01bc                	addi	a5,sp,200
    31b2:	868a                	mv	a3,sp
    31b4:	f8076713          	ori	a4,a4,-128
    31b8:	10e107a3          	sb	a4,271(sp)
    31bc:	11010f13          	addi	t5,sp,272
    31c0:	0017c703          	lbu	a4,1(a5)
    31c4:	0027ce03          	lbu	t3,2(a5)
    31c8:	0057c803          	lbu	a6,5(a5)
    31cc:	0047cf83          	lbu	t6,4(a5)
    31d0:	0067c503          	lbu	a0,6(a5)
    31d4:	0007ce83          	lbu	t4,0(a5)
    31d8:	0037c583          	lbu	a1,3(a5)
    31dc:	0077c603          	lbu	a2,7(a5)
    31e0:	0722                	slli	a4,a4,0x8
    31e2:	0e42                	slli	t3,t3,0x10
    31e4:	0822                	slli	a6,a6,0x8
    31e6:	0006a303          	lw	t1,0(a3)
    31ea:	0046a883          	lw	a7,4(a3)
    31ee:	01c76733          	or	a4,a4,t3
    31f2:	01f86833          	or	a6,a6,t6
    31f6:	0542                	slli	a0,a0,0x10
    31f8:	01d76733          	or	a4,a4,t4
    31fc:	0662                	slli	a2,a2,0x18
    31fe:	05e2                	slli	a1,a1,0x18
    3200:	01056533          	or	a0,a0,a6
    3204:	8dd9                	or	a1,a1,a4
    3206:	00a66733          	or	a4,a2,a0
    320a:	00e8c733          	xor	a4,a7,a4
    320e:	00b34633          	xor	a2,t1,a1
    3212:	c290                	sw	a2,0(a3)
    3214:	c2d8                	sw	a4,4(a3)
    3216:	07a1                	addi	a5,a5,8
    3218:	06a1                	addi	a3,a3,8
    321a:	faff13e3          	bne	t5,a5,31c0 <sha3_512+0x5c>
    321e:	858a                	mv	a1,sp
    3220:	01a8                	addi	a0,sp,200
    3222:	04800613          	li	a2,72
    3226:	35f9                	jal	30f4 <keccak_squeezeblocks.constprop.0>
    3228:	01ac                	addi	a1,sp,200
    322a:	8526                	mv	a0,s1
    322c:	04000613          	li	a2,64
    3230:	323020ef          	jal	ra,5d52 <memcpy>
    3234:	19c12083          	lw	ra,412(sp)
    3238:	19812483          	lw	s1,408(sp)
    323c:	19412903          	lw	s2,404(sp)
    3240:	19012983          	lw	s3,400(sp)
    3244:	611d                	addi	sp,sp,416
    3246:	8082                	ret

00003248 <randombytes>:
    3248:	715d                	addi	sp,sp,-80
    324a:	00b50733          	add	a4,a0,a1
    324e:	c83a                	sw	a4,16(sp)
    3250:	00081737          	lui	a4,0x81
    3254:	dc5a                	sw	s6,56(sp)
    3256:	82870b13          	addi	s6,a4,-2008 # 80828 <out>
    325a:	00080737          	lui	a4,0x80
    325e:	de56                	sw	s5,60(sp)
    3260:	7f870a93          	addi	s5,a4,2040 # 807f8 <in>
    3264:	e377a737          	lui	a4,0xe377a
    3268:	b9070713          	addi	a4,a4,-1136 # e3779b90 <_sp+0xe36992b0>
    326c:	000807b7          	lui	a5,0x80
    3270:	c63a                	sw	a4,12(sp)
    3272:	1c886737          	lui	a4,0x1c886
    3276:	6e478793          	addi	a5,a5,1764 # 806e4 <outleft>
    327a:	47070713          	addi	a4,a4,1136 # 1c886470 <_sp+0x1c7a5b90>
    327e:	ca3e                	sw	a5,20(sp)
    3280:	cc3a                	sw	a4,24(sp)
    3282:	439c                	lw	a5,0(a5)
    3284:	aa66d737          	lui	a4,0xaa66d
    3288:	c2ce                	sw	s3,68(sp)
    328a:	2b070713          	addi	a4,a4,688 # aa66d2b0 <_sp+0xaa58c9d0>
    328e:	9e3789b7          	lui	s3,0x9e378
    3292:	da5e                	sw	s7,52(sp)
    3294:	c6a6                	sw	s1,76(sp)
    3296:	c4ca                	sw	s2,72(sp)
    3298:	c0d2                	sw	s4,64(sp)
    329a:	d862                	sw	s8,48(sp)
    329c:	d666                	sw	s9,44(sp)
    329e:	d46a                	sw	s10,40(sp)
    32a0:	d26e                	sw	s11,36(sp)
    32a2:	8baa                	mv	s7,a0
    32a4:	9b998993          	addi	s3,s3,-1607 # 9e3779b9 <_sp+0x9e2970d9>
    32a8:	ce3a                	sw	a4,28(sp)
    32aa:	cf85                	beqz	a5,32e2 <randombytes+0x9a>
    32ac:	17fd                	addi	a5,a5,-1
    32ae:	00279713          	slli	a4,a5,0x2
    32b2:	975a                	add	a4,a4,s6
    32b4:	00072a03          	lw	s4,0(a4)
    32b8:	4752                	lw	a4,20(sp)
    32ba:	014b8023          	sb	s4,0(s7)
    32be:	0b85                	addi	s7,s7,1
    32c0:	c31c                	sw	a5,0(a4)
    32c2:	4742                	lw	a4,16(sp)
    32c4:	feeb93e3          	bne	s7,a4,32aa <randombytes+0x62>
    32c8:	44b6                	lw	s1,76(sp)
    32ca:	4926                	lw	s2,72(sp)
    32cc:	4996                	lw	s3,68(sp)
    32ce:	4a06                	lw	s4,64(sp)
    32d0:	5af2                	lw	s5,60(sp)
    32d2:	5b62                	lw	s6,56(sp)
    32d4:	5bd2                	lw	s7,52(sp)
    32d6:	5c42                	lw	s8,48(sp)
    32d8:	5cb2                	lw	s9,44(sp)
    32da:	5d22                	lw	s10,40(sp)
    32dc:	5d92                	lw	s11,36(sp)
    32de:	6161                	addi	sp,sp,80
    32e0:	8082                	ret
    32e2:	000aa683          	lw	a3,0(s5)
    32e6:	004aaf03          	lw	t5,4(s5)
    32ea:	0685                	addi	a3,a3,1
    32ec:	00daa023          	sw	a3,0(s5)
    32f0:	e28d                	bnez	a3,3312 <randombytes+0xca>
    32f2:	0f05                	addi	t5,t5,1
    32f4:	01eaa223          	sw	t5,4(s5)
    32f8:	008aa783          	lw	a5,8(s5)
    32fc:	00caa703          	lw	a4,12(s5)
    3300:	000f1963          	bnez	t5,3312 <randombytes+0xca>
    3304:	0785                	addi	a5,a5,1
    3306:	00faa423          	sw	a5,8(s5)
    330a:	e781                	bnez	a5,3312 <randombytes+0xca>
    330c:	0705                	addi	a4,a4,1
    330e:	00eaa623          	sw	a4,12(s5)
    3312:	4789                	li	a5,2
    3314:	008aa283          	lw	t0,8(s5)
    3318:	00caaf83          	lw	t6,12(s5)
    331c:	010aae83          	lw	t4,16(s5)
    3320:	014aae03          	lw	t3,20(s5)
    3324:	018aa303          	lw	t1,24(s5)
    3328:	01caa883          	lw	a7,28(s5)
    332c:	020aa803          	lw	a6,32(s5)
    3330:	024aa503          	lw	a0,36(s5)
    3334:	028aa583          	lw	a1,40(s5)
    3338:	02caa603          	lw	a2,44(s5)
    333c:	c03e                	sw	a5,0(sp)
    333e:	4932                	lw	s2,12(sp)
    3340:	478d                	li	a5,3
    3342:	c43e                	sw	a5,8(sp)
    3344:	47a1                	li	a5,8
    3346:	0096c693          	xori	a3,a3,9
    334a:	007f4f13          	xori	t5,t5,7
    334e:	0092c293          	xori	t0,t0,9
    3352:	003fcf93          	xori	t6,t6,3
    3356:	002ece93          	xori	t4,t4,2
    335a:	003e4e13          	xori	t3,t3,3
    335e:	00834313          	xori	t1,t1,8
    3362:	0048c893          	xori	a7,a7,4
    3366:	00684813          	xori	a6,a6,6
    336a:	00254513          	xori	a0,a0,2
    336e:	0065c593          	xori	a1,a1,6
    3372:	00464613          	xori	a2,a2,4
    3376:	4a15                	li	s4,5
    3378:	4c25                	li	s8,9
    337a:	4c9d                	li	s9,7
    337c:	c23e                	sw	a5,4(sp)
    337e:	4d0d                	li	s10,3
    3380:	4d8d                	li	s11,3
    3382:	47e2                	lw	a5,24(sp)
    3384:	97ca                	add	a5,a5,s2
    3386:	97ce                	add	a5,a5,s3
    3388:	01b65493          	srli	s1,a2,0x1b
    338c:	00364713          	xori	a4,a2,3
    3390:	00561393          	slli	t2,a2,0x5
    3394:	0093e3b3          	or	t2,t2,s1
    3398:	973e                	add	a4,a4,a5
    339a:	00774733          	xor	a4,a4,t2
    339e:	96ba                	add	a3,a3,a4
    33a0:	0196d493          	srli	s1,a3,0x19
    33a4:	0016c713          	xori	a4,a3,1
    33a8:	00769393          	slli	t2,a3,0x7
    33ac:	0093e3b3          	or	t2,t2,s1
    33b0:	973e                	add	a4,a4,a5
    33b2:	00774733          	xor	a4,a4,t2
    33b6:	9f3a                	add	t5,t5,a4
    33b8:	017f5493          	srli	s1,t5,0x17
    33bc:	004f4713          	xori	a4,t5,4
    33c0:	009f1393          	slli	t2,t5,0x9
    33c4:	0093e3b3          	or	t2,t2,s1
    33c8:	973e                	add	a4,a4,a5
    33ca:	00774733          	xor	a4,a4,t2
    33ce:	92ba                	add	t0,t0,a4
    33d0:	0132d493          	srli	s1,t0,0x13
    33d4:	0012c713          	xori	a4,t0,1
    33d8:	00d29393          	slli	t2,t0,0xd
    33dc:	0093e3b3          	or	t2,t2,s1
    33e0:	973e                	add	a4,a4,a5
    33e2:	00774733          	xor	a4,a4,t2
    33e6:	9fba                	add	t6,t6,a4
    33e8:	01bfd493          	srli	s1,t6,0x1b
    33ec:	005fc713          	xori	a4,t6,5
    33f0:	005f9393          	slli	t2,t6,0x5
    33f4:	0093e3b3          	or	t2,t2,s1
    33f8:	973e                	add	a4,a4,a5
    33fa:	00774733          	xor	a4,a4,t2
    33fe:	9eba                	add	t4,t4,a4
    3400:	019ed493          	srli	s1,t4,0x19
    3404:	009ec713          	xori	a4,t4,9
    3408:	007e9393          	slli	t2,t4,0x7
    340c:	0093e3b3          	or	t2,t2,s1
    3410:	973e                	add	a4,a4,a5
    3412:	00774733          	xor	a4,a4,t2
    3416:	9e3a                	add	t3,t3,a4
    3418:	017e5493          	srli	s1,t3,0x17
    341c:	002e4713          	xori	a4,t3,2
    3420:	009e1393          	slli	t2,t3,0x9
    3424:	0093e3b3          	or	t2,t2,s1
    3428:	973e                	add	a4,a4,a5
    342a:	00774733          	xor	a4,a4,t2
    342e:	933a                	add	t1,t1,a4
    3430:	01335493          	srli	s1,t1,0x13
    3434:	00634713          	xori	a4,t1,6
    3438:	00d31393          	slli	t2,t1,0xd
    343c:	0093e3b3          	or	t2,t2,s1
    3440:	973e                	add	a4,a4,a5
    3442:	00774733          	xor	a4,a4,t2
    3446:	98ba                	add	a7,a7,a4
    3448:	01b8d493          	srli	s1,a7,0x1b
    344c:	0058c713          	xori	a4,a7,5
    3450:	00589393          	slli	t2,a7,0x5
    3454:	0093e3b3          	or	t2,t2,s1
    3458:	973e                	add	a4,a4,a5
    345a:	00774733          	xor	a4,a4,t2
    345e:	983a                	add	a6,a6,a4
    3460:	01985493          	srli	s1,a6,0x19
    3464:	00384713          	xori	a4,a6,3
    3468:	00781393          	slli	t2,a6,0x7
    346c:	0093e3b3          	or	t2,t2,s1
    3470:	973e                	add	a4,a4,a5
    3472:	00774733          	xor	a4,a4,t2
    3476:	953a                	add	a0,a0,a4
    3478:	01755493          	srli	s1,a0,0x17
    347c:	00554713          	xori	a4,a0,5
    3480:	00951393          	slli	t2,a0,0x9
    3484:	0093e3b3          	or	t2,t2,s1
    3488:	973e                	add	a4,a4,a5
    348a:	00774733          	xor	a4,a4,t2
    348e:	95ba                	add	a1,a1,a4
    3490:	0085c713          	xori	a4,a1,8
    3494:	00d59393          	slli	t2,a1,0xd
    3498:	0135d493          	srli	s1,a1,0x13
    349c:	973e                	add	a4,a4,a5
    349e:	0093e3b3          	or	t2,t2,s1
    34a2:	00774733          	xor	a4,a4,t2
    34a6:	963a                	add	a2,a2,a4
    34a8:	ed279fe3          	bne	a5,s2,3386 <randombytes+0x13e>
    34ac:	4732                	lw	a4,12(sp)
    34ae:	01ddcdb3          	xor	s11,s11,t4
    34b2:	01cd4d33          	xor	s10,s10,t3
    34b6:	00e78933          	add	s2,a5,a4
    34ba:	4792                	lw	a5,4(sp)
    34bc:	00acccb3          	xor	s9,s9,a0
    34c0:	00bc4c33          	xor	s8,s8,a1
    34c4:	0067c7b3          	xor	a5,a5,t1
    34c8:	c23e                	sw	a5,4(sp)
    34ca:	47a2                	lw	a5,8(sp)
    34cc:	00ca4a33          	xor	s4,s4,a2
    34d0:	0117c7b3          	xor	a5,a5,a7
    34d4:	c43e                	sw	a5,8(sp)
    34d6:	4782                	lw	a5,0(sp)
    34d8:	0107c7b3          	xor	a5,a5,a6
    34dc:	c03e                	sw	a5,0(sp)
    34de:	47f2                	lw	a5,28(sp)
    34e0:	eaf911e3          	bne	s2,a5,3382 <randombytes+0x13a>
    34e4:	4792                	lw	a5,4(sp)
    34e6:	01bb2023          	sw	s11,0(s6)
    34ea:	01ab2223          	sw	s10,4(s6)
    34ee:	00fb2423          	sw	a5,8(s6)
    34f2:	47a2                	lw	a5,8(sp)
    34f4:	019b2a23          	sw	s9,20(s6)
    34f8:	018b2c23          	sw	s8,24(s6)
    34fc:	00fb2623          	sw	a5,12(s6)
    3500:	4782                	lw	a5,0(sp)
    3502:	014b2e23          	sw	s4,28(s6)
    3506:	00fb2823          	sw	a5,16(s6)
    350a:	479d                	li	a5,7
    350c:	b375                	j	32b8 <randombytes+0x70>

0000350e <keccak_absorb.constprop.0>:
    350e:	7151                	addi	sp,sp,-240
    3510:	cdd6                	sw	s5,216(sp)
    3512:	c9de                	sw	s7,208(sp)
    3514:	8ab2                	mv	s5,a2
    3516:	8bae                	mv	s7,a1
    3518:	0c800613          	li	a2,200
    351c:	4581                	li	a1,0
    351e:	d1ce                	sw	s3,224(sp)
    3520:	cfd2                	sw	s4,220(sp)
    3522:	d786                	sw	ra,236(sp)
    3524:	d5a6                	sw	s1,232(sp)
    3526:	d3ca                	sw	s2,228(sp)
    3528:	cbda                	sw	s6,212(sp)
    352a:	8a2a                	mv	s4,a0
    352c:	89b6                	mv	s3,a3
    352e:	1db010ef          	jal	ra,4f08 <memset>
    3532:	08700793          	li	a5,135
    3536:	1357fc63          	bgeu	a5,s5,366e <keccak_absorb.constprop.0+0x160>
    353a:	088b8b13          	addi	s6,s7,136
    353e:	88da                	mv	a7,s6
    3540:	08700913          	li	s2,135
    3544:	84de                	mv	s1,s7
    3546:	8752                	mv	a4,s4
    3548:	0014c783          	lbu	a5,1(s1) # 2000001 <_sp+0x1f1f721>
    354c:	0024ce03          	lbu	t3,2(s1)
    3550:	0054c503          	lbu	a0,5(s1)
    3554:	0044cf03          	lbu	t5,4(s1)
    3558:	0064c583          	lbu	a1,6(s1)
    355c:	0004ce83          	lbu	t4,0(s1)
    3560:	0034c603          	lbu	a2,3(s1)
    3564:	0074c683          	lbu	a3,7(s1)
    3568:	07a2                	slli	a5,a5,0x8
    356a:	0e42                	slli	t3,t3,0x10
    356c:	0522                	slli	a0,a0,0x8
    356e:	00072303          	lw	t1,0(a4)
    3572:	00472803          	lw	a6,4(a4)
    3576:	01c7e7b3          	or	a5,a5,t3
    357a:	01e56533          	or	a0,a0,t5
    357e:	05c2                	slli	a1,a1,0x10
    3580:	01d7e7b3          	or	a5,a5,t4
    3584:	06e2                	slli	a3,a3,0x18
    3586:	0662                	slli	a2,a2,0x18
    3588:	8dc9                	or	a1,a1,a0
    358a:	8e5d                	or	a2,a2,a5
    358c:	00b6e7b3          	or	a5,a3,a1
    3590:	00f847b3          	xor	a5,a6,a5
    3594:	00c346b3          	xor	a3,t1,a2
    3598:	c314                	sw	a3,0(a4)
    359a:	c35c                	sw	a5,4(a4)
    359c:	04a1                	addi	s1,s1,8
    359e:	0721                	addi	a4,a4,8
    35a0:	fb1494e3          	bne	s1,a7,3548 <keccak_absorb.constprop.0+0x3a>
    35a4:	8552                	mv	a0,s4
    35a6:	998fe0ef          	jal	ra,173e <KeccakF1600_StatePermute>
    35aa:	f78a8a93          	addi	s5,s5,-136
    35ae:	8bda                	mv	s7,s6
    35b0:	08848893          	addi	a7,s1,136
    35b4:	01597563          	bgeu	s2,s5,35be <keccak_absorb.constprop.0+0xb0>
    35b8:	088b0b13          	addi	s6,s6,136
    35bc:	b761                	j	3544 <keccak_absorb.constprop.0+0x36>
    35be:	003c                	addi	a5,sp,8
    35c0:	853e                	mv	a0,a5
    35c2:	08800613          	li	a2,136
    35c6:	4581                	li	a1,0
    35c8:	141010ef          	jal	ra,4f08 <memset>
    35cc:	87aa                	mv	a5,a0
    35ce:	000a8863          	beqz	s5,35de <keccak_absorb.constprop.0+0xd0>
    35d2:	853e                	mv	a0,a5
    35d4:	8656                	mv	a2,s5
    35d6:	85de                	mv	a1,s7
    35d8:	77a020ef          	jal	ra,5d52 <memcpy>
    35dc:	87aa                	mv	a5,a0
    35de:	0d0a8713          	addi	a4,s5,208
    35e2:	00270ab3          	add	s5,a4,sp
    35e6:	f33a8c23          	sb	s3,-200(s5)
    35ea:	08f14703          	lbu	a4,143(sp)
    35ee:	09010e93          	addi	t4,sp,144
    35f2:	f8076713          	ori	a4,a4,-128
    35f6:	08e107a3          	sb	a4,143(sp)
    35fa:	0017c703          	lbu	a4,1(a5)
    35fe:	0027c303          	lbu	t1,2(a5)
    3602:	0057c503          	lbu	a0,5(a5)
    3606:	0047cf03          	lbu	t5,4(a5)
    360a:	0067c583          	lbu	a1,6(a5)
    360e:	0007ce03          	lbu	t3,0(a5)
    3612:	0037c603          	lbu	a2,3(a5)
    3616:	0077c683          	lbu	a3,7(a5)
    361a:	0722                	slli	a4,a4,0x8
    361c:	0342                	slli	t1,t1,0x10
    361e:	0522                	slli	a0,a0,0x8
    3620:	000a2883          	lw	a7,0(s4) # 80000000 <_sp+0x7ff1f720>
    3624:	004a2803          	lw	a6,4(s4)
    3628:	00676733          	or	a4,a4,t1
    362c:	01e56533          	or	a0,a0,t5
    3630:	05c2                	slli	a1,a1,0x10
    3632:	01c76733          	or	a4,a4,t3
    3636:	06e2                	slli	a3,a3,0x18
    3638:	0662                	slli	a2,a2,0x18
    363a:	8dc9                	or	a1,a1,a0
    363c:	8e59                	or	a2,a2,a4
    363e:	00b6e733          	or	a4,a3,a1
    3642:	00e84733          	xor	a4,a6,a4
    3646:	00c8c6b3          	xor	a3,a7,a2
    364a:	00da2023          	sw	a3,0(s4)
    364e:	00ea2223          	sw	a4,4(s4)
    3652:	07a1                	addi	a5,a5,8
    3654:	0a21                	addi	s4,s4,8
    3656:	fafe92e3          	bne	t4,a5,35fa <keccak_absorb.constprop.0+0xec>
    365a:	50be                	lw	ra,236(sp)
    365c:	54ae                	lw	s1,232(sp)
    365e:	591e                	lw	s2,228(sp)
    3660:	598e                	lw	s3,224(sp)
    3662:	4a7e                	lw	s4,220(sp)
    3664:	4aee                	lw	s5,216(sp)
    3666:	4b5e                	lw	s6,212(sp)
    3668:	4bce                	lw	s7,208(sp)
    366a:	616d                	addi	sp,sp,240
    366c:	8082                	ret
    366e:	003c                	addi	a5,sp,8
    3670:	853e                	mv	a0,a5
    3672:	08800613          	li	a2,136
    3676:	4581                	li	a1,0
    3678:	091010ef          	jal	ra,4f08 <memset>
    367c:	87aa                	mv	a5,a0
    367e:	bf91                	j	35d2 <keccak_absorb.constprop.0+0xc4>

00003680 <sha3_256.constprop.0>:
    3680:	710d                	addi	sp,sp,-352
    3682:	14912c23          	sw	s1,344(sp)
    3686:	4699                	li	a3,6
    3688:	84aa                	mv	s1,a0
    368a:	62000613          	li	a2,1568
    368e:	0128                	addi	a0,sp,136
    3690:	14112e23          	sw	ra,348(sp)
    3694:	3dad                	jal	350e <keccak_absorb.constprop.0>
    3696:	012c                	addi	a1,sp,136
    3698:	850a                	mv	a0,sp
    369a:	08800613          	li	a2,136
    369e:	3c99                	jal	30f4 <keccak_squeezeblocks.constprop.0>
    36a0:	858a                	mv	a1,sp
    36a2:	8526                	mv	a0,s1
    36a4:	02000613          	li	a2,32
    36a8:	6aa020ef          	jal	ra,5d52 <memcpy>
    36ac:	15c12083          	lw	ra,348(sp)
    36b0:	15812483          	lw	s1,344(sp)
    36b4:	6135                	addi	sp,sp,352
    36b6:	8082                	ret

000036b8 <keccak_absorb.constprop.1>:
    36b8:	7115                	addi	sp,sp,-224
    36ba:	cda6                	sw	s1,216(sp)
    36bc:	0c800613          	li	a2,200
    36c0:	84ae                	mv	s1,a1
    36c2:	4581                	li	a1,0
    36c4:	cf86                	sw	ra,220(sp)
    36c6:	cbca                	sw	s2,212(sp)
    36c8:	892a                	mv	s2,a0
    36ca:	03f010ef          	jal	ra,4f08 <memset>
    36ce:	08700613          	li	a2,135
    36d2:	4581                	li	a1,0
    36d4:	1028                	addi	a0,sp,40
    36d6:	033010ef          	jal	ra,4f08 <memset>
    36da:	02200613          	li	a2,34
    36de:	85a6                	mv	a1,s1
    36e0:	0028                	addi	a0,sp,8
    36e2:	670020ef          	jal	ra,5d52 <memcpy>
    36e6:	47fd                	li	a5,31
    36e8:	02f10523          	sb	a5,42(sp)
    36ec:	f8000793          	li	a5,-128
    36f0:	0af107a3          	sb	a5,175(sp)
    36f4:	86ca                	mv	a3,s2
    36f6:	003c                	addi	a5,sp,8
    36f8:	0b010f13          	addi	t5,sp,176
    36fc:	0017c703          	lbu	a4,1(a5)
    3700:	0027ce03          	lbu	t3,2(a5)
    3704:	0057c803          	lbu	a6,5(a5)
    3708:	0047cf83          	lbu	t6,4(a5)
    370c:	0067c503          	lbu	a0,6(a5)
    3710:	0007ce83          	lbu	t4,0(a5)
    3714:	0037c583          	lbu	a1,3(a5)
    3718:	0077c603          	lbu	a2,7(a5)
    371c:	0722                	slli	a4,a4,0x8
    371e:	0e42                	slli	t3,t3,0x10
    3720:	0822                	slli	a6,a6,0x8
    3722:	0006a303          	lw	t1,0(a3)
    3726:	0046a883          	lw	a7,4(a3)
    372a:	01c76733          	or	a4,a4,t3
    372e:	01f86833          	or	a6,a6,t6
    3732:	0542                	slli	a0,a0,0x10
    3734:	01d76733          	or	a4,a4,t4
    3738:	0662                	slli	a2,a2,0x18
    373a:	05e2                	slli	a1,a1,0x18
    373c:	01056533          	or	a0,a0,a6
    3740:	8dd9                	or	a1,a1,a4
    3742:	00a66733          	or	a4,a2,a0
    3746:	00e8c733          	xor	a4,a7,a4
    374a:	00b34633          	xor	a2,t1,a1
    374e:	c290                	sw	a2,0(a3)
    3750:	c2d8                	sw	a4,4(a3)
    3752:	07a1                	addi	a5,a5,8
    3754:	06a1                	addi	a3,a3,8
    3756:	faff13e3          	bne	t5,a5,36fc <keccak_absorb.constprop.1+0x44>
    375a:	40fe                	lw	ra,220(sp)
    375c:	44ee                	lw	s1,216(sp)
    375e:	495e                	lw	s2,212(sp)
    3760:	612d                	addi	sp,sp,224
    3762:	8082                	ret

00003764 <keccak_inc_absorb.constprop.0>:
    3764:	0c852783          	lw	a5,200(a0)
    3768:	1101                	addi	sp,sp,-32
    376a:	c652                	sw	s4,12(sp)
    376c:	8a32                	mv	s4,a2
    376e:	0cc52603          	lw	a2,204(a0)
    3772:	00fa06b3          	add	a3,s4,a5
    3776:	0146b733          	sltu	a4,a3,s4
    377a:	ca4a                	sw	s2,20(sp)
    377c:	c84e                	sw	s3,16(sp)
    377e:	ce06                	sw	ra,28(sp)
    3780:	cc26                	sw	s1,24(sp)
    3782:	c456                	sw	s5,8(sp)
    3784:	c25a                	sw	s6,4(sp)
    3786:	9732                	add	a4,a4,a2
    3788:	892a                	mv	s2,a0
    378a:	89ae                	mv	s3,a1
    378c:	16070863          	beqz	a4,38fc <keccak_inc_absorb.constprop.0+0x198>
    3790:	08800a93          	li	s5,136
    3794:	4b7d                	li	s6,31
    3796:	08700493          	li	s1,135
    379a:	4701                	li	a4,0
    379c:	03579763          	bne	a5,s5,37ca <keccak_inc_absorb.constprop.0+0x66>
    37a0:	a085                	j	3800 <keccak_inc_absorb.constprop.0+0x9c>
    37a2:	01089833          	sll	a6,a7,a6
    37a6:	4881                	li	a7,0
    37a8:	0007a303          	lw	t1,0(a5)
    37ac:	43d4                	lw	a3,4(a5)
    37ae:	0705                	addi	a4,a4,1
    37b0:	011348b3          	xor	a7,t1,a7
    37b4:	0106c6b3          	xor	a3,a3,a6
    37b8:	c3d4                	sw	a3,4(a5)
    37ba:	0117a023          	sw	a7,0(a5)
    37be:	0c892783          	lw	a5,200(s2)
    37c2:	40fa86b3          	sub	a3,s5,a5
    37c6:	02d77963          	bgeu	a4,a3,37f8 <keccak_inc_absorb.constprop.0+0x94>
    37ca:	97ba                	add	a5,a5,a4
    37cc:	0077f693          	andi	a3,a5,7
    37d0:	068e                	slli	a3,a3,0x3
    37d2:	00e98633          	add	a2,s3,a4
    37d6:	9be1                	andi	a5,a5,-8
    37d8:	fe068813          	addi	a6,a3,-32
    37dc:	00064883          	lbu	a7,0(a2)
    37e0:	40db05b3          	sub	a1,s6,a3
    37e4:	97ca                	add	a5,a5,s2
    37e6:	fa085ee3          	bgez	a6,37a2 <keccak_inc_absorb.constprop.0+0x3e>
    37ea:	0018d813          	srli	a6,a7,0x1
    37ee:	00b85833          	srl	a6,a6,a1
    37f2:	00d898b3          	sll	a7,a7,a3
    37f6:	bf4d                	j	37a8 <keccak_inc_absorb.constprop.0+0x44>
    37f8:	f7878793          	addi	a5,a5,-136
    37fc:	9a3e                	add	s4,s4,a5
    37fe:	99b6                	add	s3,s3,a3
    3800:	4781                	li	a5,0
    3802:	4801                	li	a6,0
    3804:	0cf92423          	sw	a5,200(s2)
    3808:	0d092623          	sw	a6,204(s2)
    380c:	854a                	mv	a0,s2
    380e:	f31fd0ef          	jal	ra,173e <KeccakF1600_StatePermute>
    3812:	0c892703          	lw	a4,200(s2)
    3816:	0cc92603          	lw	a2,204(s2)
    381a:	00ea05b3          	add	a1,s4,a4
    381e:	0145b6b3          	sltu	a3,a1,s4
    3822:	96b2                	add	a3,a3,a2
    3824:	87ba                	mv	a5,a4
    3826:	fab5                	bnez	a3,379a <keccak_inc_absorb.constprop.0+0x36>
    3828:	f6b4e9e3          	bltu	s1,a1,379a <keccak_inc_absorb.constprop.0+0x36>
    382c:	080a0e63          	beqz	s4,38c8 <keccak_inc_absorb.constprop.0+0x164>
    3830:	00777693          	andi	a3,a4,7
    3834:	068e                	slli	a3,a3,0x3
    3836:	ff877793          	andi	a5,a4,-8
    383a:	fe068713          	addi	a4,a3,-32
    383e:	0009c603          	lbu	a2,0(s3)
    3842:	97ca                	add	a5,a5,s2
    3844:	0a074363          	bltz	a4,38ea <keccak_inc_absorb.constprop.0+0x186>
    3848:	00e61733          	sll	a4,a2,a4
    384c:	4601                	li	a2,0
    384e:	438c                	lw	a1,0(a5)
    3850:	43d4                	lw	a3,4(a5)
    3852:	4505                	li	a0,1
    3854:	8e2d                	xor	a2,a2,a1
    3856:	8f35                	xor	a4,a4,a3
    3858:	c390                	sw	a2,0(a5)
    385a:	c3d8                	sw	a4,4(a5)
    385c:	06aa0263          	beq	s4,a0,38c0 <keccak_inc_absorb.constprop.0+0x15c>
    3860:	4705                	li	a4,1
    3862:	48fd                	li	a7,31
    3864:	a829                	j	387e <keccak_inc_absorb.constprop.0+0x11a>
    3866:	4388                	lw	a0,0(a5)
    3868:	43d4                	lw	a3,4(a5)
    386a:	00b615b3          	sll	a1,a2,a1
    386e:	4601                	li	a2,0
    3870:	8e29                	xor	a2,a2,a0
    3872:	8ead                	xor	a3,a3,a1
    3874:	0705                	addi	a4,a4,1
    3876:	c390                	sw	a2,0(a5)
    3878:	c3d4                	sw	a3,4(a5)
    387a:	05477363          	bgeu	a4,s4,38c0 <keccak_inc_absorb.constprop.0+0x15c>
    387e:	0c892783          	lw	a5,200(s2)
    3882:	00e986b3          	add	a3,s3,a4
    3886:	0006c603          	lbu	a2,0(a3)
    388a:	97ba                	add	a5,a5,a4
    388c:	0077f693          	andi	a3,a5,7
    3890:	068e                	slli	a3,a3,0x3
    3892:	9be1                	andi	a5,a5,-8
    3894:	fe068593          	addi	a1,a3,-32
    3898:	00165813          	srli	a6,a2,0x1
    389c:	40d88533          	sub	a0,a7,a3
    38a0:	97ca                	add	a5,a5,s2
    38a2:	fc05d2e3          	bgez	a1,3866 <keccak_inc_absorb.constprop.0+0x102>
    38a6:	00a855b3          	srl	a1,a6,a0
    38aa:	00d61633          	sll	a2,a2,a3
    38ae:	4388                	lw	a0,0(a5)
    38b0:	43d4                	lw	a3,4(a5)
    38b2:	0705                	addi	a4,a4,1
    38b4:	8e29                	xor	a2,a2,a0
    38b6:	8ead                	xor	a3,a3,a1
    38b8:	c390                	sw	a2,0(a5)
    38ba:	c3d4                	sw	a3,4(a5)
    38bc:	fd4761e3          	bltu	a4,s4,387e <keccak_inc_absorb.constprop.0+0x11a>
    38c0:	0c892703          	lw	a4,200(s2)
    38c4:	0cc92603          	lw	a2,204(s2)
    38c8:	9a3a                	add	s4,s4,a4
    38ca:	40f2                	lw	ra,28(sp)
    38cc:	00ea37b3          	sltu	a5,s4,a4
    38d0:	97b2                	add	a5,a5,a2
    38d2:	0d492423          	sw	s4,200(s2)
    38d6:	0cf92623          	sw	a5,204(s2)
    38da:	44e2                	lw	s1,24(sp)
    38dc:	4952                	lw	s2,20(sp)
    38de:	49c2                	lw	s3,16(sp)
    38e0:	4a32                	lw	s4,12(sp)
    38e2:	4aa2                	lw	s5,8(sp)
    38e4:	4b12                	lw	s6,4(sp)
    38e6:	6105                	addi	sp,sp,32
    38e8:	8082                	ret
    38ea:	45fd                	li	a1,31
    38ec:	00165713          	srli	a4,a2,0x1
    38f0:	8d95                	sub	a1,a1,a3
    38f2:	00b75733          	srl	a4,a4,a1
    38f6:	00d61633          	sll	a2,a2,a3
    38fa:	bf91                	j	384e <keccak_inc_absorb.constprop.0+0xea>
    38fc:	08700713          	li	a4,135
    3900:	e8d768e3          	bltu	a4,a3,3790 <keccak_inc_absorb.constprop.0+0x2c>
    3904:	0005c503          	lbu	a0,0(a1)
    3908:	ff87f493          	andi	s1,a5,-8
    390c:	8b9d                	andi	a5,a5,7
    390e:	00379613          	slli	a2,a5,0x3
    3912:	4581                	li	a1,0
    3914:	7f9020ef          	jal	ra,690c <__ashldi3>
    3918:	94ca                	add	s1,s1,s2
    391a:	4098                	lw	a4,0(s1)
    391c:	40dc                	lw	a5,4(s1)
    391e:	8f29                	xor	a4,a4,a0
    3920:	8fad                	xor	a5,a5,a1
    3922:	c098                	sw	a4,0(s1)
    3924:	c0dc                	sw	a5,4(s1)
    3926:	bf2d                	j	3860 <keccak_inc_absorb.constprop.0+0xfc>

00003928 <print_exc_msg>:
    3928:	85aa                	mv	a1,a0
    392a:	00080537          	lui	a0,0x80
    392e:	1141                	addi	sp,sp,-16
    3930:	0b850513          	addi	a0,a0,184 # 800b8 <no_exception_handler_msg+0x23>
    3934:	c606                	sw	ra,12(sp)
    3936:	46a020ef          	jal	ra,5da0 <iprintf>
    393a:	343025f3          	csrr	a1,mtval
    393e:	00080537          	lui	a0,0x80
    3942:	0bc50513          	addi	a0,a0,188 # 800bc <no_exception_handler_msg+0x27>
    3946:	45a020ef          	jal	ra,5da0 <iprintf>
    394a:	a001                	j	394a <print_exc_msg+0x22>

0000394c <PQCLEAN_KYBER1024_CLEAN_poly_getnoise_eta1>:
    394c:	714d                	addi	sp,sp,-336
    394e:	14912423          	sw	s1,328(sp)
    3952:	15212223          	sw	s2,324(sp)
    3956:	84b2                	mv	s1,a2
    3958:	892a                	mv	s2,a0
    395a:	02000613          	li	a2,32
    395e:	0048                	addi	a0,sp,4
    3960:	14112623          	sw	ra,332(sp)
    3964:	15312023          	sw	s3,320(sp)
    3968:	13412e23          	sw	s4,316(sp)
    396c:	13512c23          	sw	s5,312(sp)
    3970:	3e2020ef          	jal	ra,5d52 <memcpy>
    3974:	0c800513          	li	a0,200
    3978:	02910223          	sb	s1,36(sp)
    397c:	3be020ef          	jal	ra,5d3a <malloc>
    3980:	1a050e63          	beqz	a0,3b3c <testvectors.c.fa22bb2a+0xb5>
    3984:	004c                	addi	a1,sp,4
    3986:	46fd                	li	a3,31
    3988:	02100613          	li	a2,33
    398c:	89aa                	mv	s3,a0
    398e:	3641                	jal	350e <keccak_absorb.constprop.0>
    3990:	854e                	mv	a0,s3
    3992:	dadfd0ef          	jal	ra,173e <KeccakF1600_StatePermute>
    3996:	1124                	addi	s1,sp,168
    3998:	7341                	lui	t1,0xffff0
    399a:	ff0108b7          	lui	a7,0xff010
    399e:	01000837          	lui	a6,0x1000
    39a2:	854e                	mv	a0,s3
    39a4:	85a6                	mv	a1,s1
    39a6:	13010e13          	addi	t3,sp,304
    39aa:	0ff30313          	addi	t1,t1,255 # ffff00ff <_sp+0xfff0f81f>
    39ae:	18fd                	addi	a7,a7,-1
    39b0:	187d                	addi	a6,a6,-1
    39b2:	4110                	lw	a2,0(a0)
    39b4:	4154                	lw	a3,4(a0)
    39b6:	05a1                	addi	a1,a1,8
    39b8:	00865f13          	srli	t5,a2,0x8
    39bc:	0086de93          	srli	t4,a3,0x8
    39c0:	0ff67713          	zext.b	a4,a2
    39c4:	0ff6f793          	zext.b	a5,a3
    39c8:	0fff7f13          	zext.b	t5,t5
    39cc:	0ffefe93          	zext.b	t4,t4
    39d0:	0f22                	slli	t5,t5,0x8
    39d2:	0ea2                	slli	t4,t4,0x8
    39d4:	00677733          	and	a4,a4,t1
    39d8:	0067f7b3          	and	a5,a5,t1
    39dc:	01e76733          	or	a4,a4,t5
    39e0:	01d7e7b3          	or	a5,a5,t4
    39e4:	00ff0f37          	lui	t5,0xff0
    39e8:	00ff0eb7          	lui	t4,0xff0
    39ec:	01e67f33          	and	t5,a2,t5
    39f0:	01d6feb3          	and	t4,a3,t4
    39f4:	01177733          	and	a4,a4,a7
    39f8:	0117f7b3          	and	a5,a5,a7
    39fc:	01e76733          	or	a4,a4,t5
    3a00:	8261                	srli	a2,a2,0x18
    3a02:	01d7e7b3          	or	a5,a5,t4
    3a06:	82e1                	srli	a3,a3,0x18
    3a08:	0662                	slli	a2,a2,0x18
    3a0a:	01077733          	and	a4,a4,a6
    3a0e:	06e2                	slli	a3,a3,0x18
    3a10:	0107f7b3          	and	a5,a5,a6
    3a14:	8f51                	or	a4,a4,a2
    3a16:	8fd5                	or	a5,a5,a3
    3a18:	fee5ac23          	sw	a4,-8(a1)
    3a1c:	fef5ae23          	sw	a5,-4(a1)
    3a20:	0521                	addi	a0,a0,8
    3a22:	f8be18e3          	bne	t3,a1,39b2 <PQCLEAN_KYBER1024_CLEAN_poly_getnoise_eta1+0x66>
    3a26:	87a6                	mv	a5,s1
    3a28:	1038                	addi	a4,sp,40
    3a2a:	12810813          	addi	a6,sp,296
    3a2e:	4388                	lw	a0,0(a5)
    3a30:	43cc                	lw	a1,4(a5)
    3a32:	4790                	lw	a2,8(a5)
    3a34:	47d4                	lw	a3,12(a5)
    3a36:	c308                	sw	a0,0(a4)
    3a38:	c34c                	sw	a1,4(a4)
    3a3a:	c710                	sw	a2,8(a4)
    3a3c:	c754                	sw	a3,12(a4)
    3a3e:	07c1                	addi	a5,a5,16
    3a40:	0741                	addi	a4,a4,16
    3a42:	ff0796e3          	bne	a5,a6,3a2e <PQCLEAN_KYBER1024_CLEAN_poly_getnoise_eta1+0xe2>
    3a46:	854e                	mv	a0,s3
    3a48:	2fe020ef          	jal	ra,5d46 <free>
    3a4c:	55555f37          	lui	t5,0x55555
    3a50:	02810e93          	addi	t4,sp,40
    3a54:	834a                	mv	t1,s2
    3a56:	555f0f13          	addi	t5,t5,1365 # 55555555 <_sp+0x55474c75>
    3a5a:	000ea703          	lw	a4,0(t4) # ff0000 <_sp+0xf0f720>
    3a5e:	0341                	addi	t1,t1,16
    3a60:	0e91                	addi	t4,t4,4
    3a62:	00175793          	srli	a5,a4,0x1
    3a66:	01e7f7b3          	and	a5,a5,t5
    3a6a:	01e77733          	and	a4,a4,t5
    3a6e:	97ba                	add	a5,a5,a4
    3a70:	0027da93          	srli	s5,a5,0x2
    3a74:	0047d813          	srli	a6,a5,0x4
    3a78:	0067da13          	srli	s4,a5,0x6
    3a7c:	0087d513          	srli	a0,a5,0x8
    3a80:	00a7d993          	srli	s3,a5,0xa
    3a84:	00c7d593          	srli	a1,a5,0xc
    3a88:	00e7d913          	srli	s2,a5,0xe
    3a8c:	0107d613          	srli	a2,a5,0x10
    3a90:	0127d393          	srli	t2,a5,0x12
    3a94:	0147d693          	srli	a3,a5,0x14
    3a98:	0167d293          	srli	t0,a5,0x16
    3a9c:	0187d713          	srli	a4,a5,0x18
    3aa0:	01a7df93          	srli	t6,a5,0x1a
    3aa4:	01c7de13          	srli	t3,a5,0x1c
    3aa8:	0037f893          	andi	a7,a5,3
    3aac:	003afa93          	andi	s5,s5,3
    3ab0:	00387813          	andi	a6,a6,3
    3ab4:	003a7a13          	andi	s4,s4,3
    3ab8:	890d                	andi	a0,a0,3
    3aba:	0039f993          	andi	s3,s3,3
    3abe:	898d                	andi	a1,a1,3
    3ac0:	00397913          	andi	s2,s2,3
    3ac4:	8a0d                	andi	a2,a2,3
    3ac6:	0033f393          	andi	t2,t2,3
    3aca:	8a8d                	andi	a3,a3,3
    3acc:	0032f293          	andi	t0,t0,3
    3ad0:	8b0d                	andi	a4,a4,3
    3ad2:	003fff93          	andi	t6,t6,3
    3ad6:	003e7e13          	andi	t3,t3,3
    3ada:	83f9                	srli	a5,a5,0x1e
    3adc:	415888b3          	sub	a7,a7,s5
    3ae0:	41480833          	sub	a6,a6,s4
    3ae4:	41350533          	sub	a0,a0,s3
    3ae8:	412585b3          	sub	a1,a1,s2
    3aec:	40760633          	sub	a2,a2,t2
    3af0:	405686b3          	sub	a3,a3,t0
    3af4:	41f70733          	sub	a4,a4,t6
    3af8:	40fe07b3          	sub	a5,t3,a5
    3afc:	ff131823          	sh	a7,-16(t1)
    3b00:	ff031923          	sh	a6,-14(t1)
    3b04:	fea31a23          	sh	a0,-12(t1)
    3b08:	feb31b23          	sh	a1,-10(t1)
    3b0c:	fec31c23          	sh	a2,-8(t1)
    3b10:	fed31d23          	sh	a3,-6(t1)
    3b14:	fee31e23          	sh	a4,-4(t1)
    3b18:	fef31f23          	sh	a5,-2(t1)
    3b1c:	f3d49fe3          	bne	s1,t4,3a5a <PQCLEAN_KYBER1024_CLEAN_poly_getnoise_eta1+0x10e>
    3b20:	14c12083          	lw	ra,332(sp)
    3b24:	14812483          	lw	s1,328(sp)
    3b28:	14412903          	lw	s2,324(sp)
    3b2c:	14012983          	lw	s3,320(sp)
    3b30:	13c12a03          	lw	s4,316(sp)
    3b34:	13812a83          	lw	s5,312(sp)
    3b38:	6171                	addi	sp,sp,336
    3b3a:	8082                	ret
    3b3c:	06f00513          	li	a0,111
    3b40:	eacfc0ef          	jal	ra,1ec <exit>

00003b44 <PQCLEAN_KYBER1024_CLEAN_gen_matrix>:
    3b44:	d7010113          	addi	sp,sp,-656
    3b48:	27812623          	sw	s8,620(sp)
    3b4c:	27912423          	sw	s9,616(sp)
    3b50:	ff010c37          	lui	s8,0xff010
    3b54:	7cc1                	lui	s9,0xffff0
    3b56:	29212223          	sw	s2,644(sp)
    3b5a:	27412e23          	sw	s4,636(sp)
    3b5e:	27512c23          	sw	s5,632(sp)
    3b62:	27b12023          	sw	s11,608(sp)
    3b66:	28112623          	sw	ra,652(sp)
    3b6a:	28912423          	sw	s1,648(sp)
    3b6e:	29312023          	sw	s3,640(sp)
    3b72:	27612a23          	sw	s6,628(sp)
    3b76:	27712823          	sw	s7,624(sp)
    3b7a:	27a12223          	sw	s10,612(sp)
    3b7e:	8aae                	mv	s5,a1
    3b80:	c232                	sw	a2,4(sp)
    3b82:	892a                	mv	s2,a0
    3b84:	4a01                	li	s4,0
    3b86:	0ffc8c93          	addi	s9,s9,255 # ffff00ff <_sp+0xfff0f81f>
    3b8a:	1c7d                	addi	s8,s8,-1
    3b8c:	10c10d93          	addi	s11,sp,268
    3b90:	01000d37          	lui	s10,0x1000
    3b94:	89ca                	mv	s3,s2
    3b96:	4481                	li	s1,0
    3b98:	0ffa7b93          	zext.b	s7,s4
    3b9c:	1d7d                	addi	s10,s10,-1
    3b9e:	0ff4f793          	zext.b	a5,s1
    3ba2:	873e                	mv	a4,a5
    3ba4:	07a2                	slli	a5,a5,0x8
    3ba6:	00fbe7b3          	or	a5,s7,a5
    3baa:	c43e                	sw	a5,8(sp)
    3bac:	4792                	lw	a5,4(sp)
    3bae:	008b9693          	slli	a3,s7,0x8
    3bb2:	00d76b33          	or	s6,a4,a3
    3bb6:	02000613          	li	a2,32
    3bba:	85d6                	mv	a1,s5
    3bbc:	28078563          	beqz	a5,3e46 <syscalls.c.140ddbb0+0x17b>
    3bc0:	0868                	addi	a0,sp,28
    3bc2:	190020ef          	jal	ra,5d52 <memcpy>
    3bc6:	47a2                	lw	a5,8(sp)
    3bc8:	0c800513          	li	a0,200
    3bcc:	02f11e23          	sh	a5,60(sp)
    3bd0:	16a020ef          	jal	ra,5d3a <malloc>
    3bd4:	8b2a                	mv	s6,a0
    3bd6:	28050763          	beqz	a0,3e64 <syscalls.c.140ddbb0+0x199>
    3bda:	086c                	addi	a1,sp,28
    3bdc:	3cf1                	jal	36b8 <keccak_absorb.constprop.1>
    3bde:	0274                	addi	a3,sp,268
    3be0:	10d0                	addi	a2,sp,100
    3be2:	855a                	mv	a0,s6
    3be4:	c636                	sw	a3,12(sp)
    3be6:	c432                	sw	a2,8(sp)
    3be8:	b57fd0ef          	jal	ra,173e <KeccakF1600_StatePermute>
    3bec:	4622                	lw	a2,8(sp)
    3bee:	46b2                	lw	a3,12(sp)
    3bf0:	88da                	mv	a7,s6
    3bf2:	8532                	mv	a0,a2
    3bf4:	0cec                	addi	a1,sp,604
    3bf6:	0008ae03          	lw	t3,0(a7) # ff010000 <_sp+0xfef2f720>
    3bfa:	0048a303          	lw	t1,4(a7)
    3bfe:	0521                	addi	a0,a0,8
    3c00:	008e5f13          	srli	t5,t3,0x8
    3c04:	00835e93          	srli	t4,t1,0x8
    3c08:	0ffe7713          	zext.b	a4,t3
    3c0c:	0ff37793          	zext.b	a5,t1
    3c10:	0fff7f13          	zext.b	t5,t5
    3c14:	0ffefe93          	zext.b	t4,t4
    3c18:	0f22                	slli	t5,t5,0x8
    3c1a:	0ea2                	slli	t4,t4,0x8
    3c1c:	01977733          	and	a4,a4,s9
    3c20:	0197f7b3          	and	a5,a5,s9
    3c24:	01e76733          	or	a4,a4,t5
    3c28:	01d7e7b3          	or	a5,a5,t4
    3c2c:	00ff0f37          	lui	t5,0xff0
    3c30:	00ff0eb7          	lui	t4,0xff0
    3c34:	01ee7f33          	and	t5,t3,t5
    3c38:	01d37eb3          	and	t4,t1,t4
    3c3c:	01877733          	and	a4,a4,s8
    3c40:	0187f7b3          	and	a5,a5,s8
    3c44:	01e76733          	or	a4,a4,t5
    3c48:	018e5e13          	srli	t3,t3,0x18
    3c4c:	01d7e7b3          	or	a5,a5,t4
    3c50:	01835313          	srli	t1,t1,0x18
    3c54:	0e62                	slli	t3,t3,0x18
    3c56:	01a77733          	and	a4,a4,s10
    3c5a:	0362                	slli	t1,t1,0x18
    3c5c:	01a7f7b3          	and	a5,a5,s10
    3c60:	01c76733          	or	a4,a4,t3
    3c64:	0067e7b3          	or	a5,a5,t1
    3c68:	fee52c23          	sw	a4,-8(a0)
    3c6c:	fef52e23          	sw	a5,-4(a0)
    3c70:	08a1                	addi	a7,a7,8
    3c72:	f8a692e3          	bne	a3,a0,3bf6 <PQCLEAN_KYBER1024_CLEAN_gen_matrix+0xb2>
    3c76:	0a860613          	addi	a2,a2,168
    3c7a:	0a868693          	addi	a3,a3,168
    3c7e:	f6b612e3          	bne	a2,a1,3be2 <PQCLEAN_KYBER1024_CLEAN_gen_matrix+0x9e>
    3c82:	6505                	lui	a0,0x1
    3c84:	fff50e13          	addi	t3,a0,-1 # fff <fic_irq_gpio_1+0x7>
    3c88:	06410893          	addi	a7,sp,100
    3c8c:	4601                	li	a2,0
    3c8e:	d0050513          	addi	a0,a0,-768
    3c92:	10000313          	li	t1,256
    3c96:	0018c683          	lbu	a3,1(a7)
    3c9a:	0008ce83          	lbu	t4,0(a7)
    3c9e:	0028c783          	lbu	a5,2(a7)
    3ca2:	00869713          	slli	a4,a3,0x8
    3ca6:	01d76733          	or	a4,a4,t4
    3caa:	01c77733          	and	a4,a4,t3
    3cae:	0742                	slli	a4,a4,0x10
    3cb0:	8341                	srli	a4,a4,0x10
    3cb2:	06e56563          	bltu	a0,a4,3d1c <syscalls.c.140ddbb0+0x51>
    3cb6:	00161e93          	slli	t4,a2,0x1
    3cba:	9ece                	add	t4,t4,s3
    3cbc:	0605                	addi	a2,a2,1
    3cbe:	00ee9023          	sh	a4,0(t4) # ff0000 <_sp+0xf0f720>
    3cc2:	1a661863          	bne	a2,t1,3e72 <syscalls.c.140ddbb0+0x1a7>
    3cc6:	855a                	mv	a0,s6
    3cc8:	07e020ef          	jal	ra,5d46 <free>
    3ccc:	0485                	addi	s1,s1,1
    3cce:	4791                	li	a5,4
    3cd0:	20098993          	addi	s3,s3,512
    3cd4:	ecf495e3          	bne	s1,a5,3b9e <PQCLEAN_KYBER1024_CLEAN_gen_matrix+0x5a>
    3cd8:	6785                	lui	a5,0x1
    3cda:	80078793          	addi	a5,a5,-2048 # 800 <main+0x5ea>
    3cde:	0a05                	addi	s4,s4,1
    3ce0:	993e                	add	s2,s2,a5
    3ce2:	ea9a17e3          	bne	s4,s1,3b90 <PQCLEAN_KYBER1024_CLEAN_gen_matrix+0x4c>
    3ce6:	28c12083          	lw	ra,652(sp)
    3cea:	28812483          	lw	s1,648(sp)
    3cee:	28412903          	lw	s2,644(sp)
    3cf2:	28012983          	lw	s3,640(sp)
    3cf6:	27c12a03          	lw	s4,636(sp)
    3cfa:	27812a83          	lw	s5,632(sp)
    3cfe:	27412b03          	lw	s6,628(sp)
    3d02:	27012b83          	lw	s7,624(sp)
    3d06:	26c12c03          	lw	s8,620(sp)
    3d0a:	26812c83          	lw	s9,616(sp)
    3d0e:	26412d03          	lw	s10,612(sp)
    3d12:	26012d83          	lw	s11,608(sp)
    3d16:	29010113          	addi	sp,sp,656
    3d1a:	8082                	ret
    3d1c:	8291                	srli	a3,a3,0x4
    3d1e:	0792                	slli	a5,a5,0x4
    3d20:	8fd5                	or	a5,a5,a3
    3d22:	00f54863          	blt	a0,a5,3d32 <syscalls.c.140ddbb0+0x67>
    3d26:	00161713          	slli	a4,a2,0x1
    3d2a:	974e                	add	a4,a4,s3
    3d2c:	00f71023          	sh	a5,0(a4)
    3d30:	0605                	addi	a2,a2,1
    3d32:	f8660ae3          	beq	a2,t1,3cc6 <init.c.5e38260d+0x2d>
    3d36:	088d                	addi	a7,a7,3
    3d38:	f5159fe3          	bne	a1,a7,3c96 <PQCLEAN_KYBER1024_CLEAN_gen_matrix+0x152>
    3d3c:	855a                	mv	a0,s6
    3d3e:	c432                	sw	a2,8(sp)
    3d40:	9fffd0ef          	jal	ra,173e <KeccakF1600_StatePermute>
    3d44:	4622                	lw	a2,8(sp)
    3d46:	6785                	lui	a5,0x1
    3d48:	10c8                	addi	a0,sp,100
    3d4a:	835a                	mv	t1,s6
    3d4c:	d0078693          	addi	a3,a5,-768 # d00 <main+0xaea>
    3d50:	fff78593          	addi	a1,a5,-1
    3d54:	10000893          	li	a7,256
    3d58:	00032e83          	lw	t4,0(t1)
    3d5c:	00432e03          	lw	t3,4(t1)
    3d60:	0521                	addi	a0,a0,8
    3d62:	008edf93          	srli	t6,t4,0x8
    3d66:	008e5f13          	srli	t5,t3,0x8
    3d6a:	0ffef713          	zext.b	a4,t4
    3d6e:	0ffe7793          	zext.b	a5,t3
    3d72:	0fffff93          	zext.b	t6,t6
    3d76:	0fff7f13          	zext.b	t5,t5
    3d7a:	0fa2                	slli	t6,t6,0x8
    3d7c:	0f22                	slli	t5,t5,0x8
    3d7e:	01977733          	and	a4,a4,s9
    3d82:	0197f7b3          	and	a5,a5,s9
    3d86:	01f76733          	or	a4,a4,t6
    3d8a:	01e7e7b3          	or	a5,a5,t5
    3d8e:	00ff0fb7          	lui	t6,0xff0
    3d92:	00ff0f37          	lui	t5,0xff0
    3d96:	01feffb3          	and	t6,t4,t6
    3d9a:	01ee7f33          	and	t5,t3,t5
    3d9e:	01877733          	and	a4,a4,s8
    3da2:	0187f7b3          	and	a5,a5,s8
    3da6:	01f76733          	or	a4,a4,t6
    3daa:	018ede93          	srli	t4,t4,0x18
    3dae:	01e7e7b3          	or	a5,a5,t5
    3db2:	018e5e13          	srli	t3,t3,0x18
    3db6:	0ee2                	slli	t4,t4,0x18
    3db8:	01a77733          	and	a4,a4,s10
    3dbc:	0e62                	slli	t3,t3,0x18
    3dbe:	01a7f7b3          	and	a5,a5,s10
    3dc2:	01d76733          	or	a4,a4,t4
    3dc6:	01c7e7b3          	or	a5,a5,t3
    3dca:	fee52c23          	sw	a4,-8(a0)
    3dce:	fef52e23          	sw	a5,-4(a0)
    3dd2:	0321                	addi	t1,t1,8
    3dd4:	f8ad92e3          	bne	s11,a0,3d58 <syscalls.c.140ddbb0+0x8d>
    3dd8:	00161e93          	slli	t4,a2,0x1
    3ddc:	9ece                	add	t4,t4,s3
    3dde:	40c88e33          	sub	t3,a7,a2
    3de2:	10d8                	addi	a4,sp,100
    3de4:	4301                	li	t1,0
    3de6:	00174f03          	lbu	t5,1(a4)
    3dea:	00074f83          	lbu	t6,0(a4)
    3dee:	00274503          	lbu	a0,2(a4)
    3df2:	008f1793          	slli	a5,t5,0x8
    3df6:	01f7e7b3          	or	a5,a5,t6
    3dfa:	8fed                	and	a5,a5,a1
    3dfc:	07c2                	slli	a5,a5,0x10
    3dfe:	0512                	slli	a0,a0,0x4
    3e00:	004f5f13          	srli	t5,t5,0x4
    3e04:	83c1                	srli	a5,a5,0x10
    3e06:	01e56533          	or	a0,a0,t5
    3e0a:	02f6e063          	bltu	a3,a5,3e2a <syscalls.c.140ddbb0+0x15f>
    3e0e:	00131f13          	slli	t5,t1,0x1
    3e12:	9f76                	add	t5,t5,t4
    3e14:	0305                	addi	t1,t1,1
    3e16:	00ff1023          	sh	a5,0(t5) # ff0000 <_sp+0xf0f720>
    3e1a:	05c36963          	bltu	t1,t3,3e6c <syscalls.c.140ddbb0+0x1a1>
    3e1e:	961a                	add	a2,a2,t1
    3e20:	0ff00793          	li	a5,255
    3e24:	f0c7fce3          	bgeu	a5,a2,3d3c <syscalls.c.140ddbb0+0x71>
    3e28:	bd79                	j	3cc6 <init.c.5e38260d+0x2d>
    3e2a:	00a6c863          	blt	a3,a0,3e3a <syscalls.c.140ddbb0+0x16f>
    3e2e:	00131793          	slli	a5,t1,0x1
    3e32:	97f6                	add	a5,a5,t4
    3e34:	00a79023          	sh	a0,0(a5)
    3e38:	0305                	addi	t1,t1,1
    3e3a:	ffc372e3          	bgeu	t1,t3,3e1e <syscalls.c.140ddbb0+0x153>
    3e3e:	070d                	addi	a4,a4,3
    3e40:	faed93e3          	bne	s11,a4,3de6 <syscalls.c.140ddbb0+0x11b>
    3e44:	bfe9                	j	3e1e <syscalls.c.140ddbb0+0x153>
    3e46:	0088                	addi	a0,sp,64
    3e48:	70b010ef          	jal	ra,5d52 <memcpy>
    3e4c:	0c800513          	li	a0,200
    3e50:	07611023          	sh	s6,96(sp)
    3e54:	6e7010ef          	jal	ra,5d3a <malloc>
    3e58:	8b2a                	mv	s6,a0
    3e5a:	c509                	beqz	a0,3e64 <syscalls.c.140ddbb0+0x199>
    3e5c:	008c                	addi	a1,sp,64
    3e5e:	85bff0ef          	jal	ra,36b8 <keccak_absorb.constprop.1>
    3e62:	bbb5                	j	3bde <PQCLEAN_KYBER1024_CLEAN_gen_matrix+0x9a>
    3e64:	06f00513          	li	a0,111
    3e68:	b84fc0ef          	jal	ra,1ec <exit>
    3e6c:	fca6d1e3          	bge	a3,a0,3e2e <syscalls.c.140ddbb0+0x163>
    3e70:	b7f9                	j	3e3e <syscalls.c.140ddbb0+0x173>
    3e72:	8291                	srli	a3,a3,0x4
    3e74:	0792                	slli	a5,a5,0x4
    3e76:	8fd5                	or	a5,a5,a3
    3e78:	eaf557e3          	bge	a0,a5,3d26 <syscalls.c.140ddbb0+0x5b>
    3e7c:	bd6d                	j	3d36 <syscalls.c.140ddbb0+0x6b>

00003e7e <PQCLEAN_KYBER1024_CLEAN_indcpa_enc>:
    3e7e:	99010113          	addi	sp,sp,-1648
    3e82:	65512c23          	sw	s5,1624(sp)
    3e86:	72f1                	lui	t0,0xffffc
    3e88:	6a91                	lui	s5,0x4
    3e8a:	87aa                	mv	a5,a0
    3e8c:	66112623          	sw	ra,1644(sp)
    3e90:	66912423          	sw	s1,1640(sp)
    3e94:	67212223          	sw	s2,1636(sp)
    3e98:	67312023          	sw	s3,1632(sp)
    3e9c:	65412e23          	sw	s4,1628(sp)
    3ea0:	65b12023          	sw	s11,1600(sp)
    3ea4:	65612a23          	sw	s6,1620(sp)
    3ea8:	65712823          	sw	s7,1616(sp)
    3eac:	65812623          	sw	s8,1612(sp)
    3eb0:	65912423          	sw	s9,1608(sp)
    3eb4:	65a12223          	sw	s10,1604(sp)
    3eb8:	7575                	lui	a0,0xffffd
    3eba:	9116                	add	sp,sp,t0
    3ebc:	620a8713          	addi	a4,s5,1568 # 4620 <printbytes.constprop.0+0xe>
    3ec0:	972a                	add	a4,a4,a0
    3ec2:	89b2                	mv	s3,a2
    3ec4:	1010                	addi	a2,sp,32
    3ec6:	00c70533          	add	a0,a4,a2
    3eca:	8a2e                	mv	s4,a1
    3ecc:	85ce                	mv	a1,s3
    3ece:	ce3e                	sw	a5,28(sp)
    3ed0:	84b6                	mv	s1,a3
    3ed2:	bacfd0ef          	jal	ra,127e <PQCLEAN_KYBER1024_CLEAN_polyvec_frombytes>
    3ed6:	60098593          	addi	a1,s3,1536
    3eda:	02000613          	li	a2,32
    3ede:	1008                	addi	a0,sp,32
    3ee0:	673010ef          	jal	ra,5d52 <memcpy>
    3ee4:	7971                	lui	s2,0xffffc
    3ee6:	c0090e93          	addi	t4,s2,-1024 # ffffbc00 <_sp+0xfff1b320>
    3eea:	620a8793          	addi	a5,s5,1568
    3eee:	97f6                	add	a5,a5,t4
    3ef0:	1018                	addi	a4,sp,32
    3ef2:	00e78db3          	add	s11,a5,a4
    3ef6:	6541                	lui	a0,0x10
    3ef8:	8852                	mv	a6,s4
    3efa:	200d8893          	addi	a7,s11,512
    3efe:	85ee                	mv	a1,s11
    3f00:	157d                	addi	a0,a0,-1
    3f02:	00084783          	lbu	a5,0(a6) # 1000000 <_sp+0xf1f720>
    3f06:	05c1                	addi	a1,a1,16
    3f08:	0805                	addi	a6,a6,1
    3f0a:	0017f313          	andi	t1,a5,1
    3f0e:	01e79f93          	slli	t6,a5,0x1e
    3f12:	01d79613          	slli	a2,a5,0x1d
    3f16:	01c79f13          	slli	t5,a5,0x1c
    3f1a:	01b79693          	slli	a3,a5,0x1b
    3f1e:	01a79e13          	slli	t3,a5,0x1a
    3f22:	01979713          	slli	a4,a5,0x19
    3f26:	879d                	srai	a5,a5,0x7
    3f28:	40600333          	neg	t1,t1
    3f2c:	41ffdf93          	srai	t6,t6,0x1f
    3f30:	867d                	srai	a2,a2,0x1f
    3f32:	41ff5f13          	srai	t5,t5,0x1f
    3f36:	86fd                	srai	a3,a3,0x1f
    3f38:	41fe5e13          	srai	t3,t3,0x1f
    3f3c:	877d                	srai	a4,a4,0x1f
    3f3e:	40f007b3          	neg	a5,a5
    3f42:	68137313          	andi	t1,t1,1665
    3f46:	681fff93          	andi	t6,t6,1665
    3f4a:	68167613          	andi	a2,a2,1665
    3f4e:	681f7f13          	andi	t5,t5,1665
    3f52:	6816f693          	andi	a3,a3,1665
    3f56:	681e7e13          	andi	t3,t3,1665
    3f5a:	68177713          	andi	a4,a4,1665
    3f5e:	6817f793          	andi	a5,a5,1665
    3f62:	0fc2                	slli	t6,t6,0x10
    3f64:	00a37333          	and	t1,t1,a0
    3f68:	0f42                	slli	t5,t5,0x10
    3f6a:	8e69                	and	a2,a2,a0
    3f6c:	0e42                	slli	t3,t3,0x10
    3f6e:	8ee9                	and	a3,a3,a0
    3f70:	07c2                	slli	a5,a5,0x10
    3f72:	8f69                	and	a4,a4,a0
    3f74:	01f36333          	or	t1,t1,t6
    3f78:	01e66633          	or	a2,a2,t5
    3f7c:	01c6e6b3          	or	a3,a3,t3
    3f80:	8fd9                	or	a5,a5,a4
    3f82:	fe65a823          	sw	t1,-16(a1)
    3f86:	fec5aa23          	sw	a2,-12(a1)
    3f8a:	fed5ac23          	sw	a3,-8(a1)
    3f8e:	fef5ae23          	sw	a5,-4(a1)
    3f92:	f6b898e3          	bne	a7,a1,3f02 <PQCLEAN_KYBER1024_CLEAN_indcpa_enc+0x84>
    3f96:	6911                	lui	s2,0x4
    3f98:	75f1                	lui	a1,0xffffc
    3f9a:	9e058593          	addi	a1,a1,-1568 # ffffb9e0 <_sp+0xfff1b100>
    3f9e:	62090793          	addi	a5,s2,1568 # 4620 <printbytes.constprop.0+0xe>
    3fa2:	1018                	addi	a4,sp,32
    3fa4:	97ae                	add	a5,a5,a1
    3fa6:	00e785b3          	add	a1,a5,a4
    3faa:	79f9                	lui	s3,0xffffe
    3fac:	62090793          	addi	a5,s2,1568
    3fb0:	97ce                	add	a5,a5,s3
    3fb2:	00e78533          	add	a0,a5,a4
    3fb6:	4605                	li	a2,1
    3fb8:	3671                	jal	3b44 <PQCLEAN_KYBER1024_CLEAN_gen_matrix>
    3fba:	80098993          	addi	s3,s3,-2048 # ffffd800 <_sp+0xfff1cf20>
    3fbe:	62090793          	addi	a5,s2,1568
    3fc2:	97ce                	add	a5,a5,s3
    3fc4:	1018                	addi	a4,sp,32
    3fc6:	00e789b3          	add	s3,a5,a4
    3fca:	8a4e                	mv	s4,s3
    3fcc:	4901                	li	s2,0
    3fce:	4a91                	li	s5,4
    3fd0:	0ff97613          	zext.b	a2,s2
    3fd4:	8552                	mv	a0,s4
    3fd6:	85a6                	mv	a1,s1
    3fd8:	0905                	addi	s2,s2,1
    3fda:	973ff0ef          	jal	ra,394c <PQCLEAN_KYBER1024_CLEAN_poly_getnoise_eta1>
    3fde:	200a0a13          	addi	s4,s4,512
    3fe2:	ff5917e3          	bne	s2,s5,3fd0 <PQCLEAN_KYBER1024_CLEAN_indcpa_enc+0x152>
    3fe6:	7af5                	lui	s5,0xffffd
    3fe8:	6791                	lui	a5,0x4
    3fea:	800a8a93          	addi	s5,s5,-2048 # ffffc800 <_sp+0xfff1bf20>
    3fee:	62078793          	addi	a5,a5,1568 # 4620 <printbytes.constprop.0+0xe>
    3ff2:	97d6                	add	a5,a5,s5
    3ff4:	1018                	addi	a4,sp,32
    3ff6:	97ba                	add	a5,a5,a4
    3ff8:	c83e                	sw	a5,16(sp)
    3ffa:	8a3e                	mv	s4,a5
    3ffc:	4911                	li	s2,4
    3ffe:	4b21                	li	s6,8
    4000:	864a                	mv	a2,s2
    4002:	0905                	addi	s2,s2,1
    4004:	8552                	mv	a0,s4
    4006:	85a6                	mv	a1,s1
    4008:	0ff97913          	zext.b	s2,s2
    400c:	941ff0ef          	jal	ra,394c <PQCLEAN_KYBER1024_CLEAN_poly_getnoise_eta1>
    4010:	200a0a13          	addi	s4,s4,512
    4014:	ff6916e3          	bne	s2,s6,4000 <PQCLEAN_KYBER1024_CLEAN_indcpa_enc+0x182>
    4018:	7971                	lui	s2,0xffffc
    401a:	85a6                	mv	a1,s1
    401c:	6491                	lui	s1,0x4
    401e:	a0090513          	addi	a0,s2,-1536 # ffffba00 <_sp+0xfff1b120>
    4022:	62048793          	addi	a5,s1,1568 # 4620 <printbytes.constprop.0+0xe>
    4026:	97aa                	add	a5,a5,a0
    4028:	1018                	addi	a4,sp,32
    402a:	00e78533          	add	a0,a5,a4
    402e:	4621                	li	a2,8
    4030:	91dff0ef          	jal	ra,394c <PQCLEAN_KYBER1024_CLEAN_poly_getnoise_eta1>
    4034:	7a79                	lui	s4,0xffffe
    4036:	800a0c93          	addi	s9,s4,-2048 # ffffd800 <_sp+0xfff1cf20>
    403a:	62048713          	addi	a4,s1,1568
    403e:	1014                	addi	a3,sp,32
    4040:	9766                	add	a4,a4,s9
    4042:	62048793          	addi	a5,s1,1568
    4046:	9736                	add	a4,a4,a3
    4048:	97ca                	add	a5,a5,s2
    404a:	97b6                	add	a5,a5,a3
    404c:	853a                	mv	a0,a4
    404e:	8abe                	mv	s5,a5
    4050:	cc3a                	sw	a4,24(sp)
    4052:	c23e                	sw	a5,4(sp)
    4054:	a76fd0ef          	jal	ra,12ca <PQCLEAN_KYBER1024_CLEAN_polyvec_ntt>
    4058:	200a8713          	addi	a4,s5,512
    405c:	62048693          	addi	a3,s1,1568
    4060:	8aba                	mv	s5,a4
    4062:	ca3a                	sw	a4,20(sp)
    4064:	96d2                	add	a3,a3,s4
    4066:	1018                	addi	a4,sp,32
    4068:	96ba                	add	a3,a3,a4
    406a:	6705                	lui	a4,0x1
    406c:	c636                	sw	a3,12(sp)
    406e:	80070693          	addi	a3,a4,-2048 # 800 <main+0x5ea>
    4072:	96ce                	add	a3,a3,s3
    4074:	e0090f13          	addi	t5,s2,-512
    4078:	62048793          	addi	a5,s1,1568
    407c:	c036                	sw	a3,0(sp)
    407e:	97fa                	add	a5,a5,t5
    4080:	1014                	addi	a3,sp,32
    4082:	6895                	lui	a7,0x5
    4084:	8b56                	mv	s6,s5
    4086:	c402                	sw	zero,8(sp)
    4088:	00d789b3          	add	s3,a5,a3
    408c:	ebf88c13          	addi	s8,a7,-321 # 4ebf <__libc_init_array+0x1d>
    4090:	02000cb7          	lui	s9,0x2000
    4094:	d0170d13          	addi	s10,a4,-767
