
sw/applications/PQClean/test/crypto_kem/testvectors-kyber768_clean.elf:     file format elf32-littleriscv


Disassembly of section .vectors:

00000000 <__vector_start>:

.section .vectors, "ax"
.option norvc
vector_table:
	//  0 : exception Handler and user software interrupt
	j handler_exception
   0:	4880406f          	j	4488 <handler_exception>
	//  1 : supervisor software interrupt
	j __no_irq_handler
   4:	57f0006f          	j	d82 <__no_irq_handler>
	//  2 : unmapped
	j __no_irq_handler
   8:	57b0006f          	j	d82 <__no_irq_handler>
	//  3 : machine software interrupt handler
	j handler_irq_software
   c:	6140406f          	j	4620 <handler_irq_software>
	//  4 : user timer interrupt
	j __no_irq_handler
  10:	5730006f          	j	d82 <__no_irq_handler>
	//  5 : supervisor timer interrupt
	j __no_irq_handler
  14:	56f0006f          	j	d82 <__no_irq_handler>
	//  6 : unmapped
	j __no_irq_handler
  18:	56b0006f          	j	d82 <__no_irq_handler>
	//  7 : machine timer interrupt handler
	j handler_irq_timer
  1c:	6340406f          	j	4650 <handler_irq_timer>
	//  8 : user external interrupt
	j __no_irq_handler
  20:	5630006f          	j	d82 <__no_irq_handler>
	//  9 : supervisor external interrupt
	j __no_irq_handler
  24:	55f0006f          	j	d82 <__no_irq_handler>
	// 10 : unmapped
	j __no_irq_handler
  28:	55b0006f          	j	d82 <__no_irq_handler>
	// 11 : machine external interrupt handler
	j handler_irq_external
  2c:	6540406f          	j	4680 <handler_irq_external>
	// 12 : unmapped
	j __no_irq_handler
  30:	5530006f          	j	d82 <__no_irq_handler>
	// 13 : unmapped
	j __no_irq_handler
  34:	54f0006f          	j	d82 <__no_irq_handler>
	// 14 : unmapped
	j __no_irq_handler
  38:	54b0006f          	j	d82 <__no_irq_handler>
	// 15 : unmapped
	j __no_irq_handler
  3c:	5470006f          	j	d82 <__no_irq_handler>
	// 16 : fast interrupt - timer_1
	j handler_irq_fast_timer_1
  40:	6d00406f          	j	4710 <handler_irq_fast_timer_1>
	// 17 : fast interrupt - timer_2
	j handler_irq_fast_timer_2
  44:	7240406f          	j	4768 <handler_irq_fast_timer_2>
	// 18 : fast interrupt - timer_3
	j handler_irq_fast_timer_3
  48:	7780406f          	j	47c0 <handler_irq_fast_timer_3>
	// 19 : fast interrupt - dma
	j handler_irq_fast_dma
  4c:	6a80406f          	j	46f4 <handler_irq_fast_dma>
	// 20 : fast interrupt - spi
	j handler_irq_fast_spi
  50:	7c80406f          	j	4818 <handler_irq_fast_spi>
	// 21 : fast interrupt - spi_flash
	j handler_irq_fast_spi_flash
  54:	01d0406f          	j	4870 <handler_irq_fast_spi_flash>
	// 22 : fast interrupt - gpio_0
	j handler_irq_fast_gpio_0
  58:	0710406f          	j	48c8 <handler_irq_fast_gpio_0>
	// 23 : fast interrupt - gpio_1
	j handler_irq_fast_gpio_1
  5c:	0c50406f          	j	4920 <handler_irq_fast_gpio_1>
	// 24 : fast interrupt - gpio_2
	j handler_irq_fast_gpio_2
  60:	1190406f          	j	4978 <handler_irq_fast_gpio_2>
	// 25 : fast interrupt - gpio_3
	j handler_irq_fast_gpio_3
  64:	16d0406f          	j	49d0 <handler_irq_fast_gpio_3>
	// 26 : fast interrupt - gpio_4
	j handler_irq_fast_gpio_4
  68:	1c10406f          	j	4a28 <handler_irq_fast_gpio_4>
	// 27 : fast interrupt - gpio_5
	j handler_irq_fast_gpio_5
  6c:	2150406f          	j	4a80 <handler_irq_fast_gpio_5>
	// 28 : fast interrupt - gpio_6
	j handler_irq_fast_gpio_6
  70:	26d0406f          	j	4adc <handler_irq_fast_gpio_6>
	// 29 : fast interrupt - gpio_7
	j handler_irq_fast_gpio_7
  74:	2c10406f          	j	4b34 <handler_irq_fast_gpio_7>
	// 30 : fast interrupt - unmapped
	j __no_irq_handler
  78:	50b0006f          	j	d82 <__no_irq_handler>
	// vendor interrupts: on Ibex interrupt id 31 is for non-maskable interrupts
	j __no_irq_handler
  7c:	5070006f          	j	d82 <__no_irq_handler>
	// 64-32 : not connected on Ibex
	j verification_irq_handler
  80:	58b0006f          	j	e0a <verification_irq_handler>
	j __no_irq_handler
  84:	4ff0006f          	j	d82 <__no_irq_handler>
	j __no_irq_handler
  88:	4fb0006f          	j	d82 <__no_irq_handler>
	j __no_irq_handler
  8c:	4f70006f          	j	d82 <__no_irq_handler>
	j __no_irq_handler
  90:	4f30006f          	j	d82 <__no_irq_handler>
	j __no_irq_handler
  94:	4ef0006f          	j	d82 <__no_irq_handler>
	j __no_irq_handler
  98:	4eb0006f          	j	d82 <__no_irq_handler>
	j __no_irq_handler
  9c:	4e70006f          	j	d82 <__no_irq_handler>
	j __no_irq_handler
  a0:	4e30006f          	j	d82 <__no_irq_handler>
	j __no_irq_handler
  a4:	4df0006f          	j	d82 <__no_irq_handler>
	j __no_irq_handler
  a8:	4db0006f          	j	d82 <__no_irq_handler>
	j __no_irq_handler
  ac:	4d70006f          	j	d82 <__no_irq_handler>
	j __no_irq_handler
  b0:	4d30006f          	j	d82 <__no_irq_handler>
	j __no_irq_handler
  b4:	4cf0006f          	j	d82 <__no_irq_handler>
	j __no_irq_handler
  b8:	4cb0006f          	j	d82 <__no_irq_handler>
	j __no_irq_handler
  bc:	4c70006f          	j	d82 <__no_irq_handler>
	j __no_irq_handler
  c0:	4c30006f          	j	d82 <__no_irq_handler>
	j __no_irq_handler
  c4:	4bf0006f          	j	d82 <__no_irq_handler>
	j __no_irq_handler
  c8:	4bb0006f          	j	d82 <__no_irq_handler>
	j __no_irq_handler
  cc:	4b70006f          	j	d82 <__no_irq_handler>
	j __no_irq_handler
  d0:	4b30006f          	j	d82 <__no_irq_handler>
	j __no_irq_handler
  d4:	4af0006f          	j	d82 <__no_irq_handler>
	j __no_irq_handler
  d8:	4ab0006f          	j	d82 <__no_irq_handler>
	j __no_irq_handler
  dc:	4a70006f          	j	d82 <__no_irq_handler>
	j __no_irq_handler
  e0:	4a30006f          	j	d82 <__no_irq_handler>
	j __no_irq_handler
  e4:	49f0006f          	j	d82 <__no_irq_handler>
	j __no_irq_handler
  e8:	49b0006f          	j	d82 <__no_irq_handler>
	j __no_irq_handler
  ec:	4970006f          	j	d82 <__no_irq_handler>
	j __no_irq_handler
  f0:	4930006f          	j	d82 <__no_irq_handler>
	j __no_irq_handler
  f4:	48f0006f          	j	d82 <__no_irq_handler>
	j __no_irq_handler
  f8:	48b0006f          	j	d82 <__no_irq_handler>
	j __no_irq_handler
  fc:	4870006f          	j	d82 <__no_irq_handler>
	j __no_irq_handler
 100:	4830006f          	j	d82 <__no_irq_handler>

Disassembly of section .init:

00000180 <_start>:

_start:
/* initialize global pointer */
.option push
.option norelax
1: auipc gp, %pcrel_hi(__global_pointer$)
 180:	00081197          	auipc	gp,0x81
   addi  gp, gp, %pcrel_lo(1b)
 184:	cf418193          	addi	gp,gp,-780 # 80e74 <__global_pointer$>
.option pop

/* initialize stack pointer */
   la sp, _sp
 188:	000e0117          	auipc	sp,0xe0
 18c:	75810113          	addi	sp,sp,1880 # e08e0 <_sp>

/* set the frequency */
   li a0, SOC_CTRL_START_ADDRESS
 190:	20000537          	lui	a0,0x20000
   li a2, REFERENCE_CLOCK_Hz
 194:	05f5e637          	lui	a2,0x5f5e
 198:	10060613          	addi	a2,a2,256 # 5f5e100 <_sp+0x5e7d820>
   sw a2, SOC_CTRL_SYSTEM_FREQUENCY_HZ_REG_OFFSET(a0)
 19c:	cd50                	sw	a2,28(a0)

0000019e <_init_bss>:

#endif

/* clear the bss segment */
_init_bss:
    la     a0, __bss_start
 19e:	00080517          	auipc	a0,0x80
 1a2:	54650513          	addi	a0,a0,1350 # 806e4 <outleft>
    la     a2, __bss_end
 1a6:	00080617          	auipc	a2,0x80
 1aa:	72e60613          	addi	a2,a2,1838 # 808d4 <__BSS_END__>
    sub    a2, a2, a0
 1ae:	8e09                	sub	a2,a2,a0
    li     a1, 0
 1b0:	4581                	li	a1,0
    call   memset
 1b2:	283040ef          	jal	ra,4c34 <memset>
    blt a1, a2, loop_init_data
    end_init_data:
#endif

/* set vector table address and vectored mode */
    la a0, __vector_start
 1b6:	00000517          	auipc	a0,0x0
 1ba:	e4a50513          	addi	a0,a0,-438 # 0 <__vector_start>
    ori a0, a0, 0x1
 1be:	00156513          	ori	a0,a0,1
    csrw mtvec, a0
 1c2:	30551073          	csrw	mtvec,a0

/* new-style constructors and destructors */
    la a0, __libc_fini_array
 1c6:	00005517          	auipc	a0,0x5
 1ca:	9ce50513          	addi	a0,a0,-1586 # 4b94 <__libc_fini_array>
    call atexit
 1ce:	1bd040ef          	jal	ra,4b8a <atexit>
    call __libc_init_array
 1d2:	1fd040ef          	jal	ra,4bce <__libc_init_array>

/* call main */
    lw a0, 0(sp)                    /* a0 = argc */
 1d6:	4502                	lw	a0,0(sp)
    addi a1, sp, __SIZEOF_POINTER__ /* a1 = argv */
 1d8:	004c                	addi	a1,sp,4
    li a2, 0                        /* a2 = envp = NULL */
 1da:	4601                	li	a2,0
    call main
 1dc:	03a000ef          	jal	ra,216 <main>
    tail exit
 1e0:	00c0006f          	j	1ec <exit>

000001e4 <_init>:
.global _init
.type   _init, @function
.global _fini
.type   _fini, @function
_init:
    call init
 1e4:	192040ef          	jal	ra,4376 <init>

000001e8 <_fini>:
_fini:
 /* These don't have to do anything since we use init_array/fini_array. Prevent
    missing symbol error */
    ret
 1e8:	8082                	ret

Disassembly of section .text:

000001ec <exit>:
     1ec:	1141                	addi	sp,sp,-16
     1ee:	6795                	lui	a5,0x5
     1f0:	c422                	sw	s0,8(sp)
     1f2:	c606                	sw	ra,12(sp)
     1f4:	08678793          	addi	a5,a5,134 # 5086 <__call_exitprocs>
     1f8:	842a                	mv	s0,a0
     1fa:	c781                	beqz	a5,202 <exit+0x16>
     1fc:	4581                	li	a1,0
     1fe:	689040ef          	jal	ra,5086 <__call_exitprocs>
     202:	000807b7          	lui	a5,0x80
     206:	6d47a503          	lw	a0,1748(a5) # 806d4 <_global_impure_ptr>
     20a:	551c                	lw	a5,40(a0)
     20c:	c391                	beqz	a5,210 <exit+0x24>
     20e:	9782                	jalr	a5
     210:	8522                	mv	a0,s0
     212:	16c040ef          	jal	ra,437e <_exit>

00000216 <main>:

#define crypto_kem_keypair NAMESPACE(crypto_kem_keypair)
#define crypto_kem_enc NAMESPACE(crypto_kem_enc)
#define crypto_kem_dec NAMESPACE(crypto_kem_dec)

int main(void) {
     216:	b6010113          	addi	sp,sp,-1184
     21a:	72f5                	lui	t0,0xffffd
    uint8_t sk_a[CRYPTO_SECRETKEYBYTES];
    int i, j;
    unsigned int cycles_keygen, cycles_enc, cycles_dec;
    

    printf("Hi testvectors KEM!\n");
     21c:	00080537          	lui	a0,0x80
int main(void) {
     220:	48112e23          	sw	ra,1180(sp)
     224:	48912c23          	sw	s1,1176(sp)
     228:	49212a23          	sw	s2,1172(sp)
     22c:	49312823          	sw	s3,1168(sp)
     230:	49412623          	sw	s4,1164(sp)
     234:	49512423          	sw	s5,1160(sp)
     238:	49612223          	sw	s6,1156(sp)
     23c:	49712023          	sw	s7,1152(sp)
     240:	47812e23          	sw	s8,1148(sp)
     244:	47912c23          	sw	s9,1144(sp)
     248:	47a12a23          	sw	s10,1140(sp)
     24c:	47b12823          	sw	s11,1136(sp)
    printf("Hi testvectors KEM!\n");
     250:	0dc50513          	addi	a0,a0,220 # 800dc <no_exception_handler_msg+0x47>
int main(void) {
     254:	9116                	add	sp,sp,t0
    printf("Hi testvectors KEM!\n");
     256:	2cd040ef          	jal	ra,4d22 <puts>
    init_ip();
     25a:	4e9000ef          	jal	ra,f42 <init_ip>
    CSR_CLEAR_BITS(CSR_REG_MCOUNTINHIBIT, 0x1);
     25e:	4785                	li	a5,1
     260:	3207b073          	csrc	mcountinhibit,a5
    // Starting the performance counter
    CSR_WRITE(CSR_REG_MCYCLE, 0);
     264:	4781                	li	a5,0
     266:	b0079073          	csrw	mcycle,a5
* Returns 0 (success)
**************************************************/
int PQCLEAN_KYBER768_CLEAN_crypto_kem_keypair(uint8_t *pk,
        uint8_t *sk) {
    uint8_t coins[2 * KYBER_SYMBYTES];
    randombytes(coins, 2 * KYBER_SYMBYTES);
     26a:	698d                	lui	s3,0x3
     26c:	7a75                	lui	s4,0xffffd
     26e:	bc0a0493          	addi	s1,s4,-1088 # ffffcbc0 <_sp+0xfff1c2e0>
     272:	46098793          	addi	a5,s3,1120 # 3460 <keccak_absorb.constprop.0+0x86>
     276:	97a6                	add	a5,a5,s1
     278:	0818                	addi	a4,sp,16
     27a:	00e784b3          	add	s1,a5,a4
     27e:	8526                	mv	a0,s1
     280:	04000593          	li	a1,64
     284:	691020ef          	jal	ra,3114 <randombytes>
    const uint8_t *publicseed = buf;
    const uint8_t *noiseseed = buf + KYBER_SYMBYTES;
    uint8_t nonce = 0;
    polyvec a[KYBER_K], e, pkpv, skpv;

    hash_g(buf, coins, KYBER_SYMBYTES);
     288:	c00a0913          	addi	s2,s4,-1024
     28c:	46098793          	addi	a5,s3,1120
     290:	97ca                	add	a5,a5,s2
     292:	0818                	addi	a4,sp,16
     294:	00e78933          	add	s2,a5,a4
     298:	85a6                	mv	a1,s1
     29a:	854a                	mv	a0,s2
     29c:	02000613          	li	a2,32
     2a0:	591020ef          	jal	ra,3030 <sha3_512>

    gen_a(a, publicseed);
     2a4:	74fd                	lui	s1,0xfffff
     2a6:	e0048493          	addi	s1,s1,-512 # ffffee00 <_sp+0xfff1e520>
     2aa:	46098793          	addi	a5,s3,1120
     2ae:	97a6                	add	a5,a5,s1
     2b0:	0818                	addi	a4,sp,16
     2b2:	00e784b3          	add	s1,a5,a4
     2b6:	85ca                	mv	a1,s2
     2b8:	4601                	li	a2,0
     2ba:	8526                	mv	a0,s1
     2bc:	754030ef          	jal	ra,3a10 <PQCLEAN_KYBER768_CLEAN_gen_matrix>
     2c0:	8bce                	mv	s7,s3

    for (i = 0; i < KYBER_K; i++) {
        PQCLEAN_KYBER768_CLEAN_poly_getnoise_eta1(&skpv.vec[i], noiseseed, nonce++);
     2c2:	7b79                	lui	s6,0xffffe
     2c4:	ea0b0993          	addi	s3,s6,-352 # ffffdea0 <_sp+0xfff1d5c0>
     2c8:	460b8793          	addi	a5,s7,1120
     2cc:	97ce                	add	a5,a5,s3
     2ce:	0818                	addi	a4,sp,16
     2d0:	00e789b3          	add	s3,a5,a4
     2d4:	02090913          	addi	s2,s2,32
     2d8:	85ca                	mv	a1,s2
     2da:	4601                	li	a2,0
     2dc:	854e                	mv	a0,s3
     2de:	53a030ef          	jal	ra,3818 <PQCLEAN_KYBER768_CLEAN_poly_getnoise_eta1>
     2e2:	20098a93          	addi	s5,s3,512
     2e6:	85ca                	mv	a1,s2
     2e8:	4605                	li	a2,1
     2ea:	8556                	mv	a0,s5
     2ec:	52c030ef          	jal	ra,3818 <PQCLEAN_KYBER768_CLEAN_poly_getnoise_eta1>
     2f0:	85ca                	mv	a1,s2
     2f2:	4609                	li	a2,2
     2f4:	40098513          	addi	a0,s3,1024
     2f8:	520030ef          	jal	ra,3818 <PQCLEAN_KYBER768_CLEAN_poly_getnoise_eta1>
    }
    for (i = 0; i < KYBER_K; i++) {
        PQCLEAN_KYBER768_CLEAN_poly_getnoise_eta1(&e.vec[i], noiseseed, nonce++);
     2fc:	2a0a0a13          	addi	s4,s4,672
     300:	460b8793          	addi	a5,s7,1120
     304:	97d2                	add	a5,a5,s4
     306:	0818                	addi	a4,sp,16
     308:	00e78a33          	add	s4,a5,a4
     30c:	85ca                	mv	a1,s2
     30e:	8552                	mv	a0,s4
     310:	460d                	li	a2,3
     312:	506030ef          	jal	ra,3818 <PQCLEAN_KYBER768_CLEAN_poly_getnoise_eta1>
     316:	85ca                	mv	a1,s2
     318:	200a0513          	addi	a0,s4,512
     31c:	4611                	li	a2,4
     31e:	4fa030ef          	jal	ra,3818 <PQCLEAN_KYBER768_CLEAN_poly_getnoise_eta1>
     322:	85ca                	mv	a1,s2
     324:	4615                	li	a2,5
     326:	400a0513          	addi	a0,s4,1024
     32a:	4ee030ef          	jal	ra,3818 <PQCLEAN_KYBER768_CLEAN_poly_getnoise_eta1>
    }

    PQCLEAN_KYBER768_CLEAN_polyvec_ntt(&skpv);
     32e:	854e                	mv	a0,s3
     330:	645000ef          	jal	ra,1174 <PQCLEAN_KYBER768_CLEAN_polyvec_ntt>
   //ntt_dr(skpv.vec[0].coeffs, skpv.vec[0].coeffs);
   //ntt_dr(skpv.vec[1].coeffs, skpv.vec[1].coeffs);
   //ntt_dr(skpv.vec[2].coeffs, skpv.vec[2].coeffs);
    PQCLEAN_KYBER768_CLEAN_polyvec_ntt(&e);
     334:	8552                	mv	a0,s4
     336:	63f000ef          	jal	ra,1174 <PQCLEAN_KYBER768_CLEAN_polyvec_ntt>
   //ntt_dr(e.vec[0].coeffs, e.vec[0].coeffs);
   //ntt_dr(e.vec[1].coeffs, e.vec[1].coeffs);
   //ntt_dr(e.vec[2].coeffs, e.vec[2].coeffs);

    // matrix-vector multiplication
    for (i = 0; i < KYBER_K; i++) {
     33a:	8a0b0913          	addi	s2,s6,-1888
     33e:	460b8713          	addi	a4,s7,1120
     342:	87de                	mv	a5,s7
     344:	0814                	addi	a3,sp,16
     346:	974a                	add	a4,a4,s2
     348:	9736                	add	a4,a4,a3
    unsigned int i;
    poly t;

    PQCLEAN_KYBER768_CLEAN_poly_basemul_montgomery(r, &a->vec[0], &b->vec[0]);
    for (i = 1; i < KYBER_K; i++) {
        PQCLEAN_KYBER768_CLEAN_poly_basemul_montgomery(&t, &a->vec[i], &b->vec[i]);
     34a:	4a0b0813          	addi	a6,s6,1184
     34e:	46078793          	addi	a5,a5,1120
     352:	20070b93          	addi	s7,a4,512
     356:	60070693          	addi	a3,a4,1536
     35a:	97c2                	add	a5,a5,a6
     35c:	c63a                	sw	a4,12(sp)
    PQCLEAN_KYBER768_CLEAN_polyvec_ntt(&e);
     35e:	8a3a                	mv	s4,a4
     360:	0818                	addi	a4,sp,16
     362:	00e78b33          	add	s6,a5,a4
**************************************************/
int16_t PQCLEAN_KYBER768_CLEAN_barrett_reduce(int16_t a) {
    int16_t t;
    const int16_t v = ((1 << 26) + KYBER_Q / 2) / KYBER_Q;

    t  = ((int32_t)v * a + (1 << 25)) >> 26;
     366:	6d15                	lui	s10,0x5
    t *= KYBER_Q;
     368:	6c85                	lui	s9,0x1
    t = (int16_t)a * QINV;
     36a:	77fd                	lui	a5,0xfffff
     36c:	c436                	sw	a3,8(sp)
     36e:	8c5e                	mv	s8,s7
    t  = ((int32_t)v * a + (1 << 25)) >> 26;
     370:	ebfd0d13          	addi	s10,s10,-321 # 4ebf <__swbuf_r+0x97>
    t *= KYBER_Q;
     374:	d01c8c93          	addi	s9,s9,-767 # d01 <main+0xaeb>
    t = (int16_t)a * QINV;
     378:	30178d93          	addi	s11,a5,769 # fffff301 <_sp+0xfff1ea21>
    PQCLEAN_KYBER768_CLEAN_poly_basemul_montgomery(r, &a->vec[0], &b->vec[0]);
     37c:	85a6                	mv	a1,s1
     37e:	8552                	mv	a0,s4
     380:	864e                	mv	a2,s3
     382:	046010ef          	jal	ra,13c8 <PQCLEAN_KYBER768_CLEAN_poly_basemul_montgomery>
        PQCLEAN_KYBER768_CLEAN_poly_basemul_montgomery(&t, &a->vec[i], &b->vec[i]);
     386:	8656                	mv	a2,s5
     388:	20048593          	addi	a1,s1,512
     38c:	855a                	mv	a0,s6
     38e:	03a010ef          	jal	ra,13c8 <PQCLEAN_KYBER768_CLEAN_poly_basemul_montgomery>
*            - const poly *a: pointer to first input polynomial
*            - const poly *b: pointer to second input polynomial
**************************************************/
void PQCLEAN_KYBER768_CLEAN_poly_add(poly *r, const poly *a, const poly *b) {
    size_t i;
    for (i = 0; i < KYBER_N; i++) {
     392:	875a                	mv	a4,s6
     394:	200b0913          	addi	s2,s6,512
     398:	865a                	mv	a2,s6
     39a:	87d2                	mv	a5,s4
        r->coeffs[i] = a->coeffs[i] + b->coeffs[i];
     39c:	0007d583          	lhu	a1,0(a5)
     3a0:	00065503          	lhu	a0,0(a2)
    for (i = 0; i < KYBER_N; i++) {
     3a4:	0789                	addi	a5,a5,2
     3a6:	0609                	addi	a2,a2,2
        r->coeffs[i] = a->coeffs[i] + b->coeffs[i];
     3a8:	95aa                	add	a1,a1,a0
     3aa:	feb79f23          	sh	a1,-2(a5)
    for (i = 0; i < KYBER_N; i++) {
     3ae:	fec917e3          	bne	s2,a2,39c <main+0x186>
     3b2:	40098613          	addi	a2,s3,1024
     3b6:	40048593          	addi	a1,s1,1024
     3ba:	855a                	mv	a0,s6
     3bc:	c23a                	sw	a4,4(sp)
     3be:	00a010ef          	jal	ra,13c8 <PQCLEAN_KYBER768_CLEAN_poly_basemul_montgomery>
     3c2:	4712                	lw	a4,4(sp)
     3c4:	87d2                	mv	a5,s4
        r->coeffs[i] = a->coeffs[i] + b->coeffs[i];
     3c6:	0007d603          	lhu	a2,0(a5)
     3ca:	00075583          	lhu	a1,0(a4)
    for (i = 0; i < KYBER_N; i++) {
     3ce:	0789                	addi	a5,a5,2
     3d0:	0709                	addi	a4,a4,2
        r->coeffs[i] = a->coeffs[i] + b->coeffs[i];
     3d2:	962e                	add	a2,a2,a1
     3d4:	fec79f23          	sh	a2,-2(a5)
    for (i = 0; i < KYBER_N; i++) {
     3d8:	fee917e3          	bne	s2,a4,3c6 <main+0x1b0>
     3dc:	8752                	mv	a4,s4
    t  = ((int32_t)v * a + (1 << 25)) >> 26;
     3de:	020005b7          	lui	a1,0x2000
        r->coeffs[i] = PQCLEAN_KYBER768_CLEAN_barrett_reduce(r->coeffs[i]);
     3e2:	00071603          	lh	a2,0(a4)
    for (i = 0; i < KYBER_N; i++) {
     3e6:	0709                	addi	a4,a4,2
     3e8:	03a607b3          	mul	a5,a2,s10
     3ec:	97ae                	add	a5,a5,a1
     3ee:	87e9                	srai	a5,a5,0x1a
    t *= KYBER_Q;
     3f0:	039787b3          	mul	a5,a5,s9
    return a - t;
     3f4:	8e1d                	sub	a2,a2,a5
        r->coeffs[i] = PQCLEAN_KYBER768_CLEAN_barrett_reduce(r->coeffs[i]);
     3f6:	fec71f23          	sh	a2,-2(a4)
    for (i = 0; i < KYBER_N; i++) {
     3fa:	feec14e3          	bne	s8,a4,3e2 <main+0x1cc>
    t = (a - (int32_t)t * KYBER_Q) >> 16;
     3fe:	77fd                	lui	a5,0xfffff
     400:	8752                	mv	a4,s4
        r->coeffs[i] = PQCLEAN_KYBER768_CLEAN_montgomery_reduce((int32_t)r->coeffs[i] * f);
     402:	54900513          	li	a0,1353
     406:	2ff78593          	addi	a1,a5,767 # fffff2ff <_sp+0xfff1ea1f>
     40a:	00071603          	lh	a2,0(a4)
    for (i = 0; i < KYBER_N; i++) {
     40e:	0709                	addi	a4,a4,2
        r->coeffs[i] = PQCLEAN_KYBER768_CLEAN_montgomery_reduce((int32_t)r->coeffs[i] * f);
     410:	02a60633          	mul	a2,a2,a0
    t = (int16_t)a * QINV;
     414:	03b607b3          	mul	a5,a2,s11
    t = (a - (int32_t)t * KYBER_Q) >> 16;
     418:	07c2                	slli	a5,a5,0x10
     41a:	87c1                	srai	a5,a5,0x10
     41c:	02b787b3          	mul	a5,a5,a1
     420:	97b2                	add	a5,a5,a2
     422:	87c1                	srai	a5,a5,0x10
     424:	fef71f23          	sh	a5,-2(a4)
    for (i = 0; i < KYBER_N; i++) {
     428:	feec11e3          	bne	s8,a4,40a <main+0x1f4>
    for (i = 0; i < KYBER_K; i++) {
     42c:	47a2                	lw	a5,8(sp)
     42e:	200a0a13          	addi	s4,s4,512
     432:	60048493          	addi	s1,s1,1536
     436:	200c0c13          	addi	s8,s8,512
     43a:	f54791e3          	bne	a5,s4,37c <main+0x166>
     43e:	7575                	lui	a0,0xffffd
     440:	678d                	lui	a5,0x3
     442:	2a050513          	addi	a0,a0,672 # ffffd2a0 <_sp+0xfff1c9c0>
     446:	46078793          	addi	a5,a5,1120 # 3460 <keccak_absorb.constprop.0+0x86>
     44a:	97aa                	add	a5,a5,a0
     44c:	0818                	addi	a4,sp,16
     44e:	00e78533          	add	a0,a5,a4
     452:	4732                	lw	a4,12(sp)
     454:	6785                	lui	a5,0x1
     456:	80078793          	addi	a5,a5,-2048 # 800 <main+0x5ea>
     45a:	00f70933          	add	s2,a4,a5
     45e:	85de                	mv	a1,s7
    for (i = 0; i < KYBER_N; i++) {
     460:	e0058793          	addi	a5,a1,-512 # 1fffe00 <_sp+0x1f1f520>
     464:	86aa                	mv	a3,a0
        r->coeffs[i] = a->coeffs[i] + b->coeffs[i];
     466:	0007d703          	lhu	a4,0(a5)
     46a:	0006d603          	lhu	a2,0(a3)
    for (i = 0; i < KYBER_N; i++) {
     46e:	0789                	addi	a5,a5,2
     470:	0689                	addi	a3,a3,2
        r->coeffs[i] = a->coeffs[i] + b->coeffs[i];
     472:	9732                	add	a4,a4,a2
     474:	fee79f23          	sh	a4,-2(a5)
    for (i = 0; i < KYBER_N; i++) {
     478:	fef597e3          	bne	a1,a5,466 <main+0x250>
*            - const polyvec *a: pointer to first input vector of polynomials
*            - const polyvec *b: pointer to second input vector of polynomials
**************************************************/
void PQCLEAN_KYBER768_CLEAN_polyvec_add(polyvec *r, const polyvec *a, const polyvec *b) {
    unsigned int i;
    for (i = 0; i < KYBER_K; i++) {
     47c:	20058593          	addi	a1,a1,512
     480:	20050513          	addi	a0,a0,512
     484:	fcb91ee3          	bne	s2,a1,460 <main+0x24a>
    t *= KYBER_Q;
     488:	6a05                	lui	s4,0x1
    t  = ((int32_t)v * a + (1 << 25)) >> 26;
     48a:	6615                	lui	a2,0x5
     48c:	ebf60613          	addi	a2,a2,-321 # 4ebf <__swbuf_r+0x97>
     490:	02000537          	lui	a0,0x2000
    t *= KYBER_Q;
     494:	d01a0593          	addi	a1,s4,-767 # d01 <main+0xaeb>
        PQCLEAN_KYBER768_CLEAN_poly_reduce(&r->vec[i]);
     498:	e00b8713          	addi	a4,s7,-512
        r->coeffs[i] = PQCLEAN_KYBER768_CLEAN_barrett_reduce(r->coeffs[i]);
     49c:	00071683          	lh	a3,0(a4)
    for (i = 0; i < KYBER_N; i++) {
     4a0:	0709                	addi	a4,a4,2
    t  = ((int32_t)v * a + (1 << 25)) >> 26;
     4a2:	02c687b3          	mul	a5,a3,a2
     4a6:	97aa                	add	a5,a5,a0
     4a8:	87e9                	srai	a5,a5,0x1a
    t *= KYBER_Q;
     4aa:	02b787b3          	mul	a5,a5,a1
    return a - t;
     4ae:	8e9d                	sub	a3,a3,a5
        r->coeffs[i] = PQCLEAN_KYBER768_CLEAN_barrett_reduce(r->coeffs[i]);
     4b0:	fed71f23          	sh	a3,-2(a4)
    for (i = 0; i < KYBER_N; i++) {
     4b4:	feeb94e3          	bne	s7,a4,49c <main+0x286>
    for (i = 0; i < KYBER_K; i++) {
     4b8:	200b8b93          	addi	s7,s7,512
     4bc:	fd791ee3          	bne	s2,s7,498 <main+0x282>
    PQCLEAN_KYBER768_CLEAN_polyvec_tobytes(r, sk);
     4c0:	6a8d                	lui	s5,0x3
     4c2:	7979                	lui	s2,0xffffe
     4c4:	ea090593          	addi	a1,s2,-352 # ffffdea0 <_sp+0xfff1d5c0>
     4c8:	460a8793          	addi	a5,s5,1120 # 3460 <keccak_absorb.constprop.0+0x86>
     4cc:	0818                	addi	a4,sp,16
     4ce:	97ae                	add	a5,a5,a1
     4d0:	00e785b3          	add	a1,a5,a4
     4d4:	4a090513          	addi	a0,s2,1184
     4d8:	460a8793          	addi	a5,s5,1120
     4dc:	97aa                	add	a5,a5,a0
     4de:	00e78533          	add	a0,a5,a4
     4e2:	3df000ef          	jal	ra,10c0 <PQCLEAN_KYBER768_CLEAN_polyvec_tobytes>
    PQCLEAN_KYBER768_CLEAN_polyvec_tobytes(r, pk);
     4e6:	79f5                	lui	s3,0xffffd
     4e8:	e0098493          	addi	s1,s3,-512 # ffffce00 <_sp+0xfff1c520>
     4ec:	460a8713          	addi	a4,s5,1120
     4f0:	0814                	addi	a3,sp,16
     4f2:	9726                	add	a4,a4,s1
     4f4:	8a090593          	addi	a1,s2,-1888
     4f8:	460a8793          	addi	a5,s5,1120
     4fc:	00d704b3          	add	s1,a4,a3
     500:	97ae                	add	a5,a5,a1
     502:	00d785b3          	add	a1,a5,a3
     506:	8526                	mv	a0,s1
     508:	3b9000ef          	jal	ra,10c0 <PQCLEAN_KYBER768_CLEAN_polyvec_tobytes>
    memcpy(r + KYBER_POLYVECBYTES, seed, KYBER_SYMBYTES);
     50c:	c0098793          	addi	a5,s3,-1024
     510:	460a8693          	addi	a3,s5,1120
     514:	96be                	add	a3,a3,a5
     516:	081c                	addi	a5,sp,16
     518:	97b6                	add	a5,a5,a3
    memcpy(sk + KYBER_INDCPA_SECRETKEYBYTES, pk, KYBER_PUBLICKEYBYTES);
     51a:	460a8713          	addi	a4,s5,1120
     51e:	4fd4                	lw	a3,28(a5)
     520:	0007ae03          	lw	t3,0(a5)
     524:	0047a303          	lw	t1,4(a5)
     528:	0087a883          	lw	a7,8(a5)
     52c:	00c7a803          	lw	a6,12(a5)
     530:	4b88                	lw	a0,16(a5)
     532:	4bcc                	lw	a1,20(a5)
     534:	4f90                	lw	a2,24(a5)
     536:	01010e93          	addi	t4,sp,16
     53a:	974a                	add	a4,a4,s2
     53c:	460a8793          	addi	a5,s5,1120
     540:	9776                	add	a4,a4,t4
     542:	97ce                	add	a5,a5,s3
     544:	c43a                	sw	a4,8(sp)
     546:	97f6                	add	a5,a5,t4
     548:	48048713          	addi	a4,s1,1152
     54c:	49c4a023          	sw	t3,1152(s1)
     550:	c23e                	sw	a5,4(sp)
     552:	47a2                	lw	a5,8(sp)
     554:	cf54                	sw	a3,28(a4)
     556:	00672223          	sw	t1,4(a4)
     55a:	4692                	lw	a3,4(sp)
     55c:	01172423          	sw	a7,8(a4)
     560:	01072623          	sw	a6,12(a4)
     564:	cb08                	sw	a0,16(a4)
     566:	cb4c                	sw	a1,20(a4)
     568:	cf10                	sw	a2,24(a4)
     56a:	4712                	lw	a4,4(sp)
     56c:	97d2                	add	a5,a5,s4
     56e:	92078793          	addi	a5,a5,-1760
     572:	e0070713          	addi	a4,a4,-512
     576:	2a068693          	addi	a3,a3,672
     57a:	00072803          	lw	a6,0(a4)
     57e:	4348                	lw	a0,4(a4)
     580:	470c                	lw	a1,8(a4)
     582:	4750                	lw	a2,12(a4)
     584:	0107a023          	sw	a6,0(a5)
     588:	c3c8                	sw	a0,4(a5)
     58a:	c78c                	sw	a1,8(a5)
     58c:	c7d0                	sw	a2,12(a5)
     58e:	0741                	addi	a4,a4,16
     590:	07c1                	addi	a5,a5,16
     592:	fed714e3          	bne	a4,a3,57a <main+0x364>
    hash_h(sk + KYBER_SECRETKEYBYTES - 2 * KYBER_SYMBYTES, pk, KYBER_PUBLICKEYBYTES);
     596:	6a8d                	lui	s5,0x3
     598:	7979                	lui	s2,0xffffe
     59a:	4a090793          	addi	a5,s2,1184 # ffffe4a0 <_sp+0xfff1dbc0>
     59e:	460a8713          	addi	a4,s5,1120 # 3460 <keccak_absorb.constprop.0+0x86>
     5a2:	7a75                	lui	s4,0xffffd
     5a4:	973e                	add	a4,a4,a5
     5a6:	081c                	addi	a5,sp,16
     5a8:	00f704b3          	add	s1,a4,a5
     5ac:	e00a0b13          	addi	s6,s4,-512 # ffffce00 <_sp+0xfff1c520>
     5b0:	460a8793          	addi	a5,s5,1120
     5b4:	0818                	addi	a4,sp,16
     5b6:	6985                	lui	s3,0x1
     5b8:	97da                	add	a5,a5,s6
     5ba:	00e78b33          	add	s6,a5,a4
     5be:	92098513          	addi	a0,s3,-1760 # 920 <main+0x70a>
     5c2:	85da                	mv	a1,s6
     5c4:	9526                	add	a0,a0,s1
     5c6:	787020ef          	jal	ra,354c <sha3_256.constprop.0>
    memcpy(sk + KYBER_SECRETKEYBYTES - KYBER_SYMBYTES, coins + KYBER_SYMBYTES, KYBER_SYMBYTES);
     5ca:	bc0a0793          	addi	a5,s4,-1088
     5ce:	460a8713          	addi	a4,s5,1120
     5d2:	973e                	add	a4,a4,a5
     5d4:	081c                	addi	a5,sp,16
     5d6:	97ba                	add	a5,a5,a4
     5d8:	0207a303          	lw	t1,32(a5)
     5dc:	0247a883          	lw	a7,36(a5)
     5e0:	0287a803          	lw	a6,40(a5)
     5e4:	57c8                	lw	a0,44(a5)
     5e6:	5b8c                	lw	a1,48(a5)
     5e8:	5bd0                	lw	a2,52(a5)
     5ea:	5f94                	lw	a3,56(a5)
     5ec:	5fd8                	lw	a4,60(a5)
     5ee:	94098793          	addi	a5,s3,-1728
     5f2:	97a6                	add	a5,a5,s1
     5f4:	0067a023          	sw	t1,0(a5)
     5f8:	0117a223          	sw	a7,4(a5)
     5fc:	0107a423          	sw	a6,8(a5)
     600:	c7c8                	sw	a0,12(a5)
     602:	cb8c                	sw	a1,16(a5)
     604:	cbd0                	sw	a2,20(a5)
     606:	cf94                	sw	a3,24(a5)
     608:	cfd8                	sw	a4,28(a5)
    // Key-pair generation
    crypto_kem_keypair(pk, sk_a);
    CSR_READ(CSR_REG_MCYCLE, &cycles_keygen);
     60a:	b00025f3          	csrr	a1,mcycle
    printf("Number of clock cycles keygen: %d\n", cycles_keygen);
     60e:	00080537          	lui	a0,0x80
     612:	0f050513          	addi	a0,a0,240 # 800f0 <no_exception_handler_msg+0x5b>
     616:	4b6050ef          	jal	ra,5acc <iprintf>

    //printbytes(pk, CRYPTO_PUBLICKEYBYTES);
    //printbytes(sk_a, CRYPTO_SECRETKEYBYTES);

    // Encapsulation
    CSR_WRITE(CSR_REG_MCYCLE, 0);
     61a:	4b81                	li	s7,0
     61c:	b00b9073          	csrw	mcycle,s7
        const uint8_t *coins) {
    uint8_t buf[2 * KYBER_SYMBYTES];
    /* Will contain key, coins */
    uint8_t kr[2 * KYBER_SYMBYTES];

    memcpy(buf, coins, KYBER_SYMBYTES);
     620:	460a8793          	addi	a5,s5,1120
     624:	0818                	addi	a4,sp,16
     626:	97d2                	add	a5,a5,s4
     628:	97ba                	add	a5,a5,a4
**************************************************/
int PQCLEAN_KYBER768_CLEAN_crypto_kem_enc(uint8_t *ct,
        uint8_t *ss,
        const uint8_t *pk) {
    uint8_t coins[KYBER_SYMBYTES];
    randombytes(coins, KYBER_SYMBYTES);
     62a:	2a0a0513          	addi	a0,s4,672
    memcpy(buf, coins, KYBER_SYMBYTES);
     62e:	c23e                	sw	a5,4(sp)
    randombytes(coins, KYBER_SYMBYTES);
     630:	460a8793          	addi	a5,s5,1120
     634:	97aa                	add	a5,a5,a0
     636:	00e78533          	add	a0,a5,a4
     63a:	02000593          	li	a1,32
     63e:	2d7020ef          	jal	ra,3114 <randombytes>
    memcpy(buf, coins, KYBER_SYMBYTES);
     642:	4792                	lw	a5,4(sp)
    hash_h(buf + KYBER_SYMBYTES, pk, KYBER_PUBLICKEYBYTES);
     644:	ea090893          	addi	a7,s2,-352
     648:	080c                	addi	a1,sp,16
    memcpy(buf, coins, KYBER_SYMBYTES);
     64a:	2a07af03          	lw	t5,672(a5)
     64e:	2a47ae83          	lw	t4,676(a5)
     652:	2a87ae03          	lw	t3,680(a5)
     656:	2ac7a303          	lw	t1,684(a5)
     65a:	2b07a803          	lw	a6,688(a5)
     65e:	2b87a683          	lw	a3,696(a5)
     662:	2b47a603          	lw	a2,692(a5)
     666:	2bc7a703          	lw	a4,700(a5)
    hash_h(buf + KYBER_SYMBYTES, pk, KYBER_PUBLICKEYBYTES);
     66a:	460a8793          	addi	a5,s5,1120
     66e:	97c6                	add	a5,a5,a7
     670:	00b78a33          	add	s4,a5,a1
    memcpy(buf, coins, KYBER_SYMBYTES);
     674:	460a8793          	addi	a5,s5,1120
     678:	97ca                	add	a5,a5,s2
     67a:	97ae                	add	a5,a5,a1
     67c:	ebe7a023          	sw	t5,-352(a5)
     680:	ebd7a223          	sw	t4,-348(a5)
     684:	ebc7a423          	sw	t3,-344(a5)
     688:	ea67a623          	sw	t1,-340(a5)
     68c:	eb07a823          	sw	a6,-336(a5)
     690:	ead7ac23          	sw	a3,-328(a5)
    hash_h(buf + KYBER_SYMBYTES, pk, KYBER_PUBLICKEYBYTES);
     694:	85da                	mv	a1,s6
     696:	020a0513          	addi	a0,s4,32
    memcpy(buf, coins, KYBER_SYMBYTES);
     69a:	eac7aa23          	sw	a2,-332(a5)
     69e:	eae7ae23          	sw	a4,-324(a5)
    hash_h(buf + KYBER_SYMBYTES, pk, KYBER_PUBLICKEYBYTES);
     6a2:	6ab020ef          	jal	ra,354c <sha3_256.constprop.0>
    memcpy(buf, coins, KYBER_SYMBYTES);
     6a6:	84d6                	mv	s1,s5
    hash_g(kr, buf, 2 * KYBER_SYMBYTES);
     6a8:	7afd                	lui	s5,0xfffff
     6aa:	e00a8a93          	addi	s5,s5,-512 # ffffee00 <_sp+0xfff1e520>
     6ae:	46048793          	addi	a5,s1,1120
     6b2:	0818                	addi	a4,sp,16
     6b4:	97d6                	add	a5,a5,s5
     6b6:	00e78ab3          	add	s5,a5,a4
     6ba:	85d2                	mv	a1,s4
     6bc:	8556                	mv	a0,s5
     6be:	04000613          	li	a2,64
     6c2:	16f020ef          	jal	ra,3030 <sha3_512>
     6c6:	8c26                	mv	s8,s1
    PQCLEAN_KYBER768_CLEAN_indcpa_enc(ct, buf, pk, kr + KYBER_SYMBYTES);
     6c8:	460c0793          	addi	a5,s8,1120
     6cc:	8a090493          	addi	s1,s2,-1888
     6d0:	0818                	addi	a4,sp,16
     6d2:	97a6                	add	a5,a5,s1
     6d4:	00e784b3          	add	s1,a5,a4
     6d8:	020a8693          	addi	a3,s5,32
     6dc:	865a                	mv	a2,s6
     6de:	85d2                	mv	a1,s4
     6e0:	8526                	mv	a0,s1
     6e2:	664030ef          	jal	ra,3d46 <PQCLEAN_KYBER768_CLEAN_indcpa_enc>
    memcpy(ss, kr, KYBER_SYMBYTES);
     6e6:	0818                	addi	a4,sp,16
     6e8:	460c0793          	addi	a5,s8,1120
     6ec:	97ba                	add	a5,a5,a4
     6ee:	413787b3          	sub	a5,a5,s3
     6f2:	4312                	lw	t1,4(sp)
     6f4:	e007a883          	lw	a7,-512(a5)
     6f8:	e047a803          	lw	a6,-508(a5)
     6fc:	e087a503          	lw	a0,-504(a5)
     700:	e0c7a583          	lw	a1,-500(a5)
     704:	e107a603          	lw	a2,-496(a5)
     708:	e147a683          	lw	a3,-492(a5)
     70c:	e187a703          	lw	a4,-488(a5)
     710:	e1c7a783          	lw	a5,-484(a5)
     714:	bb132023          	sw	a7,-1120(t1)
     718:	bb032223          	sw	a6,-1116(t1)
     71c:	baa32423          	sw	a0,-1112(t1)
     720:	bab32623          	sw	a1,-1108(t1)
     724:	bac32823          	sw	a2,-1104(t1)
     728:	bad32a23          	sw	a3,-1100(t1)
     72c:	bae32c23          	sw	a4,-1096(t1)
     730:	baf32e23          	sw	a5,-1092(t1)
    crypto_kem_enc(sendb, key_b, pk);
    CSR_READ(CSR_REG_MCYCLE, &cycles_enc);
     734:	b00025f3          	csrr	a1,mcycle
    printf("Number of clock cycles enc: %d\n", cycles_enc);
     738:	00080537          	lui	a0,0x80
     73c:	11450513          	addi	a0,a0,276 # 80114 <no_exception_handler_msg+0x7f>
     740:	38c050ef          	jal	ra,5acc <iprintf>

    //printbytes(sendb, CRYPTO_CIPHERTEXTBYTES);
    //printbytes(key_b, CRYPTO_BYTES);

    // Decapsulation
    CSR_WRITE(CSR_REG_MCYCLE, 0);
     744:	b00b9073          	csrw	mcycle,s7
                r->vec[i].coeffs[4 * j + k] = ((uint32_t)(t[k] & 0x3FF) * KYBER_Q + 512) >> 10;
     748:	6841                	lui	a6,0x10
     74a:	14048513          	addi	a0,s1,320
     74e:	88d2                	mv	a7,s4
    for (i = 0; i < KYBER_K; i++) {
     750:	4301                	li	t1,0
                r->vec[i].coeffs[4 * j + k] = ((uint32_t)(t[k] & 0x3FF) * KYBER_Q + 512) >> 10;
     752:	d0198593          	addi	a1,s3,-767
     756:	187d                	addi	a6,a6,-1
    for (i = 0; i < KYBER_K; i++) {
     758:	4e0d                	li	t3,3
     75a:	ec050693          	addi	a3,a0,-320
    for (i = 0; i < KYBER_K; i++) {
     75e:	8646                	mv	a2,a7
            t[0] = (a[0] >> 0) | ((uint16_t)a[1] << 8);
     760:	0016c703          	lbu	a4,1(a3)
     764:	0006c283          	lbu	t0,0(a3)
            t[1] = (a[1] >> 2) | ((uint16_t)a[2] << 6);
     768:	0026cf03          	lbu	t5,2(a3)
     76c:	00871793          	slli	a5,a4,0x8
     770:	0057e7b3          	or	a5,a5,t0
                r->vec[i].coeffs[4 * j + k] = ((uint32_t)(t[k] & 0x3FF) * KYBER_Q + 512) >> 10;
     774:	3ff7f793          	andi	a5,a5,1023
            t[1] = (a[1] >> 2) | ((uint16_t)a[2] << 6);
     778:	00275293          	srli	t0,a4,0x2
     77c:	006f1713          	slli	a4,t5,0x6
     780:	00576733          	or	a4,a4,t0
                r->vec[i].coeffs[4 * j + k] = ((uint32_t)(t[k] & 0x3FF) * KYBER_Q + 512) >> 10;
     784:	02b787b3          	mul	a5,a5,a1
     788:	3ff77713          	andi	a4,a4,1023
            t[2] = (a[2] >> 4) | ((uint16_t)a[3] << 4);
     78c:	0036cf83          	lbu	t6,3(a3)
            t[3] = (a[3] >> 6) | ((uint16_t)a[4] << 2);
     790:	0046ce83          	lbu	t4,4(a3)
            t[2] = (a[2] >> 4) | ((uint16_t)a[3] << 4);
     794:	004f5293          	srli	t0,t5,0x4
     798:	004f9f13          	slli	t5,t6,0x4
            t[3] = (a[3] >> 6) | ((uint16_t)a[4] << 2);
     79c:	0e8a                	slli	t4,t4,0x2
     79e:	006fdf93          	srli	t6,t6,0x6
            t[2] = (a[2] >> 4) | ((uint16_t)a[3] << 4);
     7a2:	005f6f33          	or	t5,t5,t0
        for (j = 0; j < KYBER_N / 4; j++) {
     7a6:	0621                	addi	a2,a2,8
                r->vec[i].coeffs[4 * j + k] = ((uint32_t)(t[k] & 0x3FF) * KYBER_Q + 512) >> 10;
     7a8:	02b70733          	mul	a4,a4,a1
     7ac:	20078793          	addi	a5,a5,512
     7b0:	83a9                	srli	a5,a5,0xa
     7b2:	07c2                	slli	a5,a5,0x10
     7b4:	83c1                	srli	a5,a5,0x10
     7b6:	0107f7b3          	and	a5,a5,a6
            t[3] = (a[3] >> 6) | ((uint16_t)a[4] << 2);
     7ba:	01feeeb3          	or	t4,t4,t6
                r->vec[i].coeffs[4 * j + k] = ((uint32_t)(t[k] & 0x3FF) * KYBER_Q + 512) >> 10;
     7be:	3fff7f13          	andi	t5,t5,1023
            a += 5;
     7c2:	0695                	addi	a3,a3,5
                r->vec[i].coeffs[4 * j + k] = ((uint32_t)(t[k] & 0x3FF) * KYBER_Q + 512) >> 10;
     7c4:	20070713          	addi	a4,a4,512
     7c8:	8329                	srli	a4,a4,0xa
     7ca:	0742                	slli	a4,a4,0x10
     7cc:	8fd9                	or	a5,a5,a4
     7ce:	02bf0f33          	mul	t5,t5,a1
     7d2:	fef62c23          	sw	a5,-8(a2)
     7d6:	02be87b3          	mul	a5,t4,a1
     7da:	200f0713          	addi	a4,t5,512
     7de:	8329                	srli	a4,a4,0xa
     7e0:	fee61e23          	sh	a4,-4(a2)
     7e4:	20078793          	addi	a5,a5,512
     7e8:	83a9                	srli	a5,a5,0xa
     7ea:	fef61f23          	sh	a5,-2(a2)
        for (j = 0; j < KYBER_N / 4; j++) {
     7ee:	f6a699e3          	bne	a3,a0,760 <main+0x54a>
    for (i = 0; i < KYBER_K; i++) {
     7f2:	0305                	addi	t1,t1,1
     7f4:	14068513          	addi	a0,a3,320
     7f8:	20088893          	addi	a7,a7,512
     7fc:	f5c31fe3          	bne	t1,t3,75a <main+0x544>
     800:	670d                	lui	a4,0x3
     802:	7579                	lui	a0,0xffffe
     804:	8a050513          	addi	a0,a0,-1888 # ffffd8a0 <_sp+0xfff1cfc0>
     808:	46070793          	addi	a5,a4,1120 # 3460 <keccak_absorb.constprop.0+0x86>
     80c:	0814                	addi	a3,sp,16
     80e:	97aa                	add	a5,a5,a0
     810:	79f5                	lui	s3,0xffffd
     812:	00d78533          	add	a0,a5,a3
     816:	c0098993          	addi	s3,s3,-1024 # ffffcc00 <_sp+0xfff1c320>
     81a:	46070793          	addi	a5,a4,1120
     81e:	97ce                	add	a5,a5,s3
     820:	00d789b3          	add	s3,a5,a3
        r->coeffs[2 * i + 0] = (((uint16_t)(a[0] & 15) * KYBER_Q) + 8) >> 4;
     824:	6585                	lui	a1,0x1
     826:	6841                	lui	a6,0x10
     828:	3c050693          	addi	a3,a0,960
     82c:	864e                	mv	a2,s3
     82e:	d0158593          	addi	a1,a1,-767 # d01 <main+0xaeb>
     832:	187d                	addi	a6,a6,-1
    for (i = 0; i < KYBER_N / 2; i++) {
     834:	74f9                	lui	s1,0xffffe
     836:	44050513          	addi	a0,a0,1088
        r->coeffs[2 * i + 0] = (((uint16_t)(a[0] & 15) * KYBER_Q) + 8) >> 4;
     83a:	0006c703          	lbu	a4,0(a3)
    for (i = 0; i < KYBER_N / 2; i++) {
     83e:	0611                	addi	a2,a2,4
        a += 1;
     840:	0685                	addi	a3,a3,1
        r->coeffs[2 * i + 0] = (((uint16_t)(a[0] & 15) * KYBER_Q) + 8) >> 4;
     842:	00f77793          	andi	a5,a4,15
     846:	02b787b3          	mul	a5,a5,a1
        r->coeffs[2 * i + 1] = (((uint16_t)(a[0] >> 4) * KYBER_Q) + 8) >> 4;
     84a:	8311                	srli	a4,a4,0x4
     84c:	02b70733          	mul	a4,a4,a1
        r->coeffs[2 * i + 0] = (((uint16_t)(a[0] & 15) * KYBER_Q) + 8) >> 4;
     850:	07a1                	addi	a5,a5,8
     852:	8791                	srai	a5,a5,0x4
     854:	07c2                	slli	a5,a5,0x10
     856:	83c1                	srli	a5,a5,0x10
     858:	0107f7b3          	and	a5,a5,a6
        r->coeffs[2 * i + 1] = (((uint16_t)(a[0] >> 4) * KYBER_Q) + 8) >> 4;
     85c:	0721                	addi	a4,a4,8
     85e:	8711                	srai	a4,a4,0x4
        r->coeffs[2 * i + 0] = (((uint16_t)(a[0] & 15) * KYBER_Q) + 8) >> 4;
     860:	0742                	slli	a4,a4,0x10
     862:	8fd9                	or	a5,a5,a4
     864:	fef62e23          	sw	a5,-4(a2)
    for (i = 0; i < KYBER_N / 2; i++) {
     868:	fca699e3          	bne	a3,a0,83a <main+0x624>
    PQCLEAN_KYBER768_CLEAN_polyvec_frombytes(sk, packedsk);
     86c:	6a8d                	lui	s5,0x3
     86e:	7a7d                	lui	s4,0xfffff
     870:	e00a0a13          	addi	s4,s4,-512 # ffffee00 <_sp+0xfff1e520>
     874:	460a8793          	addi	a5,s5,1120 # 3460 <keccak_absorb.constprop.0+0x86>
     878:	0818                	addi	a4,sp,16
     87a:	97d2                	add	a5,a5,s4
     87c:	00e78a33          	add	s4,a5,a4
     880:	4a048593          	addi	a1,s1,1184 # ffffe4a0 <_sp+0xfff1dbc0>
     884:	460a8793          	addi	a5,s5,1120
     888:	97ae                	add	a5,a5,a1
     88a:	00e785b3          	add	a1,a5,a4
     88e:	8552                	mv	a0,s4
     890:	099000ef          	jal	ra,1128 <PQCLEAN_KYBER768_CLEAN_polyvec_frombytes>
    poly v, mp;

    unpack_ciphertext(&b, &v, c);
    unpack_sk(&skpv, sk);

    PQCLEAN_KYBER768_CLEAN_polyvec_ntt(&b);
     894:	ea048493          	addi	s1,s1,-352
     898:	460a8793          	addi	a5,s5,1120
     89c:	97a6                	add	a5,a5,s1
     89e:	0818                	addi	a4,sp,16
     8a0:	00e784b3          	add	s1,a5,a4
     8a4:	8526                	mv	a0,s1
     8a6:	0cf000ef          	jal	ra,1174 <PQCLEAN_KYBER768_CLEAN_polyvec_ntt>
   //ntt_dr(b.vec[0].coeffs, b.vec[0].coeffs);
   //ntt_dr(b.vec[1].coeffs, b.vec[1].coeffs);
   //ntt_dr(b.vec[2].coeffs, b.vec[2].coeffs);
    
    PQCLEAN_KYBER768_CLEAN_polyvec_basemul_acc_montgomery(&mp, &skpv, &b);
     8aa:	7975                	lui	s2,0xffffd
     8ac:	2a090913          	addi	s2,s2,672 # ffffd2a0 <_sp+0xfff1c9c0>
     8b0:	460a8793          	addi	a5,s5,1120
     8b4:	97ca                	add	a5,a5,s2
     8b6:	0818                	addi	a4,sp,16
     8b8:	00e78933          	add	s2,a5,a4
     8bc:	8626                	mv	a2,s1
     8be:	854a                	mv	a0,s2
     8c0:	85d2                	mv	a1,s4
     8c2:	47d000ef          	jal	ra,153e <PQCLEAN_KYBER768_CLEAN_polyvec_basemul_acc_montgomery>
    PQCLEAN_KYBER768_CLEAN_invntt(r->coeffs);
     8c6:	854a                	mv	a0,s2
     8c8:	84ca                	mv	s1,s2
     8ca:	1cd000ef          	jal	ra,1296 <PQCLEAN_KYBER768_CLEAN_invntt>
*            - const poly *a: pointer to first input polynomial
*            - const poly *b: pointer to second input polynomial
**************************************************/
void PQCLEAN_KYBER768_CLEAN_poly_sub(poly *r, const poly *a, const poly *b) {
    size_t i;
    for (i = 0; i < KYBER_N; i++) {
     8ce:	20090913          	addi	s2,s2,512
    PQCLEAN_KYBER768_CLEAN_invntt(r->coeffs);
     8d2:	87a6                	mv	a5,s1
        r->coeffs[i] = a->coeffs[i] - b->coeffs[i];
     8d4:	0007d683          	lhu	a3,0(a5)
     8d8:	0009d703          	lhu	a4,0(s3)
    for (i = 0; i < KYBER_N; i++) {
     8dc:	0789                	addi	a5,a5,2
     8de:	0989                	addi	s3,s3,2
        r->coeffs[i] = a->coeffs[i] - b->coeffs[i];
     8e0:	8f15                	sub	a4,a4,a3
     8e2:	fee79f23          	sh	a4,-2(a5)
    for (i = 0; i < KYBER_N; i++) {
     8e6:	fef917e3          	bne	s2,a5,8d4 <main+0x6be>
    
    PQCLEAN_KYBER768_CLEAN_poly_invntt_tomont(&mp);
    //intt_driver(mp.coeffs, mp.coeffs);

    PQCLEAN_KYBER768_CLEAN_poly_sub(&mp, &v, &mp);
    PQCLEAN_KYBER768_CLEAN_poly_reduce(&mp);
     8ea:	79f5                	lui	s3,0xffffd
     8ec:	6a0d                	lui	s4,0x3
     8ee:	2a098513          	addi	a0,s3,672 # ffffd2a0 <_sp+0xfff1c9c0>
     8f2:	460a0793          	addi	a5,s4,1120 # 3460 <keccak_absorb.constprop.0+0x86>
     8f6:	97aa                	add	a5,a5,a0
     8f8:	0818                	addi	a4,sp,16
     8fa:	00e78533          	add	a0,a5,a4
     8fe:	2531                	jal	f0a <PQCLEAN_KYBER768_CLEAN_poly_reduce>
    for (i = 0; i < KYBER_N / 8; i++) {
     900:	bc098593          	addi	a1,s3,-1088
     904:	460a0793          	addi	a5,s4,1120
     908:	97ae                	add	a5,a5,a1
     90a:	0818                	addi	a4,sp,16
            t *= 80635;
     90c:	6651                	lui	a2,0x14
     90e:	00e785b3          	add	a1,a5,a4
     912:	afb60613          	addi	a2,a2,-1285 # 13afb <randombytes.c.450fd1c4+0x44a5>
            t  = a->coeffs[8 * i + j];
     916:	00049503          	lh	a0,0(s1)
     91a:	00e49783          	lh	a5,14(s1)
     91e:	00249683          	lh	a3,2(s1)
     922:	00449703          	lh	a4,4(s1)
            t <<= 1;
     926:	0506                	slli	a0,a0,0x1
     928:	0786                	slli	a5,a5,0x1
            t += 1665;
     92a:	68150513          	addi	a0,a0,1665
            t <<= 1;
     92e:	0686                	slli	a3,a3,0x1
            t += 1665;
     930:	68178793          	addi	a5,a5,1665
            t *= 80635;
     934:	02c50533          	mul	a0,a0,a2
            t += 1665;
     938:	68168693          	addi	a3,a3,1665
            t <<= 1;
     93c:	0706                	slli	a4,a4,0x1
            t += 1665;
     93e:	68170713          	addi	a4,a4,1665
            t  = a->coeffs[8 * i + j];
     942:	00649e03          	lh	t3,6(s1)
     946:	00849303          	lh	t1,8(s1)
     94a:	00a49883          	lh	a7,10(s1)
            t <<= 1;
     94e:	0e06                	slli	t3,t3,0x1
            t += 1665;
     950:	681e0e13          	addi	t3,t3,1665
            t <<= 1;
     954:	0306                	slli	t1,t1,0x1
            t *= 80635;
     956:	02c787b3          	mul	a5,a5,a2
            t >>= 28;
     95a:	8171                	srli	a0,a0,0x1c
            t &= 1;
     95c:	8905                	andi	a0,a0,1
            t += 1665;
     95e:	68130313          	addi	t1,t1,1665
            t  = a->coeffs[8 * i + j];
     962:	00c49803          	lh	a6,12(s1)
            t <<= 1;
     966:	0886                	slli	a7,a7,0x1
            t += 1665;
     968:	68188893          	addi	a7,a7,1665
            t <<= 1;
     96c:	0806                	slli	a6,a6,0x1
            t += 1665;
     96e:	68180813          	addi	a6,a6,1665 # 10681 <randombytes.c.450fd1c4+0x102b>
    for (i = 0; i < KYBER_N / 8; i++) {
     972:	0585                	addi	a1,a1,1
            t *= 80635;
     974:	02c686b3          	mul	a3,a3,a2
            t >>= 28;
     978:	83f1                	srli	a5,a5,0x1c
            msg[i] |= t << j;
     97a:	079e                	slli	a5,a5,0x7
     97c:	8fc9                	or	a5,a5,a0
    for (i = 0; i < KYBER_N / 8; i++) {
     97e:	04c1                	addi	s1,s1,16
            t *= 80635;
     980:	02c70733          	mul	a4,a4,a2
            msg[i] |= t << j;
     984:	82ed                	srli	a3,a3,0x1b
     986:	8a89                	andi	a3,a3,2
     988:	8fd5                	or	a5,a5,a3
     98a:	8369                	srli	a4,a4,0x1a
     98c:	8b11                	andi	a4,a4,4
            t *= 80635;
     98e:	02ce06b3          	mul	a3,t3,a2
            msg[i] |= t << j;
     992:	8fd9                	or	a5,a5,a4
            t *= 80635;
     994:	02c30733          	mul	a4,t1,a2
            msg[i] |= t << j;
     998:	82e5                	srli	a3,a3,0x19
     99a:	8aa1                	andi	a3,a3,8
     99c:	8fd5                	or	a5,a5,a3
     99e:	8361                	srli	a4,a4,0x18
     9a0:	8b41                	andi	a4,a4,16
            t *= 80635;
     9a2:	02c886b3          	mul	a3,a7,a2
            msg[i] |= t << j;
     9a6:	8fd9                	or	a5,a5,a4
            t *= 80635;
     9a8:	02c80733          	mul	a4,a6,a2
            msg[i] |= t << j;
     9ac:	82dd                	srli	a3,a3,0x17
     9ae:	0206f693          	andi	a3,a3,32
     9b2:	8fd5                	or	a5,a5,a3
     9b4:	8359                	srli	a4,a4,0x16
     9b6:	04077713          	andi	a4,a4,64
     9ba:	8fd9                	or	a5,a5,a4
     9bc:	fef58fa3          	sb	a5,-1(a1)
    for (i = 0; i < KYBER_N / 8; i++) {
     9c0:	f4991be3          	bne	s2,s1,916 <main+0x700>
    const uint8_t *pk = sk + KYBER_INDCPA_SECRETKEYBYTES;

    PQCLEAN_KYBER768_CLEAN_indcpa_dec(buf, ct, sk);

    /* Multitarget countermeasure for coins + contributory KEM */
    memcpy(buf + KYBER_SYMBYTES, sk + KYBER_SECRETKEYBYTES - 2 * KYBER_SYMBYTES, KYBER_SYMBYTES);
     9c4:	7979                	lui	s2,0xffffe
     9c6:	658d                	lui	a1,0x3
     9c8:	4a090a13          	addi	s4,s2,1184 # ffffe4a0 <_sp+0xfff1dbc0>
     9cc:	46058793          	addi	a5,a1,1120 # 3460 <keccak_absorb.constprop.0+0x86>
     9d0:	97d2                	add	a5,a5,s4
     9d2:	0818                	addi	a4,sp,16
     9d4:	00e78a33          	add	s4,a5,a4
     9d8:	79f5                	lui	s3,0xffffd
     9da:	6785                	lui	a5,0x1
     9dc:	8b2e                	mv	s6,a1
     9de:	bc098993          	addi	s3,s3,-1088 # ffffcbc0 <_sp+0xfff1c2e0>
     9e2:	92078793          	addi	a5,a5,-1760 # 920 <main+0x70a>
     9e6:	46058593          	addi	a1,a1,1120
     9ea:	97d2                	add	a5,a5,s4
     9ec:	0808                	addi	a0,sp,16
     9ee:	95ce                	add	a1,a1,s3
     9f0:	00a589b3          	add	s3,a1,a0
     9f4:	4390                	lw	a2,0(a5)
     9f6:	0047ae03          	lw	t3,4(a5)
     9fa:	0087a303          	lw	t1,8(a5)
     9fe:	00c7a883          	lw	a7,12(a5)
     a02:	0107a803          	lw	a6,16(a5)
     a06:	4bd4                	lw	a3,20(a5)
     a08:	4f98                	lw	a4,24(a5)
    hash_g(kr, buf, 2 * KYBER_SYMBYTES);
     a0a:	ea090a93          	addi	s5,s2,-352
    memcpy(buf + KYBER_SYMBYTES, sk + KYBER_SECRETKEYBYTES - 2 * KYBER_SYMBYTES, KYBER_SYMBYTES);
     a0e:	4fdc                	lw	a5,28(a5)
    hash_g(kr, buf, 2 * KYBER_SYMBYTES);
     a10:	460b0593          	addi	a1,s6,1120
     a14:	95d6                	add	a1,a1,s5
     a16:	00a58ab3          	add	s5,a1,a0
    memcpy(buf + KYBER_SYMBYTES, sk + KYBER_SECRETKEYBYTES - 2 * KYBER_SYMBYTES, KYBER_SYMBYTES);
     a1a:	02c9a023          	sw	a2,32(s3)
    hash_g(kr, buf, 2 * KYBER_SYMBYTES);
     a1e:	85ce                	mv	a1,s3
     a20:	04000613          	li	a2,64
     a24:	8556                	mv	a0,s5
    memcpy(buf + KYBER_SYMBYTES, sk + KYBER_SECRETKEYBYTES - 2 * KYBER_SYMBYTES, KYBER_SYMBYTES);
     a26:	03c9a223          	sw	t3,36(s3)
     a2a:	0269a423          	sw	t1,40(s3)
     a2e:	0319a623          	sw	a7,44(s3)
     a32:	0309a823          	sw	a6,48(s3)
     a36:	02d9aa23          	sw	a3,52(s3)
     a3a:	02e9ac23          	sw	a4,56(s3)
     a3e:	02f9ae23          	sw	a5,60(s3)
    hash_g(kr, buf, 2 * KYBER_SYMBYTES);
     a42:	5ee020ef          	jal	ra,3030 <sha3_512>

    /* coins are in kr+KYBER_SYMBYTES */
    PQCLEAN_KYBER768_CLEAN_indcpa_enc(cmp, buf, pk, kr + KYBER_SYMBYTES);
     a46:	77fd                	lui	a5,0xfffff
     a48:	e0078793          	addi	a5,a5,-512 # ffffee00 <_sp+0xfff1e520>
     a4c:	460b0713          	addi	a4,s6,1120
     a50:	973e                	add	a4,a4,a5
     a52:	081c                	addi	a5,sp,16
     a54:	00f704b3          	add	s1,a4,a5
     a58:	020a8693          	addi	a3,s5,32
     a5c:	480a0613          	addi	a2,s4,1152
     a60:	8526                	mv	a0,s1
     a62:	85ce                	mv	a1,s3
     a64:	2e2030ef          	jal	ra,3d46 <PQCLEAN_KYBER768_CLEAN_indcpa_enc>
     a68:	8a090713          	addi	a4,s2,-1888
     a6c:	460b0693          	addi	a3,s6,1120
     a70:	96ba                	add	a3,a3,a4
     a72:	0818                	addi	a4,sp,16
     a74:	87a6                	mv	a5,s1
     a76:	9736                	add	a4,a4,a3
     a78:	44048513          	addi	a0,s1,1088
     a7c:	4601                	li	a2,0
int PQCLEAN_KYBER768_CLEAN_verify(const uint8_t *a, const uint8_t *b, size_t len) {
    size_t i;
    uint8_t r = 0;

    for (i = 0; i < len; i++) {
        r |= a[i] ^ b[i];
     a7e:	4394                	lw	a3,0(a5)
     a80:	430c                	lw	a1,0(a4)
     a82:	0791                	addi	a5,a5,4
     a84:	0711                	addi	a4,a4,4
     a86:	8ead                	xor	a3,a3,a1
     a88:	8e55                	or	a2,a2,a3
     a8a:	fea79ae3          	bne	a5,a0,a7e <main+0x868>
    }

    return (-(uint64_t)r) >> 63;
     a8e:	00865493          	srli	s1,a2,0x8
     a92:	01065793          	srli	a5,a2,0x10
     a96:	8cd1                	or	s1,s1,a2
     a98:	8cdd                	or	s1,s1,a5
     a9a:	8261                	srli	a2,a2,0x18
     a9c:	8cd1                	or	s1,s1,a2
void shake128_inc_ctx_release(shake128incctx *state) {
    free(state->ctx);
}

void shake256_inc_init(shake256incctx *state) {
    state->ctx = malloc(PQC_SHAKEINCCTX_BYTES);
     a9e:	0d000513          	li	a0,208
     aa2:	0ff4f493          	zext.b	s1,s1
     aa6:	7c1040ef          	jal	ra,5a66 <malloc>
     aaa:	009034b3          	snez	s1,s1
     aae:	892a                	mv	s2,a0
    if (state->ctx == NULL) {
     ab0:	2c050563          	beqz	a0,d7a <main+0xb64>
        s_inc[i] = 0;
     ab4:	0c800613          	li	a2,200
     ab8:	4581                	li	a1,0
     aba:	17a040ef          	jal	ra,4c34 <memset>
    }
    keccak_inc_init(state->ctx);
}

void shake256_inc_absorb(shake256incctx *state, const uint8_t *input, size_t inlen) {
    keccak_inc_absorb(state->ctx, SHAKE256_RATE, input, inlen);
     abe:	79f9                	lui	s3,0xffffe
     ac0:	6a0d                	lui	s4,0x3
     ac2:	4a098593          	addi	a1,s3,1184 # ffffe4a0 <_sp+0xfff1dbc0>
     ac6:	460a0793          	addi	a5,s4,1120 # 3460 <keccak_absorb.constprop.0+0x86>
     aca:	0818                	addi	a4,sp,16
     acc:	97ae                	add	a5,a5,a1
     ace:	00e785b3          	add	a1,a5,a4
     ad2:	6785                	lui	a5,0x1
     ad4:	94078793          	addi	a5,a5,-1728 # 940 <main+0x72a>
     ad8:	95be                	add	a1,a1,a5
    s_inc[25] = 0;
     ada:	4801                	li	a6,0
     adc:	4781                	li	a5,0
    keccak_inc_absorb(state->ctx, SHAKE256_RATE, input, inlen);
     ade:	02000613          	li	a2,32
     ae2:	854a                	mv	a0,s2
    s_inc[25] = 0;
     ae4:	0cf92423          	sw	a5,200(s2)
     ae8:	0d092623          	sw	a6,204(s2)
    keccak_inc_absorb(state->ctx, SHAKE256_RATE, input, inlen);
     aec:	345020ef          	jal	ra,3630 <keccak_inc_absorb.constprop.0>
     af0:	8a098593          	addi	a1,s3,-1888
     af4:	460a0793          	addi	a5,s4,1120
     af8:	97ae                	add	a5,a5,a1
     afa:	0818                	addi	a4,sp,16
     afc:	44000613          	li	a2,1088
     b00:	00e785b3          	add	a1,a5,a4
     b04:	854a                	mv	a0,s2
     b06:	32b020ef          	jal	ra,3630 <keccak_inc_absorb.constprop.0>
    s_inc[s_inc[25] >> 3] ^= (uint64_t)p << (8 * (s_inc[25] & 0x07));
     b0a:	0c892783          	lw	a5,200(s2)
     b0e:	0077f613          	andi	a2,a5,7
     b12:	060e                	slli	a2,a2,0x3
     b14:	9be1                	andi	a5,a5,-8
     b16:	fe060693          	addi	a3,a2,-32
     b1a:	97ca                	add	a5,a5,s2
     b1c:	2406c463          	bltz	a3,d64 <main+0xb4e>
     b20:	477d                	li	a4,31
     b22:	00d71733          	sll	a4,a4,a3
     b26:	4681                	li	a3,0
     b28:	438c                	lw	a1,0(a5)
     b2a:	43d0                	lw	a2,4(a5)
    h += i;
     b2c:	7a75                	lui	s4,0xffffd
    s_inc[s_inc[25] >> 3] ^= (uint64_t)p << (8 * (s_inc[25] & 0x07));
     b2e:	8ead                	xor	a3,a3,a1
     b30:	8f31                	xor	a4,a4,a2
     b32:	c3d8                	sw	a4,4(a5)
     b34:	c394                	sw	a3,0(a5)
    s_inc[(r - 1) >> 3] ^= (uint64_t)128 << (8 * ((r - 1) & 0x07));
     b36:	08492783          	lw	a5,132(s2)
     b3a:	80000737          	lui	a4,0x80000
    h += i;
     b3e:	2a0a0a13          	addi	s4,s4,672 # ffffd2a0 <_sp+0xfff1c9c0>
    s_inc[(r - 1) >> 3] ^= (uint64_t)128 << (8 * ((r - 1) & 0x07));
     b42:	8fb9                	xor	a5,a5,a4
     b44:	08f92223          	sw	a5,132(s2)
    s_inc[25] = 0;
     b48:	4781                	li	a5,0
     b4a:	0cf92423          	sw	a5,200(s2)
    h += i;
     b4e:	678d                	lui	a5,0x3
     b50:	46078793          	addi	a5,a5,1120 # 3460 <keccak_absorb.constprop.0+0x86>
    s_inc[25] = 0;
     b54:	4801                	li	a6,0
    h += i;
     b56:	97d2                	add	a5,a5,s4
     b58:	0818                	addi	a4,sp,16
    s_inc[25] = 0;
     b5a:	0d092623          	sw	a6,204(s2)
    outlen -= i;
     b5e:	02000993          	li	s3,32
    h += i;
     b62:	00e78a33          	add	s4,a5,a4
            h[i] = (uint8_t)(s_inc[i >> 3] >> (8 * (i & 0x07)));
     b66:	4b7d                	li	s6,31
        for (i = 0; i < outlen && i < r; i++) {
     b68:	08800a93          	li	s5,136
        KeccakF1600_StatePermute(s_inc);
     b6c:	854a                	mv	a0,s2
     b6e:	29d000ef          	jal	ra,160a <KeccakF1600_StatePermute>
        for (i = 0; i < outlen && i < r; i++) {
     b72:	4781                	li	a5,0
     b74:	a819                	j	b8a <main+0x974>
            h[i] = (uint8_t)(s_inc[i >> 3] >> (8 * (i & 0x07)));
     b76:	4358                	lw	a4,4(a4)
        for (i = 0; i < outlen && i < r; i++) {
     b78:	0785                	addi	a5,a5,1
            h[i] = (uint8_t)(s_inc[i >> 3] >> (8 * (i & 0x07)));
     b7a:	00c75733          	srl	a4,a4,a2
     b7e:	00e58023          	sb	a4,0(a1)
        for (i = 0; i < outlen && i < r; i++) {
     b82:	0337ff63          	bgeu	a5,s3,bc0 <main+0x9aa>
     b86:	1d578d63          	beq	a5,s5,d60 <main+0xb4a>
            h[i] = (uint8_t)(s_inc[i >> 3] >> (8 * (i & 0x07)));
     b8a:	0077f693          	andi	a3,a5,7
     b8e:	068e                	slli	a3,a3,0x3
     b90:	ff87f713          	andi	a4,a5,-8
     b94:	fe068613          	addi	a2,a3,-32
     b98:	00fa05b3          	add	a1,s4,a5
     b9c:	974a                	add	a4,a4,s2
     b9e:	fc065ce3          	bgez	a2,b76 <main+0x960>
     ba2:	4350                	lw	a2,4(a4)
     ba4:	4318                	lw	a4,0(a4)
     ba6:	40db0533          	sub	a0,s6,a3
     baa:	0606                	slli	a2,a2,0x1
     bac:	00a61633          	sll	a2,a2,a0
     bb0:	00d75733          	srl	a4,a4,a3
     bb4:	8f51                	or	a4,a4,a2
     bb6:	00e58023          	sb	a4,0(a1)
        for (i = 0; i < outlen && i < r; i++) {
     bba:	0785                	addi	a5,a5,1
     bbc:	fd37e5e3          	bltu	a5,s3,b86 <main+0x970>
        s_inc[25] = r - i;
     bc0:	40fa8733          	sub	a4,s5,a5
        outlen -= i;
     bc4:	40f989b3          	sub	s3,s3,a5
        s_inc[25] = r - i;
     bc8:	0ce92423          	sw	a4,200(s2)
     bcc:	0c092623          	sw	zero,204(s2)
        h += i;
     bd0:	9a3e                	add	s4,s4,a5
    while (outlen > 0) {
     bd2:	f8099de3          	bnez	s3,b6c <main+0x956>
    }
    memcpy(dest->ctx, src->ctx, PQC_SHAKEINCCTX_BYTES);
}

void shake256_inc_ctx_release(shake256incctx *state) {
    free(state->ctx);
     bd6:	854a                	mv	a0,s2
     bd8:	69b040ef          	jal	ra,5a72 <free>
void PQCLEAN_KYBER768_CLEAN_cmov(uint8_t *r, const uint8_t *x, size_t len, uint8_t b) {
    size_t i;

    b = -b;
    for (i = 0; i < len; i++) {
        r[i] ^= b & (r[i] ^ x[i]);
     bdc:	6b0d                	lui	s6,0x3
     bde:	7779                	lui	a4,0xffffe
     be0:	460b0693          	addi	a3,s6,1120 # 3460 <keccak_absorb.constprop.0+0x86>
     be4:	96ba                	add	a3,a3,a4
    b = -b;
     be6:	fff48793          	addi	a5,s1,-1
        r[i] ^= b & (r[i] ^ x[i]);
     bea:	0818                	addi	a4,sp,16
     bec:	9736                	add	a4,a4,a3
    b = -b;
     bee:	0ff7f793          	zext.b	a5,a5
        r[i] ^= b & (r[i] ^ x[i]);
     bf2:	71012283          	lw	t0,1808(sp)
     bf6:	71412f83          	lw	t6,1812(sp)
     bfa:	71812f03          	lw	t5,1816(sp)
     bfe:	71c12e83          	lw	t4,1820(sp)
     c02:	72012e03          	lw	t3,1824(sp)
     c06:	72412303          	lw	t1,1828(sp)
     c0a:	72812883          	lw	a7,1832(sp)
     c0e:	72c12803          	lw	a6,1836(sp)
     c12:	ea072983          	lw	s3,-352(a4) # ffffdea0 <_sp+0xfff1d5c0>
     c16:	ea472483          	lw	s1,-348(a4)
     c1a:	ea872383          	lw	t2,-344(a4)
     c1e:	eac72503          	lw	a0,-340(a4)
     c22:	eb072583          	lw	a1,-336(a4)
     c26:	eb472603          	lw	a2,-332(a4)
     c2a:	eb872683          	lw	a3,-328(a4)
     c2e:	00879a13          	slli	s4,a5,0x8
     c32:	ebc72703          	lw	a4,-324(a4)
     c36:	01079a93          	slli	s5,a5,0x10
     c3a:	0147ea33          	or	s4,a5,s4
     c3e:	015a6a33          	or	s4,s4,s5
     c42:	07e2                	slli	a5,a5,0x18
     c44:	00fa67b3          	or	a5,s4,a5
     c48:	00e84733          	xor	a4,a6,a4
     c4c:	0132c9b3          	xor	s3,t0,s3
     c50:	009fc4b3          	xor	s1,t6,s1
     c54:	007f43b3          	xor	t2,t5,t2
     c58:	00aec533          	xor	a0,t4,a0
     c5c:	00be45b3          	xor	a1,t3,a1
     c60:	00c34633          	xor	a2,t1,a2
     c64:	00d8c6b3          	xor	a3,a7,a3
     c68:	00f9f9b3          	and	s3,s3,a5
     c6c:	8cfd                	and	s1,s1,a5
     c6e:	00f3f3b3          	and	t2,t2,a5
     c72:	8efd                	and	a3,a3,a5
     c74:	8d7d                	and	a0,a0,a5
     c76:	8dfd                	and	a1,a1,a5
     c78:	8e7d                	and	a2,a2,a5
     c7a:	8ff9                	and	a5,a5,a4
     c7c:	0059c2b3          	xor	t0,s3,t0
     c80:	01f4cfb3          	xor	t6,s1,t6
     c84:	01e3cf33          	xor	t5,t2,t5
     c88:	01d54533          	xor	a0,a0,t4
     c8c:	01c5c5b3          	xor	a1,a1,t3
     c90:	00664633          	xor	a2,a2,t1
     c94:	0116c733          	xor	a4,a3,a7
     c98:	0107c7b3          	xor	a5,a5,a6
     c9c:	7975                	lui	s2,0xffffd
     c9e:	70512823          	sw	t0,1808(sp)
     ca2:	71f12a23          	sw	t6,1812(sp)
     ca6:	71e12c23          	sw	t5,1816(sp)
     caa:	70a12e23          	sw	a0,1820(sp)
     cae:	72b12023          	sw	a1,1824(sp)
     cb2:	72c12223          	sw	a2,1828(sp)
     cb6:	72e12423          	sw	a4,1832(sp)
     cba:	72f12623          	sw	a5,1836(sp)
    crypto_kem_dec(key_a, sendb, sk_a);
    CSR_READ(CSR_REG_MCYCLE, &cycles_dec);
     cbe:	b00025f3          	csrr	a1,mcycle
    printf("Number of clock cycles dec: %d\n", cycles_dec);
     cc2:	00080537          	lui	a0,0x80
     cc6:	13450513          	addi	a0,a0,308 # 80134 <no_exception_handler_msg+0x9f>
     cca:	603040ef          	jal	ra,5acc <iprintf>
    
    printbytes(key_a, CRYPTO_BYTES);
     cce:	2a090793          	addi	a5,s2,672 # ffffd2a0 <_sp+0xfff1c9c0>
     cd2:	460b0713          	addi	a4,s6,1120
     cd6:	973e                	add	a4,a4,a5
     cd8:	081c                	addi	a5,sp,16
     cda:	00f704b3          	add	s1,a4,a5
     cde:	8526                	mv	a0,s1
     ce0:	660030ef          	jal	ra,4340 <printbytes.constprop.0>
    printbytes(key_b, CRYPTO_BYTES);
     ce4:	ba090913          	addi	s2,s2,-1120
     ce8:	460b0793          	addi	a5,s6,1120
     cec:	97ca                	add	a5,a5,s2
     cee:	0818                	addi	a4,sp,16
     cf0:	00e78933          	add	s2,a5,a4
     cf4:	854a                	mv	a0,s2
     cf6:	64a030ef          	jal	ra,4340 <printbytes.constprop.0>


    for (j = 0; j < CRYPTO_BYTES; j++) {
     cfa:	87a6                	mv	a5,s1
     cfc:	874a                	mv	a4,s2
     cfe:	02048593          	addi	a1,s1,32
     d02:	a029                	j	d0c <main+0xaf6>
     d04:	0785                	addi	a5,a5,1
     d06:	0705                	addi	a4,a4,1
     d08:	06b78763          	beq	a5,a1,d76 <main+0xb60>
        if (key_a[j] != key_b[j]) {
     d0c:	0007c603          	lbu	a2,0(a5)
     d10:	00074683          	lbu	a3,0(a4)
     d14:	fed608e3          	beq	a2,a3,d04 <main+0xaee>
            printf("ERROR\n");
     d18:	00080537          	lui	a0,0x80
     d1c:	15450513          	addi	a0,a0,340 # 80154 <no_exception_handler_msg+0xbf>
     d20:	002040ef          	jal	ra,4d22 <puts>
            return -1;
     d24:	557d                	li	a0,-1
        }
    }

    //printf("Ends testvectors KEM!\n");
    return 0;
}
     d26:	628d                	lui	t0,0x3
     d28:	9116                	add	sp,sp,t0
     d2a:	49c12083          	lw	ra,1180(sp)
     d2e:	49812483          	lw	s1,1176(sp)
     d32:	49412903          	lw	s2,1172(sp)
     d36:	49012983          	lw	s3,1168(sp)
     d3a:	48c12a03          	lw	s4,1164(sp)
     d3e:	48812a83          	lw	s5,1160(sp)
     d42:	48412b03          	lw	s6,1156(sp)
     d46:	48012b83          	lw	s7,1152(sp)
     d4a:	47c12c03          	lw	s8,1148(sp)
     d4e:	47812c83          	lw	s9,1144(sp)
     d52:	47412d03          	lw	s10,1140(sp)
     d56:	47012d83          	lw	s11,1136(sp)
     d5a:	4a010113          	addi	sp,sp,1184
     d5e:	8082                	ret
     d60:	4701                	li	a4,0
     d62:	b58d                	j	bc4 <main+0x9ae>
    s_inc[s_inc[25] >> 3] ^= (uint64_t)p << (8 * (s_inc[25] & 0x07));
     d64:	46fd                	li	a3,31
     d66:	40c685b3          	sub	a1,a3,a2
     d6a:	473d                	li	a4,15
     d6c:	00b75733          	srl	a4,a4,a1
     d70:	00c696b3          	sll	a3,a3,a2
     d74:	bb55                	j	b28 <main+0x912>
    return 0;
     d76:	4501                	li	a0,0
     d78:	b77d                	j	d26 <main+0xb10>
        exit(111);
     d7a:	06f00513          	li	a0,111
     d7e:	c6eff0ef          	jal	ra,1ec <exit>

00000d82 <__no_irq_handler>:
/*	j __no_irq_handler */

.section .text.vecs
/* exception handling */
__no_irq_handler:
	la a0, no_exception_handler_msg
     d82:	0007f517          	auipc	a0,0x7f
     d86:	31350513          	addi	a0,a0,787 # 80095 <no_exception_handler_msg>
	jal ra, puts
     d8a:	799030ef          	jal	ra,4d22 <puts>
	j __no_irq_handler
     d8e:	ff5ff06f          	j	d82 <__no_irq_handler>

00000d92 <sw_irq_handler>:


sw_irq_handler:
	csrr t0, mcause
     d92:	342022f3          	csrr	t0,mcause
	slli t0, t0, 1  /* shift off the high bit */
     d96:	00129293          	slli	t0,t0,0x1
	srli t0, t0, 1
     d9a:	0012d293          	srli	t0,t0,0x1
	li t1, 2
     d9e:	00200313          	li	t1,2
	beq t0, t1, handle_illegal_insn
     da2:	02628c63          	beq	t0,t1,dda <handle_illegal_insn>
	li t1, 11
     da6:	00b00313          	li	t1,11
	beq t0, t1, handle_ecall
     daa:	00628863          	beq	t0,t1,dba <handle_ecall>
	li t1, 3
     dae:	00300313          	li	t1,3
	beq t0, t1, handle_ebreak
     db2:	00628c63          	beq	t0,t1,dca <handle_ebreak>
	j handle_unknown
     db6:	0340006f          	j	dea <handle_unknown>

00000dba <handle_ecall>:

handle_ecall:
	la a0, ecall_msg
     dba:	0007f517          	auipc	a0,0x7f
     dbe:	27550513          	addi	a0,a0,629 # 8002f <ecall_msg>
	jal ra, puts
     dc2:	761030ef          	jal	ra,4d22 <puts>
	j end_handler
     dc6:	0340006f          	j	dfa <end_handler>

00000dca <handle_ebreak>:

handle_ebreak:
	la a0, ebreak_msg
     dca:	0007f517          	auipc	a0,0x7f
     dce:	28650513          	addi	a0,a0,646 # 80050 <ebreak_msg>
	jal ra, puts
     dd2:	751030ef          	jal	ra,4d22 <puts>
	j end_handler
     dd6:	0240006f          	j	dfa <end_handler>

00000dda <handle_illegal_insn>:

handle_illegal_insn:
	la a0, illegal_insn_msg
     dda:	0007f517          	auipc	a0,0x7f
     dde:	22650513          	addi	a0,a0,550 # 80000 <illegal_insn_msg>
	jal ra, puts
     de2:	741030ef          	jal	ra,4d22 <puts>
	j end_handler
     de6:	0140006f          	j	dfa <end_handler>

00000dea <handle_unknown>:

handle_unknown:
	la a0, unknown_msg
     dea:	0007f517          	auipc	a0,0x7f
     dee:	28850513          	addi	a0,a0,648 # 80072 <unknown_msg>
	jal ra, puts
     df2:	731030ef          	jal	ra,4d22 <puts>
	j end_handler
     df6:	0040006f          	j	dfa <end_handler>

00000dfa <end_handler>:

end_handler:
	csrr a0, mepc
     dfa:	34102573          	csrr	a0,mepc
	addi a0, a0, 4
     dfe:	00450513          	addi	a0,a0,4
	csrw mepc, a0
     e02:	34151073          	csrw	mepc,a0
	mret
     e06:	30200073          	mret

00000e0a <verification_irq_handler>:
/* this interrupt can be generated for verification purposes, random or when the PC is equal to a given value*/
verification_irq_handler:
	mret
     e0a:	30200073          	mret

00000e0e <handler_irq_uart>:
size_t uart_sink(void *uart, const char *data, size_t len) {
  return uart_write((const uart_t *)uart, (const uint8_t *)data, len);
}

__attribute__((weak, optimize("O0"))) void handler_irq_uart(uint32_t id)
{
     e0e:	1101                	addi	sp,sp,-32
     e10:	ce22                	sw	s0,28(sp)
     e12:	1000                	addi	s0,sp,32
     e14:	fea42623          	sw	a0,-20(s0)
 // Replace this function with a non-weak implementation
     e18:	0001                	nop
     e1a:	4472                	lw	s0,28(sp)
     e1c:	6105                	addi	sp,sp,32
     e1e:	8082                	ret

00000e20 <handler_irq_dummy>:
/*                            LOCAL FUNCTIONS                               */
/**                                                                        **/
/****************************************************************************/

__attribute__((optimize("O0"))) static void handler_irq_dummy( uint32_t dummy )
{
     e20:	1101                	addi	sp,sp,-32
     e22:	ce22                	sw	s0,28(sp)
     e24:	1000                	addi	s0,sp,32
     e26:	fea42623          	sw	a0,-20(s0)
}
     e2a:	0001                	nop
     e2c:	4472                	lw	s0,28(sp)
     e2e:	6105                	addi	sp,sp,32
     e30:	8082                	ret

00000e32 <gpio_handler_irq_dummy>:
/*                            LOCAL FUNCTIONS                               */
/**                                                                        **/
/****************************************************************************/

__attribute__((optimize("O0"))) static void gpio_handler_irq_dummy( uint32_t dummy )
{
     e32:	1101                	addi	sp,sp,-32
     e34:	ce22                	sw	s0,28(sp)
     e36:	1000                	addi	s0,sp,32
     e38:	fea42623          	sw	a0,-20(s0)
  return;
     e3c:	0001                	nop
}
     e3e:	4472                	lw	s0,28(sp)
     e40:	6105                	addi	sp,sp,32
     e42:	8082                	ret

00000e44 <handler_irq_i2c>:
     e44:	1101                	addi	sp,sp,-32
     e46:	ce22                	sw	s0,28(sp)
     e48:	1000                	addi	s0,sp,32
     e4a:	fea42623          	sw	a0,-20(s0)
     e4e:	fec42503          	lw	a0,-20(s0)
     e52:	4472                	lw	s0,28(sp)
     e54:	6105                	addi	sp,sp,32
     e56:	bf65                	j	e0e <handler_irq_uart>

00000e58 <fic_irq_timer_1>:
    fast_intr_ctrl_peri->FAST_INTR_CLEAR = reg;
    return kFastIntrCtrlOk_e;
}

__attribute__((weak, optimize("O0"))) void fic_irq_timer_1(void)
{
     e58:	1141                	addi	sp,sp,-16
     e5a:	c622                	sw	s0,12(sp)
     e5c:	0800                	addi	s0,sp,16
    /* Users should implement their non-weak version */
}
     e5e:	0001                	nop
     e60:	4432                	lw	s0,12(sp)
     e62:	0141                	addi	sp,sp,16
     e64:	8082                	ret

00000e66 <fic_irq_timer_2>:
     e66:	1141                	addi	sp,sp,-16
     e68:	c622                	sw	s0,12(sp)
     e6a:	0800                	addi	s0,sp,16
     e6c:	4432                	lw	s0,12(sp)
     e6e:	0141                	addi	sp,sp,16
     e70:	b7e5                	j	e58 <fic_irq_timer_1>

00000e72 <fic_irq_timer_3>:
     e72:	1141                	addi	sp,sp,-16
     e74:	c622                	sw	s0,12(sp)
     e76:	0800                	addi	s0,sp,16
     e78:	4432                	lw	s0,12(sp)
     e7a:	0141                	addi	sp,sp,16
     e7c:	bff1                	j	e58 <fic_irq_timer_1>

00000e7e <fic_irq_spi>:
     e7e:	1141                	addi	sp,sp,-16
     e80:	c622                	sw	s0,12(sp)
     e82:	0800                	addi	s0,sp,16
     e84:	4432                	lw	s0,12(sp)
     e86:	0141                	addi	sp,sp,16
     e88:	bfc1                	j	e58 <fic_irq_timer_1>

00000e8a <fic_irq_spi_flash>:
     e8a:	1141                	addi	sp,sp,-16
     e8c:	c622                	sw	s0,12(sp)
     e8e:	0800                	addi	s0,sp,16
     e90:	4432                	lw	s0,12(sp)
     e92:	0141                	addi	sp,sp,16
     e94:	b7d1                	j	e58 <fic_irq_timer_1>

00000e96 <fic_irq_gpio_0>:
     e96:	1141                	addi	sp,sp,-16
     e98:	c622                	sw	s0,12(sp)
     e9a:	0800                	addi	s0,sp,16
     e9c:	4432                	lw	s0,12(sp)
     e9e:	0141                	addi	sp,sp,16
     ea0:	bf65                	j	e58 <fic_irq_timer_1>

00000ea2 <fic_irq_gpio_1>:
     ea2:	1141                	addi	sp,sp,-16
     ea4:	c622                	sw	s0,12(sp)
     ea6:	0800                	addi	s0,sp,16
     ea8:	4432                	lw	s0,12(sp)
     eaa:	0141                	addi	sp,sp,16
     eac:	b775                	j	e58 <fic_irq_timer_1>

00000eae <fic_irq_gpio_2>:
     eae:	1141                	addi	sp,sp,-16
     eb0:	c622                	sw	s0,12(sp)
     eb2:	0800                	addi	s0,sp,16
     eb4:	4432                	lw	s0,12(sp)
     eb6:	0141                	addi	sp,sp,16
     eb8:	b745                	j	e58 <fic_irq_timer_1>

00000eba <fic_irq_gpio_3>:
     eba:	1141                	addi	sp,sp,-16
     ebc:	c622                	sw	s0,12(sp)
     ebe:	0800                	addi	s0,sp,16
     ec0:	4432                	lw	s0,12(sp)
     ec2:	0141                	addi	sp,sp,16
     ec4:	bf51                	j	e58 <fic_irq_timer_1>

00000ec6 <fic_irq_gpio_4>:
     ec6:	1141                	addi	sp,sp,-16
     ec8:	c622                	sw	s0,12(sp)
     eca:	0800                	addi	s0,sp,16
     ecc:	4432                	lw	s0,12(sp)
     ece:	0141                	addi	sp,sp,16
     ed0:	b761                	j	e58 <fic_irq_timer_1>

00000ed2 <fic_irq_gpio_5>:
     ed2:	1141                	addi	sp,sp,-16
     ed4:	c622                	sw	s0,12(sp)
     ed6:	0800                	addi	s0,sp,16
     ed8:	4432                	lw	s0,12(sp)
     eda:	0141                	addi	sp,sp,16
     edc:	bfb5                	j	e58 <fic_irq_timer_1>

00000ede <fic_irq_gpio_6>:
     ede:	1141                	addi	sp,sp,-16
     ee0:	c622                	sw	s0,12(sp)
     ee2:	0800                	addi	s0,sp,16
     ee4:	4432                	lw	s0,12(sp)
     ee6:	0141                	addi	sp,sp,16
     ee8:	bf85                	j	e58 <fic_irq_timer_1>

00000eea <fic_irq_gpio_7>:
     eea:	1141                	addi	sp,sp,-16
     eec:	c622                	sw	s0,12(sp)
     eee:	0800                	addi	s0,sp,16
     ef0:	4432                	lw	s0,12(sp)
     ef2:	0141                	addi	sp,sp,16
     ef4:	b795                	j	e58 <fic_irq_timer_1>

00000ef6 <handler_irq_spi>:
     ef6:	1101                	addi	sp,sp,-32
     ef8:	ce22                	sw	s0,28(sp)
     efa:	1000                	addi	s0,sp,32
     efc:	fea42623          	sw	a0,-20(s0)
     f00:	fec42503          	lw	a0,-20(s0)
     f04:	4472                	lw	s0,28(sp)
     f06:	6105                	addi	sp,sp,32
     f08:	b719                	j	e0e <handler_irq_uart>

00000f0a <PQCLEAN_KYBER768_CLEAN_poly_reduce>:
    t  = ((int32_t)v * a + (1 << 25)) >> 26;
     f0a:	6615                	lui	a2,0x5
    t *= KYBER_Q;
     f0c:	6685                	lui	a3,0x1
     f0e:	20050813          	addi	a6,a0,512
    t  = ((int32_t)v * a + (1 << 25)) >> 26;
     f12:	ebf60613          	addi	a2,a2,-321 # 4ebf <__swbuf_r+0x97>
     f16:	020005b7          	lui	a1,0x2000
    t *= KYBER_Q;
     f1a:	d0168693          	addi	a3,a3,-767 # d01 <main+0xaeb>
        r->coeffs[i] = PQCLEAN_KYBER768_CLEAN_barrett_reduce(r->coeffs[i]);
     f1e:	00051703          	lh	a4,0(a0)
    for (i = 0; i < KYBER_N; i++) {
     f22:	0509                	addi	a0,a0,2
    t  = ((int32_t)v * a + (1 << 25)) >> 26;
     f24:	02c707b3          	mul	a5,a4,a2
     f28:	97ae                	add	a5,a5,a1
     f2a:	87e9                	srai	a5,a5,0x1a
    t *= KYBER_Q;
     f2c:	02d787b3          	mul	a5,a5,a3
    return a - t;
     f30:	8f1d                	sub	a4,a4,a5
        r->coeffs[i] = PQCLEAN_KYBER768_CLEAN_barrett_reduce(r->coeffs[i]);
     f32:	fee51f23          	sh	a4,-2(a0)
    for (i = 0; i < KYBER_N; i++) {
     f36:	fea814e3          	bne	a6,a0,f1e <PQCLEAN_KYBER768_CLEAN_poly_reduce+0x14>
}
     f3a:	8082                	ret

00000f3c <handler_irq_gpio>:
    gpio_handlers[ id - GPIO_INTR_START ]();
     f3c:	4781                	li	a5,0
     f3e:	8782                	jr	a5

00000f40 <handler_irq_dma>:
/*                           EXPORTED FUNCTIONS                             */
/****************************************************************************/
void handler_irq_dma(uint32_t id)
{
    dma_intr_handler_window_done();
}
     f40:	8082                	ret

00000f42 <init_ip>:
    (&rv_plic_peri->LE0)[i] = 0;
     f42:	300007b7          	lui	a5,0x30000
     f46:	0007a423          	sw	zero,8(a5) # 30000008 <_sp+0x2ff1f728>
  for(uint8_t i=0; i<RV_PLIC_PARAM_NUM_SRC; i++)
     f4a:	300006b7          	lui	a3,0x30000
    (&rv_plic_peri->LE0)[i] = 0;
     f4e:	0007a623          	sw	zero,12(a5)
  for(uint8_t i=0; i<RV_PLIC_PARAM_NUM_SRC; i++)
     f52:	11068713          	addi	a4,a3,272 # 30000110 <_sp+0x2ff1f830>
    (&rv_plic_peri->LE0)[i] = 0;
     f56:	07c1                	addi	a5,a5,16
    (&rv_plic_peri->PRIO0)[i] = 0;
     f58:	0007a023          	sw	zero,0(a5)
  for(uint8_t i=0; i<RV_PLIC_PARAM_NUM_SRC; i++)
     f5c:	0791                	addi	a5,a5,4
     f5e:	fee79de3          	bne	a5,a4,f58 <init_ip+0x16>
    (&rv_plic_peri->IE00)[i] = 0;
     f62:	2006a023          	sw	zero,512(a3)
     f66:	2006a223          	sw	zero,516(a3)
  rv_plic_peri->THRESHOLD0 = 0;
     f6a:	2006a423          	sw	zero,520(a3)
  if(rv_plic_peri->THRESHOLD0 != 0)
     f6e:	2086a783          	lw	a5,520(a3)
     f72:	e791                	bnez	a5,f7e <init_ip+0x3c>
  rv_plic_peri->MSIP0 = 0;
     f74:	2006a823          	sw	zero,528(a3)
  if(rv_plic_peri->MSIP0 != 0)
     f78:	2106a783          	lw	a5,528(a3)
     f7c:	c391                	beqz	a5,f80 <init_ip+0x3e>
     f7e:	8082                	ret
  handlers[NULL_INTR] = &handler_irq_dummy;
     f80:	00080eb7          	lui	t4,0x80
     f84:	6f05                	lui	t5,0x1

// Interrupt controller variables
plic_result_t plic_res;

void init_ip()
{
     f86:	1141                	addi	sp,sp,-16
     f88:	6f8e8e93          	addi	t4,t4,1784 # 806f8 <handlers>
     f8c:	e20f0f13          	addi	t5,t5,-480 # e20 <handler_irq_dummy>
      handlers[i] = &handler_irq_i2c;
     f90:	6885                	lui	a7,0x1
      handlers[i] = &handler_irq_gpio;
     f92:	6505                	lui	a0,0x1
      handlers[i] = &handler_irq_uart;
     f94:	6305                	lui	t1,0x1
     f96:	c626                	sw	s1,12(sp)
     f98:	c44a                	sw	s2,8(sp)
     f9a:	c24e                	sw	s3,4(sp)
  handlers[NULL_INTR] = &handler_irq_dummy;
     f9c:	01eea023          	sw	t5,0(t4)
  for( uint8_t i = NULL_INTR +1; i < QTY_INTR; i++ )
     fa0:	004e8713          	addi	a4,t4,4
  handlers[NULL_INTR] = &handler_irq_dummy;
     fa4:	4785                	li	a5,1
     fa6:	4481                	li	s1,0
     fa8:	4981                	li	s3,0
     faa:	4901                	li	s2,0
    if ( i <= UART_ID_END)
     fac:	4621                	li	a2,8
    else if ( i <= GPIO_ID_END)
     fae:	02000593          	li	a1,32
    else if ( i <= I2C_ID_END)
     fb2:	03000813          	li	a6,48
    else if ( i == SPI_ID)
     fb6:	03100e13          	li	t3,49
    else if ( i == I2S_ID)
     fba:	03200f93          	li	t6,50
    else if ( i == DMA_ID)
     fbe:	03300293          	li	t0,51
  for( uint8_t i = NULL_INTR +1; i < QTY_INTR; i++ )
     fc2:	03f00393          	li	t2,63
      handlers[i] = &handler_irq_i2c;
     fc6:	e4488893          	addi	a7,a7,-444 # e44 <handler_irq_i2c>
      handlers[i] = &handler_irq_gpio;
     fca:	f3c50513          	addi	a0,a0,-196 # f3c <handler_irq_gpio>
      handlers[i] = &handler_irq_uart;
     fce:	e0e30313          	addi	t1,t1,-498 # e0e <handler_irq_uart>
     fd2:	a021                	j	fda <init_ip+0x98>
      handlers[i] = &handler_irq_gpio;
     fd4:	c308                	sw	a0,0(a4)
     fd6:	0785                	addi	a5,a5,1
     fd8:	0711                	addi	a4,a4,4
    if ( i <= UART_ID_END)
     fda:	0ff7f693          	zext.b	a3,a5
     fde:	00f67963          	bgeu	a2,a5,ff0 <init_ip+0xae>
    else if ( i <= GPIO_ID_END)
     fe2:	fed5f9e3          	bgeu	a1,a3,fd4 <init_ip+0x92>
    else if ( i <= I2C_ID_END)
     fe6:	00d86863          	bltu	a6,a3,ff6 <init_ip+0xb4>
      handlers[i] = &handler_irq_i2c;
     fea:	01172023          	sw	a7,0(a4)
     fee:	b7e5                	j	fd6 <init_ip+0x94>
      handlers[i] = &handler_irq_uart;
     ff0:	00672023          	sw	t1,0(a4)
     ff4:	b7cd                	j	fd6 <init_ip+0x94>
    else if ( i == SPI_ID)
     ff6:	0bc68f63          	beq	a3,t3,10b4 <init_ip+0x172>
    else if ( i == I2S_ID)
     ffa:	0bf68f63          	beq	a3,t6,10b8 <init_ip+0x176>
    else if ( i == DMA_ID)
     ffe:	0a568f63          	beq	a3,t0,10bc <init_ip+0x17a>
      handlers[i] = &handler_irq_dummy;
    1002:	01e72023          	sw	t5,0(a4)
  for( uint8_t i = NULL_INTR +1; i < QTY_INTR; i++ )
    1006:	fc7698e3          	bne	a3,t2,fd6 <init_ip+0x94>
    100a:	c491                	beqz	s1,1016 <init_ip+0xd4>
    100c:	6785                	lui	a5,0x1
    100e:	f4078793          	addi	a5,a5,-192 # f40 <handler_irq_dma>
    1012:	0cfea623          	sw	a5,204(t4)
    1016:	00098663          	beqz	s3,1022 <init_ip+0xe0>
    101a:	00000793          	li	a5,0
    101e:	0cfea423          	sw	a5,200(t4)
    1022:	00090763          	beqz	s2,1030 <init_ip+0xee>
    1026:	6785                	lui	a5,0x1
    1028:	ef678793          	addi	a5,a5,-266 # ef6 <handler_irq_spi>
    102c:	0cfea223          	sw	a5,196(t4)
  (&rv_plic_peri->PRIO0)[irq] = priority;
    1030:	300007b7          	lui	a5,0x30000
    1034:	0e078713          	addi	a4,a5,224 # 300000e0 <_sp+0x2ff1f800>
    1038:	4685                	li	a3,1
    103a:	c314                	sw	a3,0(a4)
  (&rv_plic_peri->IE00)[offset] = bitfield_write((&rv_plic_peri->IE00)[offset],
    103c:	20478793          	addi	a5,a5,516
    1040:	4398                	lw	a4,0(a5)
inline uint32_t bitfield_write(uint32_t bitfield,
                                       uint32_t mask, 
                                       uint32_t index,
                                       uint32_t value) 
{
  bitfield &= ~(mask << index);
    1042:	fff006b7          	lui	a3,0xfff00
    1046:	16fd                	addi	a3,a3,-1
    1048:	8f75                	and	a4,a4,a3
  bitfield |= (value & mask) << index;
    104a:	001006b7          	lui	a3,0x100
    104e:	8f55                	or	a4,a4,a3
    1050:	c398                	sw	a4,0(a5)
  // Enable the interrupt in reg 0 
  plic_res = plic_irq_set_enabled(EXT_INTR_0, kPlicToggleEnabled);

  // Enable interrupt on processor side
  // Enable global interrupt for machine-level interrupts
  CSR_SET_BITS(CSR_REG_MSTATUS, 0x8);
    1052:	46a1                	li	a3,8
    1054:	3006a073          	csrs	mstatus,a3
  // Set mie.MEIE bit to one to enable machine-level external interrupts
  const uint32_t mask = 1 << 11;//IRQ_EXT_ENABLE_OFFSET;
  CSR_SET_BITS(CSR_REG_MIE, mask);
    1058:	6705                	lui	a4,0x1
    105a:	80070793          	addi	a5,a4,-2048 # 800 <main+0x5ea>
    105e:	3047a073          	csrs	mie,a5

void dma_init( dma *peri )
{
    dma_cb.peri = dma_peri;
    dma_cb.trans = NULL;
    dma_cb.peri->SRC_PTR       = 0;
    1062:	200607b7          	lui	a5,0x20060
    1066:	0007a023          	sw	zero,0(a5) # 20060000 <_sp+0x1ff7f720>
    dma_cb.peri->DST_PTR       = 0;
    106a:	0007a223          	sw	zero,4(a5)
    dma_cb.peri->SIZE          = 0;
    106e:	0007a623          	sw	zero,12(a5)
    dma_cb.peri->PTR_INC       = 0;
    1072:	0007aa23          	sw	zero,20(a5)
    dma_cb.peri->SLOT          = 0;
    1076:	0007ac23          	sw	zero,24(a5)
    dma_cb.peri->DATA_TYPE     = 0;
    107a:	0007ae23          	sw	zero,28(a5)
    dma_cb.peri->MODE          = 0;
    107e:	0207a023          	sw	zero,32(a5)
    dma_cb.peri->WINDOW_SIZE   = 0;
    1082:	0207a223          	sw	zero,36(a5)
    dma_cb.peri->INTERRUPT_EN  = 0;
    1086:	0207a623          	sw	zero,44(a5)

    dma_cb.peri->INTERRUPT_EN = INTR_EN_NONE;
    CSR_CLEAR_BITS(CSR_REG_MIE, DMA_CSR_REG_MIE_MASK );
    108a:	000817b7          	lui	a5,0x81
    108e:	80078793          	addi	a5,a5,-2048 # 80800 <in+0x8>
    1092:	3047b073          	csrc	mie,a5
  
    /* Enable global interrupt for machine-level interrupts. */
    CSR_SET_BITS(CSR_REG_MSTATUS, 0x8 );
    1096:	3006a073          	csrs	mstatus,a3
    CSR_SET_BITS(CSR_REG_MIE, DMA_CSR_REG_MIE_MASK );
    109a:	3047a073          	csrs	mie,a5


  dma_init(NULL);

  //Making the TRNG starts
  *ctrl_reg = (1 << NTT_INTT_IP_CTRL_CTRL_C3_BIT) | (4 << NTT_INTT_IP_CTRL_CTRL_OPERATION_OFFSET);
    109e:	200807b7          	lui	a5,0x20080
    10a2:	0721                	addi	a4,a4,8
    10a4:	c398                	sw	a4,0(a5)
  *ctrl_reg = (0 << NTT_INTT_IP_CTRL_CTRL_C3_BIT) | (0 << NTT_INTT_IP_CTRL_CTRL_OPERATION_OFFSET);
    10a6:	0007a023          	sw	zero,0(a5) # 20080000 <_sp+0x1ff9f720>




    10aa:	44b2                	lw	s1,12(sp)
    10ac:	4922                	lw	s2,8(sp)
    10ae:	4992                	lw	s3,4(sp)
    10b0:	0141                	addi	sp,sp,16
    10b2:	8082                	ret
    10b4:	4905                	li	s2,1
    10b6:	b705                	j	fd6 <init_ip+0x94>
    10b8:	4985                	li	s3,1
    10ba:	bf31                	j	fd6 <init_ip+0x94>
    10bc:	4485                	li	s1,1
  for( uint8_t i = NULL_INTR +1; i < QTY_INTR; i++ )
    10be:	bf21                	j	fd6 <init_ip+0x94>

000010c0 <PQCLEAN_KYBER768_CLEAN_polyvec_tobytes>:
        t0 += ((int16_t)t0 >> 15) & KYBER_Q;
    10c0:	6885                	lui	a7,0x1
    10c2:	18050313          	addi	t1,a0,384
    10c6:	60050e13          	addi	t3,a0,1536
    10ca:	d0188893          	addi	a7,a7,-767 # d01 <main+0xaeb>
        PQCLEAN_KYBER768_CLEAN_poly_tobytes(r + i * KYBER_POLYBYTES, &a->vec[i]);
    10ce:	e8030693          	addi	a3,t1,-384
void PQCLEAN_KYBER768_CLEAN_polyvec_tobytes(uint8_t r[KYBER_POLYVECBYTES], const polyvec *a) {
    10d2:	862e                	mv	a2,a1
        t0  = a->coeffs[2 * i];
    10d4:	00061703          	lh	a4,0(a2)
        t1 = a->coeffs[2 * i + 1];
    10d8:	00261783          	lh	a5,2(a2)
    for (i = 0; i < KYBER_N / 2; i++) {
    10dc:	068d                	addi	a3,a3,3
        t0 += ((int16_t)t0 >> 15) & KYBER_Q;
    10de:	40f75813          	srai	a6,a4,0xf
        t1 += ((int16_t)t1 >> 15) & KYBER_Q;
    10e2:	40f7d513          	srai	a0,a5,0xf
        t0 += ((int16_t)t0 >> 15) & KYBER_Q;
    10e6:	01187833          	and	a6,a6,a7
        t1 += ((int16_t)t1 >> 15) & KYBER_Q;
    10ea:	01157533          	and	a0,a0,a7
        t0 += ((int16_t)t0 >> 15) & KYBER_Q;
    10ee:	9742                	add	a4,a4,a6
        t1 += ((int16_t)t1 >> 15) & KYBER_Q;
    10f0:	97aa                	add	a5,a5,a0
        t0 += ((int16_t)t0 >> 15) & KYBER_Q;
    10f2:	0742                	slli	a4,a4,0x10
        t1 += ((int16_t)t1 >> 15) & KYBER_Q;
    10f4:	07c2                	slli	a5,a5,0x10
        t0 += ((int16_t)t0 >> 15) & KYBER_Q;
    10f6:	8341                	srli	a4,a4,0x10
        t1 += ((int16_t)t1 >> 15) & KYBER_Q;
    10f8:	83c1                	srli	a5,a5,0x10
        r[3 * i + 1] = (uint8_t)((t0 >> 8) | (t1 << 4));
    10fa:	00479813          	slli	a6,a5,0x4
    10fe:	00875513          	srli	a0,a4,0x8
    1102:	01056533          	or	a0,a0,a6
        r[3 * i + 2] = (uint8_t)(t1 >> 4);
    1106:	8391                	srli	a5,a5,0x4
        r[3 * i + 0] = (uint8_t)(t0 >> 0);
    1108:	fee68ea3          	sb	a4,-3(a3) # ffffd <_sp+0x1f71d>
        r[3 * i + 1] = (uint8_t)((t0 >> 8) | (t1 << 4));
    110c:	fea68f23          	sb	a0,-2(a3)
        r[3 * i + 2] = (uint8_t)(t1 >> 4);
    1110:	fef68fa3          	sb	a5,-1(a3)
    for (i = 0; i < KYBER_N / 2; i++) {
    1114:	0611                	addi	a2,a2,4
    1116:	fad31fe3          	bne	t1,a3,10d4 <PQCLEAN_KYBER768_CLEAN_polyvec_tobytes+0x14>
    for (i = 0; i < KYBER_K; i++) {
    111a:	18030313          	addi	t1,t1,384
    111e:	20058593          	addi	a1,a1,512 # 2000200 <_sp+0x1f1f920>
    1122:	fa6e16e3          	bne	t3,t1,10ce <PQCLEAN_KYBER768_CLEAN_polyvec_tobytes+0xe>
}
    1126:	8082                	ret

00001128 <PQCLEAN_KYBER768_CLEAN_polyvec_frombytes>:
    for (i = 0; i < KYBER_K; i++) {
    1128:	18058813          	addi	a6,a1,384
    112c:	60058893          	addi	a7,a1,1536
        r->coeffs[2 * i]   = ((a[3 * i + 0] >> 0) | ((uint16_t)a[3 * i + 1] << 8)) & 0xFFF;
    1130:	6585                	lui	a1,0x1
    1132:	15fd                	addi	a1,a1,-1
        PQCLEAN_KYBER768_CLEAN_poly_frombytes(&r->vec[i], a + i * KYBER_POLYBYTES);
    1134:	e8080713          	addi	a4,a6,-384
void PQCLEAN_KYBER768_CLEAN_polyvec_frombytes(polyvec *r, const uint8_t a[KYBER_POLYVECBYTES]) {
    1138:	86aa                	mv	a3,a0
    113a:	00174783          	lbu	a5,1(a4)
    113e:	00074603          	lbu	a2,0(a4)
    for (i = 0; i < KYBER_N / 2; i++) {
    1142:	070d                	addi	a4,a4,3
        r->coeffs[2 * i]   = ((a[3 * i + 0] >> 0) | ((uint16_t)a[3 * i + 1] << 8)) & 0xFFF;
    1144:	07a2                	slli	a5,a5,0x8
    1146:	8fd1                	or	a5,a5,a2
    1148:	8fed                	and	a5,a5,a1
    114a:	00f69023          	sh	a5,0(a3)
        r->coeffs[2 * i + 1] = ((a[3 * i + 1] >> 4) | ((uint16_t)a[3 * i + 2] << 4)) & 0xFFF;
    114e:	ffe74603          	lbu	a2,-2(a4)
    1152:	fff74783          	lbu	a5,-1(a4)
    for (i = 0; i < KYBER_N / 2; i++) {
    1156:	0691                	addi	a3,a3,4
        r->coeffs[2 * i + 1] = ((a[3 * i + 1] >> 4) | ((uint16_t)a[3 * i + 2] << 4)) & 0xFFF;
    1158:	8211                	srli	a2,a2,0x4
    115a:	0792                	slli	a5,a5,0x4
    115c:	8fd1                	or	a5,a5,a2
    115e:	fef69f23          	sh	a5,-2(a3)
    for (i = 0; i < KYBER_N / 2; i++) {
    1162:	fd071ce3          	bne	a4,a6,113a <PQCLEAN_KYBER768_CLEAN_polyvec_frombytes+0x12>
    for (i = 0; i < KYBER_K; i++) {
    1166:	18070813          	addi	a6,a4,384
    116a:	20050513          	addi	a0,a0,512
    116e:	fd0893e3          	bne	a7,a6,1134 <PQCLEAN_KYBER768_CLEAN_polyvec_frombytes+0xc>
}
    1172:	8082                	ret

00001174 <PQCLEAN_KYBER768_CLEAN_polyvec_ntt>:
void PQCLEAN_KYBER768_CLEAN_polyvec_ntt(polyvec *r) {
    1174:	7179                	addi	sp,sp,-48
    1176:	6f85                	lui	t6,0x1
    t = (int16_t)a * QINV;
    1178:	7efd                	lui	t4,0xfffff
    117a:	ce56                	sw	s5,28(sp)
    117c:	cc5a                	sw	s6,24(sp)
    117e:	ca5e                	sw	s7,20(sp)
    1180:	20050b13          	addi	s6,a0,512
    1184:	800f8b93          	addi	s7,t6,-2048 # 800 <main+0x5ea>
    1188:	00080ab7          	lui	s5,0x80
    t  = ((int32_t)v * a + (1 << 25)) >> 26;
    118c:	6395                	lui	t2,0x5
    118e:	d626                	sw	s1,44(sp)
    1190:	d24e                	sw	s3,36(sp)
    t = (int16_t)a * QINV;
    1192:	301e8f13          	addi	t5,t4,769 # fffff301 <_sp+0xfff1ea21>
    1196:	d44a                	sw	s2,40(sp)
    1198:	d052                	sw	s4,32(sp)
    119a:	c862                	sw	s8,16(sp)
    119c:	c666                	sw	s9,12(sp)
    119e:	862a                	mv	a2,a0
    11a0:	82da                	mv	t0,s6
    11a2:	9baa                	add	s7,s7,a0
    11a4:	380a8a93          	addi	s5,s5,896 # 80380 <PQCLEAN_KYBER768_CLEAN_zetas>
    t = (a - (int32_t)t * KYBER_Q) >> 16;
    11a8:	2ffe8e93          	addi	t4,t4,767
    unsigned int len, start, j, k;
    int16_t t, zeta;

    k = 1;
    for (len = 128; len >= 2; len >>= 1) {
        for (start = 0; start < 256; start = j + len) {
    11ac:	0ff00993          	li	s3,255
    t  = ((int32_t)v * a + (1 << 25)) >> 26;
    11b0:	ebf38393          	addi	t2,t2,-321 # 4ebf <__swbuf_r+0x97>
    11b4:	020004b7          	lui	s1,0x2000
    t *= KYBER_Q;
    11b8:	d01f8f93          	addi	t6,t6,-767
        PQCLEAN_KYBER768_CLEAN_poly_ntt(&r->vec[i]);
    11bc:	4a1d                	li	s4,7
    11be:	d0a00813          	li	a6,-758
    k = 1;
    11c2:	4905                	li	s2,1
    for (len = 128; len >= 2; len >>= 1) {
    11c4:	08000e13          	li	t3,128
        for (start = 0; start < 256; start = j + len) {
    11c8:	00190513          	addi	a0,s2,1
    11cc:	4701                	li	a4,0
            zeta = PQCLEAN_KYBER768_CLEAN_zetas[k++];
    11ce:	00151893          	slli	a7,a0,0x1
            for (j = start; j < start + len; j++) {
    11d2:	00ee05b3          	add	a1,t3,a4
    11d6:	98d6                	add	a7,a7,s5
            zeta = PQCLEAN_KYBER768_CLEAN_zetas[k++];
    11d8:	892a                	mv	s2,a0
            for (j = start; j < start + len; j++) {
    11da:	06b77063          	bgeu	a4,a1,123a <PQCLEAN_KYBER768_CLEAN_polyvec_ntt+0xc6>
    11de:	00159693          	slli	a3,a1,0x1
    11e2:	96b2                	add	a3,a3,a2
    11e4:	0706                	slli	a4,a4,0x1
    11e6:	9732                	add	a4,a4,a2
    11e8:	8336                	mv	t1,a3
    return PQCLEAN_KYBER768_CLEAN_montgomery_reduce((int32_t)a * b);
    11ea:	00069c83          	lh	s9,0(a3)
                t = fqmul(zeta, r[j + len]);
                r[j + len] = r[j] - t;
    11ee:	00075c03          	lhu	s8,0(a4)
            for (j = start; j < start + len; j++) {
    11f2:	0689                	addi	a3,a3,2
    return PQCLEAN_KYBER768_CLEAN_montgomery_reduce((int32_t)a * b);
    11f4:	030c8cb3          	mul	s9,s9,a6
            for (j = start; j < start + len; j++) {
    11f8:	0709                	addi	a4,a4,2
    t = (int16_t)a * QINV;
    11fa:	03ec87b3          	mul	a5,s9,t5
    t = (a - (int32_t)t * KYBER_Q) >> 16;
    11fe:	07c2                	slli	a5,a5,0x10
    1200:	87c1                	srai	a5,a5,0x10
    1202:	03d787b3          	mul	a5,a5,t4
    1206:	97e6                	add	a5,a5,s9
                r[j + len] = r[j] - t;
    1208:	83c1                	srli	a5,a5,0x10
    120a:	40fc0c33          	sub	s8,s8,a5
    120e:	ff869f23          	sh	s8,-2(a3)
                r[j] = r[j] + t;
    1212:	ffe75c03          	lhu	s8,-2(a4)
    1216:	97e2                	add	a5,a5,s8
    1218:	fef71f23          	sh	a5,-2(a4)
            for (j = start; j < start + len; j++) {
    121c:	fce317e3          	bne	t1,a4,11ea <PQCLEAN_KYBER768_CLEAN_polyvec_ntt+0x76>
        for (start = 0; start < 256; start = j + len) {
    1220:	01c58733          	add	a4,a1,t3
    1224:	00e9ed63          	bltu	s3,a4,123e <PQCLEAN_KYBER768_CLEAN_polyvec_ntt+0xca>
    1228:	0505                	addi	a0,a0,1
            for (j = start; j < start + len; j++) {
    122a:	00ee05b3          	add	a1,t3,a4
            zeta = PQCLEAN_KYBER768_CLEAN_zetas[k++];
    122e:	00089803          	lh	a6,0(a7)
    1232:	892a                	mv	s2,a0
    1234:	0889                	addi	a7,a7,2
            for (j = start; j < start + len; j++) {
    1236:	fab764e3          	bltu	a4,a1,11de <PQCLEAN_KYBER768_CLEAN_polyvec_ntt+0x6a>
    123a:	872e                	mv	a4,a1
    123c:	b7f5                	j	1228 <PQCLEAN_KYBER768_CLEAN_polyvec_ntt+0xb4>
    for (len = 128; len >= 2; len >>= 1) {
    123e:	1a7d                	addi	s4,s4,-1
    1240:	001e5e13          	srli	t3,t3,0x1
    1244:	000a0863          	beqz	s4,1254 <PQCLEAN_KYBER768_CLEAN_polyvec_ntt+0xe0>
            zeta = PQCLEAN_KYBER768_CLEAN_zetas[k++];
    1248:	00151793          	slli	a5,a0,0x1
    124c:	97d6                	add	a5,a5,s5
    124e:	00079803          	lh	a6,0(a5)
    1252:	bf9d                	j	11c8 <PQCLEAN_KYBER768_CLEAN_polyvec_ntt+0x54>
        r->coeffs[i] = PQCLEAN_KYBER768_CLEAN_barrett_reduce(r->coeffs[i]);
    1254:	00061703          	lh	a4,0(a2)
    for (i = 0; i < KYBER_N; i++) {
    1258:	0609                	addi	a2,a2,2
    t  = ((int32_t)v * a + (1 << 25)) >> 26;
    125a:	027707b3          	mul	a5,a4,t2
    125e:	97a6                	add	a5,a5,s1
    1260:	87e9                	srai	a5,a5,0x1a
    t *= KYBER_Q;
    1262:	03f787b3          	mul	a5,a5,t6
    return a - t;
    1266:	8f1d                	sub	a4,a4,a5
        r->coeffs[i] = PQCLEAN_KYBER768_CLEAN_barrett_reduce(r->coeffs[i]);
    1268:	fee61f23          	sh	a4,-2(a2)
    for (i = 0; i < KYBER_N; i++) {
    126c:	fec294e3          	bne	t0,a2,1254 <PQCLEAN_KYBER768_CLEAN_polyvec_ntt+0xe0>
    for (i = 0; i < KYBER_K; i++) {
    1270:	20028293          	addi	t0,t0,512 # 3200 <randombytes+0xec>
    1274:	865a                	mv	a2,s6
    1276:	005b8563          	beq	s7,t0,1280 <PQCLEAN_KYBER768_CLEAN_polyvec_ntt+0x10c>
    127a:	200b0b13          	addi	s6,s6,512
    127e:	bf3d                	j	11bc <PQCLEAN_KYBER768_CLEAN_polyvec_ntt+0x48>
}
    1280:	54b2                	lw	s1,44(sp)
    1282:	5922                	lw	s2,40(sp)
    1284:	5992                	lw	s3,36(sp)
    1286:	5a02                	lw	s4,32(sp)
    1288:	4af2                	lw	s5,28(sp)
    128a:	4b62                	lw	s6,24(sp)
    128c:	4bd2                	lw	s7,20(sp)
    128e:	4c42                	lw	s8,16(sp)
    1290:	4cb2                	lw	s9,12(sp)
    1292:	6145                	addi	sp,sp,48
    1294:	8082                	ret

00001296 <PQCLEAN_KYBER768_CLEAN_invntt>:
*              multiplication by Montgomery factor 2^16.
*              Input is in bitreversed order, output is in standard order
*
* Arguments:   - int16_t r[256]: pointer to input/output vector of elements of Zq
**************************************************/
void PQCLEAN_KYBER768_CLEAN_invntt(int16_t r[256]) {
    1296:	1101                	addi	sp,sp,-32
    t = (int16_t)a * QINV;
    1298:	787d                	lui	a6,0xfffff
    129a:	ca4e                	sw	s3,20(sp)
    129c:	c852                	sw	s4,16(sp)
    129e:	000809b7          	lui	s3,0x80
    12a2:	80000a37          	lui	s4,0x80000
    t  = ((int32_t)v * a + (1 << 25)) >> 26;
    12a6:	6315                	lui	t1,0x5
    t *= KYBER_Q;
    12a8:	6885                	lui	a7,0x1
    12aa:	ce26                	sw	s1,28(sp)
    12ac:	cc4a                	sw	s2,24(sp)
    t = (int16_t)a * QINV;
    12ae:	30180e13          	addi	t3,a6,769 # fffff301 <_sp+0xfff1ea21>
    12b2:	c656                	sw	s5,12(sp)
    12b4:	c45a                	sw	s6,8(sp)
    12b6:	862a                	mv	a2,a0

    k = 127;
    for (len = 2; len <= 128; len <<= 1) {
        for (start = 0; start < 256; start = j + len) {
            zeta = PQCLEAN_KYBER768_CLEAN_zetas[k--];
            for (j = start; j < start + len; j++) {
    12b8:	491d                	li	s2,7
    12ba:	65c00593          	li	a1,1628
    k = 127;
    12be:	07f00293          	li	t0,127
    for (len = 2; len <= 128; len <<= 1) {
    12c2:	4389                	li	t2,2
    12c4:	38098993          	addi	s3,s3,896 # 80380 <PQCLEAN_KYBER768_CLEAN_zetas>
    12c8:	fffa4a13          	not	s4,s4
    t  = ((int32_t)v * a + (1 << 25)) >> 26;
    12cc:	ebf30313          	addi	t1,t1,-321 # 4ebf <__swbuf_r+0x97>
    12d0:	02000eb7          	lui	t4,0x2000
    t *= KYBER_Q;
    12d4:	d0188893          	addi	a7,a7,-767 # d01 <main+0xaeb>
    t = (a - (int32_t)t * KYBER_Q) >> 16;
    12d8:	2ff80813          	addi	a6,a6,767
        for (start = 0; start < 256; start = j + len) {
    12dc:	0ff00493          	li	s1,255
    12e0:	01428fb3          	add	t6,t0,s4
    12e4:	4701                	li	a4,0
            zeta = PQCLEAN_KYBER768_CLEAN_zetas[k--];
    12e6:	0f86                	slli	t6,t6,0x1
            for (j = start; j < start + len; j++) {
    12e8:	00770f33          	add	t5,a4,t2
    12ec:	9fce                	add	t6,t6,s3
            zeta = PQCLEAN_KYBER768_CLEAN_zetas[k--];
    12ee:	12fd                	addi	t0,t0,-1
            for (j = start; j < start + len; j++) {
    12f0:	07e77d63          	bgeu	a4,t5,136a <PQCLEAN_KYBER768_CLEAN_invntt+0xd4>
    12f4:	001f1693          	slli	a3,t5,0x1
    12f8:	0706                	slli	a4,a4,0x1
    12fa:	96b2                	add	a3,a3,a2
    12fc:	9732                	add	a4,a4,a2
    12fe:	8536                	mv	a0,a3
                t = r[j];
                r[j] = PQCLEAN_KYBER768_CLEAN_barrett_reduce(t + r[j + len]);
    1300:	00075b03          	lhu	s6,0(a4)
    1304:	0006da83          	lhu	s5,0(a3)
            for (j = start; j < start + len; j++) {
    1308:	0709                	addi	a4,a4,2
    130a:	0689                	addi	a3,a3,2
                r[j] = PQCLEAN_KYBER768_CLEAN_barrett_reduce(t + r[j + len]);
    130c:	9ada                	add	s5,s5,s6
    t  = ((int32_t)v * a + (1 << 25)) >> 26;
    130e:	010a9793          	slli	a5,s5,0x10
    1312:	87c1                	srai	a5,a5,0x10
    1314:	026787b3          	mul	a5,a5,t1
    1318:	97f6                	add	a5,a5,t4
    131a:	87e9                	srai	a5,a5,0x1a
    t *= KYBER_Q;
    131c:	031787b3          	mul	a5,a5,a7
    return a - t;
    1320:	40fa8ab3          	sub	s5,s5,a5
    1324:	ff571f23          	sh	s5,-2(a4)
                r[j + len] = r[j + len] - t;
    1328:	ffe6da83          	lhu	s5,-2(a3)
    132c:	416a8ab3          	sub	s5,s5,s6
    return PQCLEAN_KYBER768_CLEAN_montgomery_reduce((int32_t)a * b);
    1330:	0ac2                	slli	s5,s5,0x10
    1332:	410ada93          	srai	s5,s5,0x10
    1336:	02ba8ab3          	mul	s5,s5,a1
    t = (int16_t)a * QINV;
    133a:	03ca87b3          	mul	a5,s5,t3
    t = (a - (int32_t)t * KYBER_Q) >> 16;
    133e:	07c2                	slli	a5,a5,0x10
    1340:	87c1                	srai	a5,a5,0x10
    1342:	030787b3          	mul	a5,a5,a6
    1346:	97d6                	add	a5,a5,s5
    1348:	87c1                	srai	a5,a5,0x10
    134a:	fef69f23          	sh	a5,-2(a3)
            for (j = start; j < start + len; j++) {
    134e:	fae519e3          	bne	a0,a4,1300 <PQCLEAN_KYBER768_CLEAN_invntt+0x6a>
        for (start = 0; start < 256; start = j + len) {
    1352:	007f0733          	add	a4,t5,t2
    1356:	00e4ed63          	bltu	s1,a4,1370 <PQCLEAN_KYBER768_CLEAN_invntt+0xda>
            for (j = start; j < start + len; j++) {
    135a:	00770f33          	add	t5,a4,t2
            zeta = PQCLEAN_KYBER768_CLEAN_zetas[k--];
    135e:	000f9583          	lh	a1,0(t6)
    1362:	12fd                	addi	t0,t0,-1
    1364:	1ff9                	addi	t6,t6,-2
            for (j = start; j < start + len; j++) {
    1366:	f9e767e3          	bltu	a4,t5,12f4 <PQCLEAN_KYBER768_CLEAN_invntt+0x5e>
    136a:	877a                	mv	a4,t5
        for (start = 0; start < 256; start = j + len) {
    136c:	fee4f7e3          	bgeu	s1,a4,135a <PQCLEAN_KYBER768_CLEAN_invntt+0xc4>
    for (len = 2; len <= 128; len <<= 1) {
    1370:	197d                	addi	s2,s2,-1
    1372:	0386                	slli	t2,t2,0x1
    1374:	00090863          	beqz	s2,1384 <PQCLEAN_KYBER768_CLEAN_invntt+0xee>
            zeta = PQCLEAN_KYBER768_CLEAN_zetas[k--];
    1378:	00129793          	slli	a5,t0,0x1
    137c:	97ce                	add	a5,a5,s3
    137e:	00079583          	lh	a1,0(a5)
    1382:	bfb9                	j	12e0 <PQCLEAN_KYBER768_CLEAN_invntt+0x4a>
    t = (int16_t)a * QINV;
    1384:	76fd                	lui	a3,0xfffff
    1386:	30168593          	addi	a1,a3,769 # fffff301 <_sp+0xfff1ea21>
    138a:	20060813          	addi	a6,a2,512
    return PQCLEAN_KYBER768_CLEAN_montgomery_reduce((int32_t)a * b);
    138e:	5a100513          	li	a0,1441
    t = (a - (int32_t)t * KYBER_Q) >> 16;
    1392:	2ff68693          	addi	a3,a3,767
    1396:	00061703          	lh	a4,0(a2)
                r[j + len] = fqmul(zeta, r[j + len]);
            }
        }
    }

    for (j = 0; j < 256; j++) {
    139a:	0609                	addi	a2,a2,2
    return PQCLEAN_KYBER768_CLEAN_montgomery_reduce((int32_t)a * b);
    139c:	02a70733          	mul	a4,a4,a0
    t = (int16_t)a * QINV;
    13a0:	02b707b3          	mul	a5,a4,a1
    t = (a - (int32_t)t * KYBER_Q) >> 16;
    13a4:	07c2                	slli	a5,a5,0x10
    13a6:	87c1                	srai	a5,a5,0x10
    13a8:	02d787b3          	mul	a5,a5,a3
    13ac:	97ba                	add	a5,a5,a4
    13ae:	87c1                	srai	a5,a5,0x10
    13b0:	fef61f23          	sh	a5,-2(a2)
    for (j = 0; j < 256; j++) {
    13b4:	fec811e3          	bne	a6,a2,1396 <PQCLEAN_KYBER768_CLEAN_invntt+0x100>
        r[j] = fqmul(r[j], f);
    }
}
    13b8:	44f2                	lw	s1,28(sp)
    13ba:	4962                	lw	s2,24(sp)
    13bc:	49d2                	lw	s3,20(sp)
    13be:	4a42                	lw	s4,16(sp)
    13c0:	4ab2                	lw	s5,12(sp)
    13c2:	4b22                	lw	s6,8(sp)
    13c4:	6105                	addi	sp,sp,32
    13c6:	8082                	ret

000013c8 <PQCLEAN_KYBER768_CLEAN_poly_basemul_montgomery>:
    for (i = 0; i < KYBER_N / 4; i++) {
    13c8:	000808b7          	lui	a7,0x80
    13cc:	38088893          	addi	a7,a7,896 # 80380 <PQCLEAN_KYBER768_CLEAN_zetas>
    t = (int16_t)a * QINV;
    13d0:	777d                	lui	a4,0xfffff
    13d2:	08088813          	addi	a6,a7,128
    13d6:	30170693          	addi	a3,a4,769 # fffff301 <_sp+0xfff1ea21>
    13da:	10088893          	addi	a7,a7,256
    t = (a - (int32_t)t * KYBER_Q) >> 16;
    13de:	2ff70713          	addi	a4,a4,767
    return PQCLEAN_KYBER768_CLEAN_montgomery_reduce((int32_t)a * b);
    13e2:	00261783          	lh	a5,2(a2)
    13e6:	00259e03          	lh	t3,2(a1) # 1002 <init_ip+0xc0>
        PQCLEAN_KYBER768_CLEAN_basemul(&r->coeffs[4 * i], &a->coeffs[4 * i], &b->coeffs[4 * i], PQCLEAN_KYBER768_CLEAN_zetas[64 + i]);
    13ea:	00081e83          	lh	t4,0(a6)
    for (i = 0; i < KYBER_N / 4; i++) {
    13ee:	0521                	addi	a0,a0,8
    13f0:	02fe0e33          	mul	t3,t3,a5
    13f4:	05a1                	addi	a1,a1,8
    13f6:	0621                	addi	a2,a2,8
        PQCLEAN_KYBER768_CLEAN_basemul(&r->coeffs[4 * i + 2], &a->coeffs[4 * i + 2], &b->coeffs[4 * i + 2], -PQCLEAN_KYBER768_CLEAN_zetas[64 + i]);
    13f8:	41d00333          	neg	t1,t4
    13fc:	0342                	slli	t1,t1,0x10
    13fe:	41035313          	srai	t1,t1,0x10
    for (i = 0; i < KYBER_N / 4; i++) {
    1402:	0809                	addi	a6,a6,2
    t = (int16_t)a * QINV;
    1404:	02de07b3          	mul	a5,t3,a3
    t = (a - (int32_t)t * KYBER_Q) >> 16;
    1408:	07c2                	slli	a5,a5,0x10
    140a:	87c1                	srai	a5,a5,0x10
    140c:	02e787b3          	mul	a5,a5,a4
    1410:	97f2                	add	a5,a5,t3
    1412:	87c1                	srai	a5,a5,0x10
    1414:	03d787b3          	mul	a5,a5,t4
    t = (int16_t)a * QINV;
    1418:	02d78e33          	mul	t3,a5,a3
    t = (a - (int32_t)t * KYBER_Q) >> 16;
    141c:	0e42                	slli	t3,t3,0x10
    141e:	410e5e13          	srai	t3,t3,0x10
    1422:	02ee0e33          	mul	t3,t3,a4
    1426:	9e3e                	add	t3,t3,a5
    1428:	410e5e13          	srai	t3,t3,0x10
    142c:	ffc51c23          	sh	t3,-8(a0)
    1430:	ff861783          	lh	a5,-8(a2)
    1434:	ff859e83          	lh	t4,-8(a1)
    1438:	02fe8eb3          	mul	t4,t4,a5
    t = (int16_t)a * QINV;
    143c:	02de87b3          	mul	a5,t4,a3
    t = (a - (int32_t)t * KYBER_Q) >> 16;
    1440:	07c2                	slli	a5,a5,0x10
    1442:	87c1                	srai	a5,a5,0x10
    1444:	02e787b3          	mul	a5,a5,a4
    1448:	97f6                	add	a5,a5,t4
    144a:	87c1                	srai	a5,a5,0x10
*              - int16_t zeta: integer defining the reduction polynomial
**************************************************/
void PQCLEAN_KYBER768_CLEAN_basemul(int16_t r[2], const int16_t a[2], const int16_t b[2], int16_t zeta) {
    r[0]  = fqmul(a[1], b[1]);
    r[0]  = fqmul(r[0], zeta);
    r[0] += fqmul(a[0], b[0]);
    144c:	97f2                	add	a5,a5,t3
    144e:	fef51c23          	sh	a5,-8(a0)
    return PQCLEAN_KYBER768_CLEAN_montgomery_reduce((int32_t)a * b);
    1452:	ffa61e03          	lh	t3,-6(a2)
    1456:	ff859783          	lh	a5,-8(a1)
    145a:	03c787b3          	mul	a5,a5,t3
    t = (int16_t)a * QINV;
    145e:	02d78e33          	mul	t3,a5,a3
    t = (a - (int32_t)t * KYBER_Q) >> 16;
    1462:	0e42                	slli	t3,t3,0x10
    1464:	410e5e13          	srai	t3,t3,0x10
    1468:	02ee0e33          	mul	t3,t3,a4
    146c:	9e3e                	add	t3,t3,a5
    146e:	410e5e13          	srai	t3,t3,0x10
    1472:	ffc51d23          	sh	t3,-6(a0)
    1476:	ff861783          	lh	a5,-8(a2)
    147a:	ffa59e83          	lh	t4,-6(a1)
    147e:	02fe8eb3          	mul	t4,t4,a5
    t = (int16_t)a * QINV;
    1482:	02de87b3          	mul	a5,t4,a3
    t = (a - (int32_t)t * KYBER_Q) >> 16;
    1486:	07c2                	slli	a5,a5,0x10
    1488:	87c1                	srai	a5,a5,0x10
    148a:	02e787b3          	mul	a5,a5,a4
    148e:	97f6                	add	a5,a5,t4
    1490:	87c1                	srai	a5,a5,0x10
    r[1]  = fqmul(a[0], b[1]);
    r[1] += fqmul(a[1], b[0]);
    1492:	97f2                	add	a5,a5,t3
    1494:	fef51d23          	sh	a5,-6(a0)
    return PQCLEAN_KYBER768_CLEAN_montgomery_reduce((int32_t)a * b);
    1498:	ffe61783          	lh	a5,-2(a2)
    149c:	ffe59e03          	lh	t3,-2(a1)
    14a0:	02fe0e33          	mul	t3,t3,a5
    t = (int16_t)a * QINV;
    14a4:	02de07b3          	mul	a5,t3,a3
    t = (a - (int32_t)t * KYBER_Q) >> 16;
    14a8:	07c2                	slli	a5,a5,0x10
    14aa:	87c1                	srai	a5,a5,0x10
    14ac:	02e787b3          	mul	a5,a5,a4
    14b0:	97f2                	add	a5,a5,t3
    14b2:	87c1                	srai	a5,a5,0x10
    14b4:	026787b3          	mul	a5,a5,t1
    t = (int16_t)a * QINV;
    14b8:	02d78333          	mul	t1,a5,a3
    t = (a - (int32_t)t * KYBER_Q) >> 16;
    14bc:	0342                	slli	t1,t1,0x10
    14be:	41035313          	srai	t1,t1,0x10
    14c2:	02e30333          	mul	t1,t1,a4
    14c6:	933e                	add	t1,t1,a5
    14c8:	41035313          	srai	t1,t1,0x10
    14cc:	fe651e23          	sh	t1,-4(a0)
    14d0:	ffc61783          	lh	a5,-4(a2)
    14d4:	ffc59e03          	lh	t3,-4(a1)
    14d8:	02fe0e33          	mul	t3,t3,a5
    t = (int16_t)a * QINV;
    14dc:	02de07b3          	mul	a5,t3,a3
    t = (a - (int32_t)t * KYBER_Q) >> 16;
    14e0:	07c2                	slli	a5,a5,0x10
    14e2:	87c1                	srai	a5,a5,0x10
    14e4:	02e787b3          	mul	a5,a5,a4
    14e8:	97f2                	add	a5,a5,t3
    14ea:	87c1                	srai	a5,a5,0x10
    r[0] += fqmul(a[0], b[0]);
    14ec:	979a                	add	a5,a5,t1
    14ee:	fef51e23          	sh	a5,-4(a0)
    return PQCLEAN_KYBER768_CLEAN_montgomery_reduce((int32_t)a * b);
    14f2:	ffe61303          	lh	t1,-2(a2)
    14f6:	ffc59783          	lh	a5,-4(a1)
    14fa:	026787b3          	mul	a5,a5,t1
    t = (int16_t)a * QINV;
    14fe:	02d78333          	mul	t1,a5,a3
    t = (a - (int32_t)t * KYBER_Q) >> 16;
    1502:	0342                	slli	t1,t1,0x10
    1504:	41035313          	srai	t1,t1,0x10
    1508:	02e30333          	mul	t1,t1,a4
    150c:	933e                	add	t1,t1,a5
    150e:	41035313          	srai	t1,t1,0x10
    1512:	fe651f23          	sh	t1,-2(a0)
    1516:	ffc61783          	lh	a5,-4(a2)
    151a:	ffe59e03          	lh	t3,-2(a1)
    151e:	02fe0e33          	mul	t3,t3,a5
    t = (int16_t)a * QINV;
    1522:	02de07b3          	mul	a5,t3,a3
    t = (a - (int32_t)t * KYBER_Q) >> 16;
    1526:	07c2                	slli	a5,a5,0x10
    1528:	87c1                	srai	a5,a5,0x10
    152a:	02e787b3          	mul	a5,a5,a4
    152e:	97f2                	add	a5,a5,t3
    1530:	87c1                	srai	a5,a5,0x10
    r[1] += fqmul(a[1], b[0]);
    1532:	979a                	add	a5,a5,t1
    1534:	fef51f23          	sh	a5,-2(a0)
    1538:	eb0895e3          	bne	a7,a6,13e2 <PQCLEAN_KYBER768_CLEAN_poly_basemul_montgomery+0x1a>
}
    153c:	8082                	ret

0000153e <PQCLEAN_KYBER768_CLEAN_polyvec_basemul_acc_montgomery>:
void PQCLEAN_KYBER768_CLEAN_polyvec_basemul_acc_montgomery(poly *r, const polyvec *a, const polyvec *b) {
    153e:	de010113          	addi	sp,sp,-544
    1542:	20112e23          	sw	ra,540(sp)
    1546:	20912c23          	sw	s1,536(sp)
    154a:	21212a23          	sw	s2,532(sp)
    154e:	21312823          	sw	s3,528(sp)
    1552:	21412623          	sw	s4,524(sp)
    1556:	21512423          	sw	s5,520(sp)
    155a:	8a2a                	mv	s4,a0
    155c:	21612223          	sw	s6,516(sp)
    1560:	8aae                	mv	s5,a1
    1562:	8b32                	mv	s6,a2
    PQCLEAN_KYBER768_CLEAN_poly_basemul_montgomery(r, &a->vec[0], &b->vec[0]);
    1564:	3595                	jal	13c8 <PQCLEAN_KYBER768_CLEAN_poly_basemul_montgomery>
        PQCLEAN_KYBER768_CLEAN_poly_basemul_montgomery(&t, &a->vec[i], &b->vec[i]);
    1566:	200b0613          	addi	a2,s6,512
    156a:	200a8593          	addi	a1,s5,512
    156e:	850a                	mv	a0,sp
    1570:	3da1                	jal	13c8 <PQCLEAN_KYBER768_CLEAN_poly_basemul_montgomery>
    for (i = 0; i < KYBER_N; i++) {
    1572:	84d2                	mv	s1,s4
    1574:	890a                	mv	s2,sp
    1576:	20010993          	addi	s3,sp,512
    157a:	870a                	mv	a4,sp
    157c:	87d2                	mv	a5,s4
        r->coeffs[i] = a->coeffs[i] + b->coeffs[i];
    157e:	0007d683          	lhu	a3,0(a5)
    1582:	00075803          	lhu	a6,0(a4)
    for (i = 0; i < KYBER_N; i++) {
    1586:	0789                	addi	a5,a5,2
    1588:	0709                	addi	a4,a4,2
        r->coeffs[i] = a->coeffs[i] + b->coeffs[i];
    158a:	96c2                	add	a3,a3,a6
    158c:	fed79f23          	sh	a3,-2(a5)
    for (i = 0; i < KYBER_N; i++) {
    1590:	fee997e3          	bne	s3,a4,157e <PQCLEAN_KYBER768_CLEAN_polyvec_basemul_acc_montgomery+0x40>
    1594:	400b0613          	addi	a2,s6,1024
    1598:	400a8593          	addi	a1,s5,1024
    159c:	850a                	mv	a0,sp
    159e:	352d                	jal	13c8 <PQCLEAN_KYBER768_CLEAN_poly_basemul_montgomery>
    15a0:	87d2                	mv	a5,s4
        r->coeffs[i] = a->coeffs[i] + b->coeffs[i];
    15a2:	0007d703          	lhu	a4,0(a5)
    15a6:	00095683          	lhu	a3,0(s2)
    for (i = 0; i < KYBER_N; i++) {
    15aa:	0789                	addi	a5,a5,2
    15ac:	0909                	addi	s2,s2,2
        r->coeffs[i] = a->coeffs[i] + b->coeffs[i];
    15ae:	9736                	add	a4,a4,a3
    15b0:	fee79f23          	sh	a4,-2(a5)
    for (i = 0; i < KYBER_N; i++) {
    15b4:	ff2997e3          	bne	s3,s2,15a2 <PQCLEAN_KYBER768_CLEAN_polyvec_basemul_acc_montgomery+0x64>
    t  = ((int32_t)v * a + (1 << 25)) >> 26;
    15b8:	6595                	lui	a1,0x5
    t *= KYBER_Q;
    15ba:	6605                	lui	a2,0x1
    15bc:	200a0693          	addi	a3,s4,512 # 80000200 <_sp+0x7ff1f920>
    t  = ((int32_t)v * a + (1 << 25)) >> 26;
    15c0:	ebf58593          	addi	a1,a1,-321 # 4ebf <__swbuf_r+0x97>
    15c4:	02000537          	lui	a0,0x2000
    t *= KYBER_Q;
    15c8:	d0160613          	addi	a2,a2,-767 # d01 <main+0xaeb>
        r->coeffs[i] = PQCLEAN_KYBER768_CLEAN_barrett_reduce(r->coeffs[i]);
    15cc:	00049703          	lh	a4,0(s1) # 2000000 <_sp+0x1f1f720>
    for (i = 0; i < KYBER_N; i++) {
    15d0:	0489                	addi	s1,s1,2
    t  = ((int32_t)v * a + (1 << 25)) >> 26;
    15d2:	02b707b3          	mul	a5,a4,a1
    15d6:	97aa                	add	a5,a5,a0
    15d8:	87e9                	srai	a5,a5,0x1a
    t *= KYBER_Q;
    15da:	02c787b3          	mul	a5,a5,a2
    return a - t;
    15de:	8f1d                	sub	a4,a4,a5
        r->coeffs[i] = PQCLEAN_KYBER768_CLEAN_barrett_reduce(r->coeffs[i]);
    15e0:	fee49f23          	sh	a4,-2(s1)
    for (i = 0; i < KYBER_N; i++) {
    15e4:	fe9694e3          	bne	a3,s1,15cc <PQCLEAN_KYBER768_CLEAN_polyvec_basemul_acc_montgomery+0x8e>
}
    15e8:	21c12083          	lw	ra,540(sp)
    15ec:	21812483          	lw	s1,536(sp)
    15f0:	21412903          	lw	s2,532(sp)
    15f4:	21012983          	lw	s3,528(sp)
    15f8:	20c12a03          	lw	s4,524(sp)
    15fc:	20812a83          	lw	s5,520(sp)
    1600:	20412b03          	lw	s6,516(sp)
    1604:	22010113          	addi	sp,sp,544
    1608:	8082                	ret

0000160a <KeccakF1600_StatePermute>:
    Aba = state[0];
    160a:	4118                	lw	a4,0(a0)
static void KeccakF1600_StatePermute(uint64_t *state) {
    160c:	7109                	addi	sp,sp,-384
    160e:	16912e23          	sw	s1,380(sp)
    Aba = state[0];
    1612:	d73a                	sw	a4,172(sp)
    1614:	4158                	lw	a4,4(a0)
static void KeccakF1600_StatePermute(uint64_t *state) {
    1616:	17312a23          	sw	s3,372(sp)
    161a:	17512623          	sw	s5,364(sp)
    Aba = state[0];
    161e:	d93a                	sw	a4,176(sp)
    Abe = state[1];
    1620:	4518                	lw	a4,8(a0)
static void KeccakF1600_StatePermute(uint64_t *state) {
    1622:	17612423          	sw	s6,360(sp)
    1626:	17712223          	sw	s7,356(sp)
    Abe = state[1];
    162a:	c43a                	sw	a4,8(sp)
    162c:	4558                	lw	a4,12(a0)
static void KeccakF1600_StatePermute(uint64_t *state) {
    162e:	15912e23          	sw	s9,348(sp)
    1632:	15a12c23          	sw	s10,344(sp)
    Abe = state[1];
    1636:	db3a                	sw	a4,180(sp)
    Abi = state[2];
    1638:	4918                	lw	a4,16(a0)
static void KeccakF1600_StatePermute(uint64_t *state) {
    163a:	15b12a23          	sw	s11,340(sp)
    163e:	17212c23          	sw	s2,376(sp)
    Abi = state[2];
    1642:	dd3a                	sw	a4,184(sp)
    1644:	4958                	lw	a4,20(a0)
static void KeccakF1600_StatePermute(uint64_t *state) {
    1646:	17412823          	sw	s4,368(sp)
    164a:	17812023          	sw	s8,352(sp)
    Abi = state[2];
    164e:	df3a                	sw	a4,188(sp)
    Abo = state[3];
    1650:	4d18                	lw	a4,24(a0)
static void KeccakF1600_StatePermute(uint64_t *state) {
    1652:	14a12623          	sw	a0,332(sp)
    1656:	000807b7          	lui	a5,0x80
    Abo = state[3];
    165a:	c1ba                	sw	a4,192(sp)
    165c:	4d58                	lw	a4,28(a0)
    165e:	2c078793          	addi	a5,a5,704 # 802c0 <KeccakF_RoundConstants>
    1662:	c3ba                	sw	a4,196(sp)
    Abu = state[4];
    1664:	5118                	lw	a4,32(a0)
    1666:	c5ba                	sw	a4,200(sp)
    1668:	5158                	lw	a4,36(a0)
    166a:	c7ba                	sw	a4,204(sp)
    Aga = state[5];
    166c:	5518                	lw	a4,40(a0)
    Age = state[6];
    166e:	03052d83          	lw	s11,48(a0) # 2000030 <_sp+0x1f1f750>
    Agu = state[9];
    1672:	4564                	lw	s1,76(a0)
    Aga = state[5];
    1674:	c9ba                	sw	a4,208(sp)
    1676:	5558                	lw	a4,44(a0)
    Aki = state[12];
    1678:	06052c83          	lw	s9,96(a0)
    167c:	8b26                	mv	s6,s1
    Aga = state[5];
    167e:	cbba                	sw	a4,212(sp)
    Age = state[6];
    1680:	5958                	lw	a4,52(a0)
    1682:	c63a                	sw	a4,12(sp)
    Agi = state[7];
    1684:	5d18                	lw	a4,56(a0)
    1686:	cc3a                	sw	a4,24(sp)
    1688:	5d58                	lw	a4,60(a0)
    168a:	ce3a                	sw	a4,28(sp)
    Ago = state[8];
    168c:	4138                	lw	a4,64(a0)
    168e:	cdba                	sw	a4,216(sp)
    1690:	4178                	lw	a4,68(a0)
    1692:	cfba                	sw	a4,220(sp)
    Agu = state[9];
    1694:	4538                	lw	a4,72(a0)
    1696:	ca3a                	sw	a4,20(sp)
    Aka = state[10];
    1698:	4938                	lw	a4,80(a0)
    169a:	d03a                	sw	a4,32(sp)
    169c:	4978                	lw	a4,84(a0)
    169e:	d23a                	sw	a4,36(sp)
    Ake = state[11];
    16a0:	4d38                	lw	a4,88(a0)
    16a2:	d1ba                	sw	a4,224(sp)
    16a4:	4d78                	lw	a4,92(a0)
    16a6:	d3ba                	sw	a4,228(sp)
    Aki = state[12];
    16a8:	5178                	lw	a4,100(a0)
    16aa:	c83a                	sw	a4,16(sp)
    Ako = state[13];
    16ac:	5538                	lw	a4,104(a0)
    16ae:	d43a                	sw	a4,40(sp)
    16b0:	5578                	lw	a4,108(a0)
    16b2:	d63a                	sw	a4,44(sp)
    Aku = state[14];
    16b4:	5938                	lw	a4,112(a0)
    Amo = state[18];
    16b6:	09052983          	lw	s3,144(a0)
    16ba:	09452b83          	lw	s7,148(a0)
    Aku = state[14];
    16be:	d5ba                	sw	a4,232(sp)
    16c0:	5978                	lw	a4,116(a0)
    16c2:	8d5e                	mv	s10,s7
    16c4:	8bce                	mv	s7,s3
    16c6:	d7ba                	sw	a4,236(sp)
    Ama = state[15];
    16c8:	5d38                	lw	a4,120(a0)
    16ca:	89e6                	mv	s3,s9
    16cc:	d9ba                	sw	a4,240(sp)
    16ce:	5d78                	lw	a4,124(a0)
    16d0:	dbba                	sw	a4,244(sp)
    Ame = state[16];
    16d2:	08052703          	lw	a4,128(a0)
    16d6:	d83a                	sw	a4,48(sp)
    16d8:	08452703          	lw	a4,132(a0)
    16dc:	da3a                	sw	a4,52(sp)
    Ami = state[17];
    16de:	08852703          	lw	a4,136(a0)
    16e2:	ccba                	sw	a4,88(sp)
    16e4:	08c52703          	lw	a4,140(a0)
    16e8:	ceba                	sw	a4,92(sp)
    Amu = state[19];
    16ea:	09852703          	lw	a4,152(a0)
    16ee:	dc3a                	sw	a4,56(sp)
    16f0:	09c52703          	lw	a4,156(a0)
    16f4:	de3a                	sw	a4,60(sp)
    Asa = state[20];
    16f6:	0a052703          	lw	a4,160(a0)
    16fa:	c0ba                	sw	a4,64(sp)
    16fc:	0a452703          	lw	a4,164(a0)
    1700:	c2ba                	sw	a4,68(sp)
    Ase = state[21];
    1702:	0a852703          	lw	a4,168(a0)
    1706:	d8ba                	sw	a4,112(sp)
    1708:	0ac52703          	lw	a4,172(a0)
    170c:	daba                	sw	a4,116(sp)
    Asi = state[22];
    170e:	0b052703          	lw	a4,176(a0)
    1712:	c4ba                	sw	a4,72(sp)
    1714:	0b452703          	lw	a4,180(a0)
    Asu = state[24];
    1718:	0c452a83          	lw	s5,196(a0)
    171c:	ddee                	sw	s11,248(sp)
    Asi = state[22];
    171e:	c6ba                	sw	a4,76(sp)
    Aso = state[23];
    1720:	0b852703          	lw	a4,184(a0)
    1724:	c23e                	sw	a5,4(sp)
    1726:	8dd6                	mv	s11,s5
    1728:	d0ba                	sw	a4,96(sp)
    172a:	0bc52703          	lw	a4,188(a0)
    172e:	d2ba                	sw	a4,100(sp)
    Asu = state[24];
    1730:	0c052703          	lw	a4,192(a0)
    1734:	c8ba                	sw	a4,80(sp)
        BCa = Aba ^ Aga ^ Aka ^ Ama ^ Asa;
    1736:	57ba                	lw	a5,172(sp)
    1738:	474e                	lw	a4,208(sp)
        BCi = Abi ^ Agi ^ Aki ^ Ami ^ Asi;
    173a:	58ea                	lw	a7,184(sp)
    173c:	4362                	lw	t1,24(sp)
    173e:	5efa                	lw	t4,188(sp)
    1740:	4ff2                	lw	t6,28(sp)
        BCa = Aba ^ Aga ^ Aka ^ Ama ^ Asa;
    1742:	45de                	lw	a1,212(sp)
        BCe = Abe ^ Age ^ Ake ^ Ame ^ Ase;
    1744:	54da                	lw	s1,180(sp)
    1746:	4832                	lw	a6,12(sp)
        BCo = Abo ^ Ago ^ Ako ^ Amo ^ Aso;
    1748:	428e                	lw	t0,192(sp)
    174a:	43ee                	lw	t2,216(sp)
        BCa = Aba ^ Aga ^ Aka ^ Ama ^ Asa;
    174c:	56ca                	lw	a3,176(sp)
        BCe = Abe ^ Age ^ Ake ^ Ame ^ Ase;
    174e:	4522                	lw	a0,8(sp)
        BCu = Abu ^ Agu ^ Aku ^ Amu ^ Asu;
    1750:	4c2e                	lw	s8,200(sp)
    1752:	4cd2                	lw	s9,20(sp)
        BCa = Aba ^ Aga ^ Aka ^ Ama ^ Asa;
    1754:	00e7c633          	xor	a2,a5,a4
        BCi = Abi ^ Agi ^ Aki ^ Ami ^ Asi;
    1758:	0068ce33          	xor	t3,a7,t1
        BCe = Abe ^ Age ^ Ake ^ Ame ^ Ase;
    175c:	576e                	lw	a4,248(sp)
        BCi = Abi ^ Agi ^ Aki ^ Ami ^ Asi;
    175e:	01fec333          	xor	t1,t4,t6
        BCe = Abe ^ Age ^ Ake ^ Ame ^ Ase;
    1762:	5f9e                	lw	t6,228(sp)
        BCo = Abo ^ Ago ^ Ako ^ Amo ^ Aso;
    1764:	491e                	lw	s2,196(sp)
    1766:	4a7e                	lw	s4,220(sp)
        BCa = Aba ^ Aga ^ Aka ^ Ama ^ Asa;
    1768:	5e92                	lw	t4,36(sp)
        BCe = Abe ^ Age ^ Ake ^ Ame ^ Ase;
    176a:	5f0e                	lw	t5,224(sp)
    176c:	0104c7b3          	xor	a5,s1,a6
        BCo = Abo ^ Ago ^ Ako ^ Amo ^ Aso;
    1770:	0072c8b3          	xor	a7,t0,t2
        BCa = Aba ^ Aga ^ Aka ^ Ama ^ Asa;
    1774:	5482                	lw	s1,32(sp)
        BCo = Abo ^ Ago ^ Ako ^ Amo ^ Aso;
    1776:	53a2                	lw	t2,40(sp)
        BCa = Aba ^ Aga ^ Aka ^ Ama ^ Asa;
    1778:	8ead                	xor	a3,a3,a1
        BCu = Abu ^ Agu ^ Aku ^ Amu ^ Asu;
    177a:	45be                	lw	a1,204(sp)
        BCe = Abe ^ Age ^ Ake ^ Ame ^ Ase;
    177c:	8f29                	xor	a4,a4,a0
    177e:	01f7c7b3          	xor	a5,a5,t6
        BCu = Abu ^ Agu ^ Aku ^ Amu ^ Asu;
    1782:	019c4533          	xor	a0,s8,s9
        BCe = Abe ^ Age ^ Ake ^ Ame ^ Ase;
    1786:	5fd2                	lw	t6,52(sp)
        BCu = Abu ^ Agu ^ Aku ^ Amu ^ Asu;
    1788:	5cbe                	lw	s9,236(sp)
        BCi = Abi ^ Agi ^ Aki ^ Ami ^ Asi;
    178a:	42c2                	lw	t0,16(sp)
        BCo = Abo ^ Ago ^ Ako ^ Amo ^ Aso;
    178c:	01494833          	xor	a6,s2,s4
        BCu = Abu ^ Agu ^ Aku ^ Amu ^ Asu;
    1790:	0165c5b3          	xor	a1,a1,s6
        BCo = Abo ^ Ago ^ Ako ^ Amo ^ Aso;
    1794:	5932                	lw	s2,44(sp)
        BCu = Abu ^ Agu ^ Aku ^ Amu ^ Asu;
    1796:	5a2e                	lw	s4,232(sp)
        BCa = Aba ^ Aga ^ Aka ^ Ama ^ Asa;
    1798:	8e25                	xor	a2,a2,s1
    179a:	01d6c6b3          	xor	a3,a3,t4
    179e:	54ce                	lw	s1,240(sp)
    17a0:	5ede                	lw	t4,244(sp)
        BCe = Abe ^ Age ^ Ake ^ Ame ^ Ase;
    17a2:	01e74733          	xor	a4,a4,t5
        BCo = Abo ^ Ago ^ Ako ^ Amo ^ Aso;
    17a6:	0078c8b3          	xor	a7,a7,t2
        BCe = Abe ^ Age ^ Ake ^ Ame ^ Ase;
    17aa:	5f42                	lw	t5,48(sp)
        BCi = Abi ^ Agi ^ Aki ^ Ami ^ Asi;
    17ac:	43e6                	lw	t2,88(sp)
        BCu = Abu ^ Agu ^ Aku ^ Amu ^ Asu;
    17ae:	0195c5b3          	xor	a1,a1,s9
        BCe = Abe ^ Age ^ Ake ^ Ame ^ Ase;
    17b2:	01f7c7b3          	xor	a5,a5,t6
        BCa = Aba ^ Aga ^ Aka ^ Ama ^ Asa;
    17b6:	4c86                	lw	s9,64(sp)
        BCi = Abi ^ Agi ^ Aki ^ Ami ^ Asi;
    17b8:	4fa6                	lw	t6,72(sp)
    17ba:	013e4e33          	xor	t3,t3,s3
    17be:	007e4e33          	xor	t3,t3,t2
        BCo = Abo ^ Ago ^ Ako ^ Amo ^ Aso;
    17c2:	01284833          	xor	a6,a6,s2
        BCa = Aba ^ Aga ^ Aka ^ Ama ^ Asa;
    17c6:	8e25                	xor	a2,a2,s1
        BCi = Abi ^ Agi ^ Aki ^ Ami ^ Asi;
    17c8:	4976                	lw	s2,92(sp)
        BCa = Aba ^ Aga ^ Aka ^ Ama ^ Asa;
    17ca:	01964633          	xor	a2,a2,s9
        BCu = Abu ^ Agu ^ Aku ^ Amu ^ Asu;
    17ce:	5c72                	lw	s8,60(sp)
        BCi = Abi ^ Agi ^ Aki ^ Ami ^ Asi;
    17d0:	01fe4cb3          	xor	s9,t3,t6
    17d4:	4e36                	lw	t3,76(sp)
    17d6:	00534333          	xor	t1,t1,t0
    17da:	01234333          	xor	t1,t1,s2
        BCu = Abu ^ Agu ^ Aku ^ Amu ^ Asu;
    17de:	01454533          	xor	a0,a0,s4
        BCa = Aba ^ Aga ^ Aka ^ Ama ^ Asa;
    17e2:	01d6c6b3          	xor	a3,a3,t4
        BCu = Abu ^ Agu ^ Aku ^ Amu ^ Asu;
    17e6:	5a62                	lw	s4,56(sp)
        BCe = Abe ^ Age ^ Ake ^ Ame ^ Ase;
    17e8:	5ec6                	lw	t4,112(sp)
    17ea:	01e74733          	xor	a4,a4,t5
        BCu = Abu ^ Agu ^ Aku ^ Amu ^ Asu;
    17ee:	0185c5b3          	xor	a1,a1,s8
        BCe = Abe ^ Age ^ Ake ^ Ame ^ Ase;
    17f2:	5f56                	lw	t5,116(sp)
        BCi = Abi ^ Agi ^ Aki ^ Ami ^ Asi;
    17f4:	01c34c33          	xor	s8,t1,t3
        BCo = Abo ^ Ago ^ Ako ^ Amo ^ Aso;
    17f8:	5306                	lw	t1,96(sp)
        BCa = Aba ^ Aga ^ Aka ^ Ama ^ Asa;
    17fa:	4496                	lw	s1,68(sp)
        BCo = Abo ^ Ago ^ Ako ^ Amo ^ Aso;
    17fc:	0178c8b3          	xor	a7,a7,s7
        BCe = Abe ^ Age ^ Ake ^ Ame ^ Ase;
    1800:	01d74733          	xor	a4,a4,t4
    1804:	01e7c7b3          	xor	a5,a5,t5
        BCu = Abu ^ Agu ^ Aku ^ Amu ^ Asu;
    1808:	01454533          	xor	a0,a0,s4
        BCo = Abo ^ Ago ^ Ako ^ Amo ^ Aso;
    180c:	0068ca33          	xor	s4,a7,t1
    1810:	5896                	lw	a7,100(sp)
        Da = BCu ^ ROL(BCe, 1);
    1812:	00179a93          	slli	s5,a5,0x1
    1816:	01f75393          	srli	t2,a4,0x1f
        BCa = Aba ^ Aga ^ Aka ^ Ama ^ Asa;
    181a:	8ea5                	xor	a3,a3,s1
        BCo = Abo ^ Ago ^ Ako ^ Amo ^ Aso;
    181c:	01a84833          	xor	a6,a6,s10
        Da = BCu ^ ROL(BCe, 1);
    1820:	0153e3b3          	or	t2,t2,s5
    1824:	01f7d493          	srli	s1,a5,0x1f
    1828:	00171a93          	slli	s5,a4,0x1
        BCo = Abo ^ Ago ^ Ako ^ Amo ^ Aso;
    182c:	01184933          	xor	s2,a6,a7
        Da = BCu ^ ROL(BCe, 1);
    1830:	0154e4b3          	or	s1,s1,s5
        BCu = Abu ^ Agu ^ Aku ^ Amu ^ Asu;
    1834:	4846                	lw	a6,80(sp)
        De = BCa ^ ROL(BCi, 1);
    1836:	001c1a93          	slli	s5,s8,0x1
    183a:	01fcdf93          	srli	t6,s9,0x1f
    183e:	015fefb3          	or	t6,t6,s5
    1842:	001c9293          	slli	t0,s9,0x1
    1846:	01fc5a93          	srli	s5,s8,0x1f
    184a:	005ae2b3          	or	t0,s5,t0
        Di = BCe ^ ROL(BCo, 1);
    184e:	01fa5e93          	srli	t4,s4,0x1f
    1852:	00191a93          	slli	s5,s2,0x1
        BCu = Abu ^ Agu ^ Aku ^ Amu ^ Asu;
    1856:	01054533          	xor	a0,a0,a6
    185a:	01b5c5b3          	xor	a1,a1,s11
        Di = BCe ^ ROL(BCo, 1);
    185e:	001a1f13          	slli	t5,s4,0x1
    1862:	015eeeb3          	or	t4,t4,s5
    1866:	01f95a93          	srli	s5,s2,0x1f
    186a:	01eaef33          	or	t5,s5,t5
        Do = BCi ^ ROL(BCu, 1);
    186e:	00159313          	slli	t1,a1,0x1
    1872:	01f55a93          	srli	s5,a0,0x1f
    1876:	01f5de13          	srli	t3,a1,0x1f
    187a:	006ae333          	or	t1,s5,t1
    187e:	00151a93          	slli	s5,a0,0x1
        Da = BCu ^ ROL(BCe, 1);
    1882:	8d25                	xor	a0,a0,s1
        Di = BCe ^ ROL(BCo, 1);
    1884:	00ef44b3          	xor	s1,t5,a4
        Age ^= De;
    1888:	576e                	lw	a4,248(sp)
        Du = BCo ^ ROL(BCa, 1);
    188a:	00169813          	slli	a6,a3,0x1
        Do = BCi ^ ROL(BCu, 1);
    188e:	015e6e33          	or	t3,t3,s5
        Du = BCo ^ ROL(BCa, 1);
    1892:	01f65a93          	srli	s5,a2,0x1f
    1896:	01f6d893          	srli	a7,a3,0x1f
    189a:	010ae833          	or	a6,s5,a6
    189e:	00161a93          	slli	s5,a2,0x1
        De = BCa ^ ROL(BCi, 1);
    18a2:	00c2c633          	xor	a2,t0,a2
        Di = BCe ^ ROL(BCo, 1);
    18a6:	00feceb3          	xor	t4,t4,a5
        Du = BCo ^ ROL(BCa, 1);
    18aa:	0158e8b3          	or	a7,a7,s5
        Age ^= De;
    18ae:	87b2                	mv	a5,a2
    18b0:	00e64ab3          	xor	s5,a2,a4
    18b4:	4632                	lw	a2,12(sp)
        De = BCa ^ ROL(BCi, 1);
    18b6:	00dfc6b3          	xor	a3,t6,a3
        Du = BCo ^ ROL(BCa, 1);
    18ba:	0148c8b3          	xor	a7,a7,s4
        Aki ^= Di;
    18be:	42c2                	lw	t0,16(sp)
        Age ^= De;
    18c0:	00c6ca33          	xor	s4,a3,a2
        Abo ^= Do;
    18c4:	460e                	lw	a2,192(sp)
        Do = BCi ^ ROL(BCu, 1);
    18c6:	019e4e33          	xor	t3,t3,s9
        Du = BCo ^ ROL(BCa, 1);
    18ca:	01284833          	xor	a6,a6,s2
        Aki ^= Di;
    18ce:	8cf6                	mv	s9,t4
    18d0:	005ec933          	xor	s2,t4,t0
        Abo ^= Do;
    18d4:	00ce4eb3          	xor	t4,t3,a2
    18d8:	461e                	lw	a2,196(sp)
        Do = BCi ^ ROL(BCu, 1);
    18da:	01834333          	xor	t1,t1,s8
        Asu ^= Du;
    18de:	01b842b3          	xor	t0,a6,s11
        Abo ^= Do;
    18e2:	00c34f33          	xor	t5,t1,a2
        Agu ^= Du;
    18e6:	4652                	lw	a2,20(sp)
        Aki ^= Di;
    18e8:	8c26                	mv	s8,s1
    18ea:	0134c9b3          	xor	s3,s1,s3
        Abo ^= Do;
    18ee:	8d9a                	mv	s11,t1
        Amo ^= Do;
    18f0:	01a344b3          	xor	s1,t1,s10
        Asu ^= Du;
    18f4:	4d46                	lw	s10,80(sp)
        Agu ^= Du;
    18f6:	00c8c333          	xor	t1,a7,a2
        Aka ^= Da;
    18fa:	5602                	lw	a2,32(sp)
        Da = BCu ^ ROL(BCe, 1);
    18fc:	00b3c5b3          	xor	a1,t2,a1
        Asu ^= Du;
    1900:	01a8cfb3          	xor	t6,a7,s10
        Amo ^= Do;
    1904:	017e43b3          	xor	t2,t3,s7
        Abo ^= Do;
    1908:	8d72                	mv	s10,t3
        Agu ^= Du;
    190a:	ca42                	sw	a6,20(sp)
    190c:	01684e33          	xor	t3,a6,s6
        Aka ^= Da;
    1910:	00c54833          	xor	a6,a0,a2
    1914:	5612                	lw	a2,36(sp)
        Agu ^= Du;
    1916:	c846                	sw	a7,16(sp)
        Aka ^= Da;
    1918:	8b2a                	mv	s6,a0
    191a:	00c5c8b3          	xor	a7,a1,a2
        Ame ^= De;
    191e:	5642                	lw	a2,48(sp)
        Age ^= De;
    1920:	8736                	mv	a4,a3
        Aka ^= Da;
    1922:	8bae                	mv	s7,a1
        Ame ^= De;
    1924:	00c7c533          	xor	a0,a5,a2
    1928:	c8aa                	sw	a0,80(sp)
    192a:	5652                	lw	a2,52(sp)
        Abe ^= De;
    192c:	4522                	lw	a0,8(sp)
    192e:	dcbe                	sw	a5,120(sp)
        Ame ^= De;
    1930:	00c6c5b3          	xor	a1,a3,a2
        Abe ^= De;
    1934:	8fa9                	xor	a5,a5,a0
        Asi ^= Di;
    1936:	4626                	lw	a2,72(sp)
    1938:	46b6                	lw	a3,76(sp)
        Abe ^= De;
    193a:	deba                	sw	a4,124(sp)
    193c:	555a                	lw	a0,180(sp)
        Asi ^= Di;
    193e:	00cc4633          	xor	a2,s8,a2
        Agi ^= Di;
    1942:	c162                	sw	s8,128(sp)
        Abe ^= De;
    1944:	8f29                	xor	a4,a4,a0
        Agi ^= Di;
    1946:	4562                	lw	a0,24(sp)
        Asi ^= Di;
    1948:	00dcc6b3          	xor	a3,s9,a3
        Agi ^= Di;
    194c:	c366                	sw	s9,132(sp)
    194e:	00ac4c33          	xor	s8,s8,a0
    1952:	4572                	lw	a0,28(sp)
        Ako ^= Do;
    1954:	c56a                	sw	s10,136(sp)
        Agi ^= Di;
    1956:	d162                	sw	s8,160(sp)
    1958:	00acccb3          	xor	s9,s9,a0
        Ako ^= Do;
    195c:	5522                	lw	a0,40(sp)
        Amu ^= Du;
    195e:	4c42                	lw	s8,16(sp)
        Ako ^= Do;
    1960:	c76e                	sw	s11,140(sp)
    1962:	00ad4d33          	xor	s10,s10,a0
    1966:	5532                	lw	a0,44(sp)
        Agi ^= Di;
    1968:	db66                	sw	s9,180(sp)
        Ako ^= Do;
    196a:	c1ea                	sw	s10,192(sp)
    196c:	00adcdb3          	xor	s11,s11,a0
        Amu ^= Du;
    1970:	5562                	lw	a0,56(sp)
    1972:	4cd2                	lw	s9,20(sp)
        Ako ^= Do;
    1974:	c3ee                	sw	s11,196(sp)
        Amu ^= Du;
    1976:	00ac4d33          	xor	s10,s8,a0
    197a:	5572                	lw	a0,60(sp)
        Asa ^= Da;
    197c:	c45a                	sw	s6,8(sp)
        Amu ^= Du;
    197e:	ddea                	sw	s10,248(sp)
    1980:	00accdb3          	xor	s11,s9,a0
        Asa ^= Da;
    1984:	4506                	lw	a0,64(sp)
        BCe = ROL(Age, 44);
    1986:	00ca1d13          	slli	s10,s4,0xc
        Amu ^= Du;
    198a:	dfee                	sw	s11,252(sp)
        Asa ^= Da;
    198c:	00ab4b33          	xor	s6,s6,a0
    1990:	4516                	lw	a0,68(sp)
    1992:	11612023          	sw	s6,256(sp)
        Eba ^= KeccakF_RoundConstants[round];
    1996:	4b12                	lw	s6,4(sp)
        Asa ^= Da;
    1998:	00abc533          	xor	a0,s7,a0
    199c:	10a12223          	sw	a0,260(sp)
        Eba ^= KeccakF_RoundConstants[round];
    19a0:	000b2503          	lw	a0,0(s6)
        Asa ^= Da;
    19a4:	c65e                	sw	s7,12(sp)
        BCe = ROL(Age, 44);
    19a6:	cc6a                	sw	s10,24(sp)
        Eba ^= KeccakF_RoundConstants[round];
    19a8:	c92a                	sw	a0,144(sp)
    19aa:	004b2503          	lw	a0,4(s6)
        BCi = ROL(Aki, 43);
    19ae:	00b91b13          	slli	s6,s2,0xb
    19b2:	01595913          	srli	s2,s2,0x15
        Eba ^= KeccakF_RoundConstants[round];
    19b6:	cf2a                	sw	a0,156(sp)
        BCe = ROL(Age, 44);
    19b8:	014ad513          	srli	a0,s5,0x14
    19bc:	ce2a                	sw	a0,28(sp)
        BCi = ROL(Aki, 43);
    19be:	d05a                	sw	s6,32(sp)
        BCo = ROL(Ame, 45);
    19c0:	4546                	lw	a0,80(sp)
        BCi = ROL(Aki, 43);
    19c2:	d44a                	sw	s2,40(sp)
        BCo = ROL(Amo, 21);
    19c4:	00b3d913          	srli	s2,t2,0xb
    19c8:	d64a                	sw	s2,44(sp)
    19ca:	01549913          	slli	s2,s1,0x15
    19ce:	d84a                	sw	s2,48(sp)
        BCu = ROL(Asu, 14);
    19d0:	012fd913          	srli	s2,t6,0x12
    19d4:	da4a                	sw	s2,52(sp)
        BCe = ROL(Agu, 20);
    19d6:	014e1b93          	slli	s7,t3,0x14
        BCo = ROL(Ame, 45);
    19da:	01355913          	srli	s2,a0,0x13
        BCe = ROL(Agu, 20);
    19de:	00ce5e13          	srli	t3,t3,0xc
    19e2:	dc72                	sw	t3,56(sp)
        BCo = ROL(Ame, 45);
    19e4:	c6ca                	sw	s2,76(sp)
        BCi = ROL(Aka, 3);
    19e6:	00389e13          	slli	t3,a7,0x3
        BCu = ROL(Asi, 61);
    19ea:	01d69913          	slli	s2,a3,0x1d
        BCi = ROL(Aka, 3);
    19ee:	c0f2                	sw	t3,64(sp)
        BCu = ROL(Asi, 61);
    19f0:	c8ca                	sw	s2,80(sp)
        BCo = ROL(Ame, 45);
    19f2:	00d59e13          	slli	t3,a1,0xd
        BCa = ROL(Abe, 1);
    19f6:	01f7d913          	srli	s2,a5,0x1f
        BCo = ROL(Ame, 45);
    19fa:	c4f2                	sw	t3,72(sp)
        BCa = ROL(Abe, 1);
    19fc:	d4ca                	sw	s2,104(sp)
        BCu = ROL(Asi, 61);
    19fe:	00365e13          	srli	t3,a2,0x3
        BCa = ROL(Abe, 1);
    1a02:	00171913          	slli	s2,a4,0x1
        BCu = ROL(Asi, 61);
    1a06:	caf2                	sw	t3,84(sp)
        BCa = ROL(Abe, 1);
    1a08:	d6ca                	sw	s2,108(sp)
        BCe = ROL(Age, 44);
    1a0a:	4e72                	lw	t3,28(sp)
    1a0c:	4962                	lw	s2,24(sp)
        BCi = ROL(Aki, 43);
    1a0e:	0159dc93          	srli	s9,s3,0x15
    1a12:	d266                	sw	s9,36(sp)
        BCe = ROL(Age, 44);
    1a14:	0ab2                	slli	s5,s5,0xc
    1a16:	014a5a13          	srli	s4,s4,0x14
    1a1a:	01c96933          	or	s2,s2,t3
    1a1e:	014aea33          	or	s4,s5,s4
        BCi = ROL(Aki, 43);
    1a22:	5e02                	lw	t3,32(sp)
    1a24:	5a92                	lw	s5,36(sp)
        BCe = ROL(Age, 44);
    1a26:	cb4a                	sw	s2,148(sp)
    1a28:	cd52                	sw	s4,152(sp)
        BCi = ROL(Aki, 43);
    1a2a:	015e6ab3          	or	s5,t3,s5
    1a2e:	cc56                	sw	s5,24(sp)
        BCo = ROL(Amo, 21);
    1a30:	5e32                	lw	t3,44(sp)
    1a32:	5ac2                	lw	s5,48(sp)
        BCi = ROL(Aki, 43);
    1a34:	5922                	lw	s2,40(sp)
        BCu = ROL(Asu, 14);
    1a36:	00e29d93          	slli	s11,t0,0xe
        BCo = ROL(Amo, 21);
    1a3a:	015e6a33          	or	s4,t3,s5
        BCu = ROL(Asu, 14);
    1a3e:	5e52                	lw	t3,52(sp)
    1a40:	0122d293          	srli	t0,t0,0x12
    1a44:	0fba                	slli	t6,t6,0xe
        BCa = ROL(Abo, 28);
    1a46:	004edd13          	srli	s10,t4,0x4
    1a4a:	01cf1c93          	slli	s9,t5,0x1c
        BCu = ROL(Asu, 14);
    1a4e:	01f2efb3          	or	t6,t0,t6
        BCo = ROL(Amo, 21);
    1a52:	80ad                	srli	s1,s1,0xb
        BCa = ROL(Abo, 28);
    1a54:	0ef2                	slli	t4,t4,0x1c
        BCi = ROL(Aki, 43);
    1a56:	09ae                	slli	s3,s3,0xb
        BCo = ROL(Amo, 21);
    1a58:	03d6                	slli	t2,t2,0x15
        BCa = ROL(Abo, 28);
    1a5a:	004f5f13          	srli	t5,t5,0x4
        BCe = ROL(Agu, 20);
    1a5e:	00c35c13          	srli	s8,t1,0xc
        BCi = ROL(Aki, 43);
    1a62:	0129e9b3          	or	s3,s3,s2
        BCo = ROL(Amo, 21);
    1a66:	0074e3b3          	or	t2,s1,t2
        BCa = ROL(Abo, 28);
    1a6a:	01df6f33          	or	t5,t5,t4
        BCu = ROL(Asu, 14);
    1a6e:	01be64b3          	or	s1,t3,s11
    1a72:	d47e                	sw	t6,40(sp)
        BCa = ROL(Abo, 28);
    1a74:	019d6fb3          	or	t6,s10,s9
        BCe = ROL(Agu, 20);
    1a78:	017c6eb3          	or	t4,s8,s7
        BCi = ROL(Aka, 3);
    1a7c:	01d85b13          	srli	s6,a6,0x1d
    1a80:	01d8d893          	srli	a7,a7,0x1d
    1a84:	080e                	slli	a6,a6,0x3
        BCi = ROL(Aki, 43);
    1a86:	ce4e                	sw	s3,28(sp)
        BCo = ROL(Amo, 21);
    1a88:	d252                	sw	s4,36(sp)
    1a8a:	d01e                	sw	t2,32(sp)
        BCu = ROL(Asu, 14);
    1a8c:	d626                	sw	s1,44(sp)
        BCa = ROL(Abo, 28);
    1a8e:	da7e                	sw	t6,52(sp)
    1a90:	d87a                	sw	t5,48(sp)
        BCe = ROL(Agu, 20);
    1a92:	de76                	sw	t4,60(sp)
        BCi = ROL(Aka, 3);
    1a94:	0108e2b3          	or	t0,a7,a6
        BCo = ROL(Ame, 45);
    1a98:	4e26                	lw	t3,72(sp)
    1a9a:	4836                	lw	a6,76(sp)
        Aga ^= Da;
    1a9c:	4ea2                	lw	t4,8(sp)
        BCi = ROL(Aka, 3);
    1a9e:	4a86                	lw	s5,64(sp)
        Aga ^= Da;
    1aa0:	49ce                	lw	s3,208(sp)
        BCo = ROL(Ame, 45);
    1aa2:	010e6f33          	or	t5,t3,a6
        BCu = ROL(Asi, 61);
    1aa6:	4846                	lw	a6,80(sp)
    1aa8:	4e56                	lw	t3,84(sp)
        BCe = ROL(Agu, 20);
    1aaa:	54e2                	lw	s1,56(sp)
        Aga ^= Da;
    1aac:	4bb2                	lw	s7,12(sp)
        BCi = ROL(Aka, 3);
    1aae:	015b6ab3          	or	s5,s6,s5
        Aga ^= Da;
    1ab2:	013ecb33          	xor	s6,t4,s3
    1ab6:	49de                	lw	s3,212(sp)
        BCo = ROL(Ame, 45);
    1ab8:	81cd                	srli	a1,a1,0x13
    1aba:	0536                	slli	a0,a0,0xd
        BCa = ROL(Abe, 1);
    1abc:	5936                	lw	s2,108(sp)
        BCo = ROL(Ame, 45);
    1abe:	8d4d                	or	a0,a0,a1
        BCe = ROL(Agu, 20);
    1ac0:	0352                	slli	t1,t1,0x14
        BCu = ROL(Asi, 61);
    1ac2:	01c865b3          	or	a1,a6,t3
    1ac6:	828d                	srli	a3,a3,0x3
        BCa = ROL(Abe, 1);
    1ac8:	5826                	lw	a6,104(sp)
        BCu = ROL(Asi, 61);
    1aca:	0676                	slli	a2,a2,0x1d
        BCe = ROL(Agu, 20);
    1acc:	0064e3b3          	or	t2,s1,t1
        BCu = ROL(Asi, 61);
    1ad0:	8e55                	or	a2,a2,a3
        Aga ^= Da;
    1ad2:	013bc333          	xor	t1,s7,s3
        Ake ^= De;
    1ad6:	56e6                	lw	a3,120(sp)
    1ad8:	598e                	lw	s3,224(sp)
        BCu = ROL(Asi, 61);
    1ada:	cab2                	sw	a2,84(sp)
        BCa = ROL(Abe, 1);
    1adc:	01286633          	or	a2,a6,s2
        Ake ^= De;
    1ae0:	0136ccb3          	xor	s9,a3,s3
        Abu ^= Du;
    1ae4:	48c2                	lw	a7,16(sp)
    1ae6:	4c2e                	lw	s8,200(sp)
        Ake ^= De;
    1ae8:	599e                	lw	s3,228(sp)
        BCa = ROL(Abe, 1);
    1aea:	d532                	sw	a2,168(sp)
        Ake ^= De;
    1aec:	5676                	lw	a2,124(sp)
        BCa = ROL(Abe, 1);
    1aee:	837d                	srli	a4,a4,0x1f
    1af0:	0786                	slli	a5,a5,0x1
    1af2:	00f76933          	or	s2,a4,a5
        Abu ^= Du;
    1af6:	4852                	lw	a6,20(sp)
    1af8:	0188c7b3          	xor	a5,a7,s8
        BCo = ROL(Ame, 45);
    1afc:	c6aa                	sw	a0,76(sp)
        Ake ^= De;
    1afe:	01364c33          	xor	s8,a2,s3
        Abu ^= Du;
    1b02:	453e                	lw	a0,204(sp)
        Ami ^= Di;
    1b04:	49e6                	lw	s3,88(sp)
        BCu = ROL(Asi, 61);
    1b06:	c8ae                	sw	a1,80(sp)
        Ami ^= Di;
    1b08:	458a                	lw	a1,128(sp)
        Abu ^= Du;
    1b0a:	00a84733          	xor	a4,a6,a0
        BCe = ROL(Agu, 20);
    1b0e:	dc1e                	sw	t2,56(sp)
        Ami ^= Di;
    1b10:	0135c833          	xor	a6,a1,s3
        BCi = ROL(Aka, 3);
    1b14:	c2d6                	sw	s5,68(sp)
    1b16:	c096                	sw	t0,64(sp)
        BCo = ROL(Ame, 45);
    1b18:	c4fa                	sw	t5,72(sp)
        BCa = ROL(Abe, 1);
    1b1a:	d34a                	sw	s2,164(sp)
        Aga ^= Da;
    1b1c:	10612423          	sw	t1,264(sp)
        Ami ^= Di;
    1b20:	451a                	lw	a0,132(sp)
    1b22:	49f6                	lw	s3,92(sp)
        Aso ^= Do;
    1b24:	4d2a                	lw	s10,136(sp)
        BCe = ROL(Agi, 6);
    1b26:	5fda                	lw	t6,180(sp)
        Ami ^= Di;
    1b28:	013548b3          	xor	a7,a0,s3
        Aso ^= Do;
    1b2c:	5986                	lw	s3,96(sp)
    1b2e:	4dba                	lw	s11,140(sp)
        BCe = ROL(Agi, 6);
    1b30:	006f9a13          	slli	s4,t6,0x6
        Aso ^= Do;
    1b34:	013d4d33          	xor	s10,s10,s3
    1b38:	5996                	lw	s3,100(sp)
        BCe = ROL(Agi, 6);
    1b3a:	01afde13          	srli	t3,t6,0x1a
        BCi = ROL(Ako, 25);
    1b3e:	4f8e                	lw	t6,192(sp)
        Aso ^= Do;
    1b40:	013dcdb3          	xor	s11,s11,s3
        BCe = ROL(Agi, 6);
    1b44:	598a                	lw	s3,160(sp)
        BCi = ROL(Ako, 25);
    1b46:	429e                	lw	t0,196(sp)
        Aba ^= Da;
    1b48:	5f3a                	lw	t5,172(sp)
        BCe = ROL(Agi, 6);
    1b4a:	00699313          	slli	t1,s3,0x6
    1b4e:	01a9da93          	srli	s5,s3,0x1a
        BCi = ROL(Ako, 25);
    1b52:	007fd993          	srli	s3,t6,0x7
    1b56:	0fe6                	slli	t6,t6,0x19
    1b58:	d4fe                	sw	t6,104(sp)
    1b5a:	01929913          	slli	s2,t0,0x19
        BCo = ROL(Amu, 8);
    1b5e:	5fee                	lw	t6,248(sp)
        BCi = ROL(Ako, 25);
    1b60:	0072d393          	srli	t2,t0,0x7
        BCo = ROL(Amu, 8);
    1b64:	52fe                	lw	t0,252(sp)
        Aba ^= Da;
    1b66:	01eecf33          	xor	t5,t4,t5
    1b6a:	8ede                	mv	t4,s7
    1b6c:	5bca                	lw	s7,176(sp)
        BCi = ROL(Ako, 25);
    1b6e:	d09e                	sw	t2,96(sp)
        BCo = ROL(Amu, 8);
    1b70:	018fd493          	srli	s1,t6,0x18
    1b74:	00829393          	slli	t2,t0,0x8
    1b78:	0182d513          	srli	a0,t0,0x18
    1b7c:	008f9593          	slli	a1,t6,0x8
    1b80:	0074e4b3          	or	s1,s1,t2
        Aba ^= Da;
    1b84:	017eceb3          	xor	t4,t4,s7
        BCe = ROL(Agi, 6);
    1b88:	014aeab3          	or	s5,s5,s4
        Abi ^= Di;
    1b8c:	5bea                	lw	s7,184(sp)
        BCe = ROL(Agi, 6);
    1b8e:	006e6a33          	or	s4,t3,t1
        BCi = ROL(Ako, 25);
    1b92:	0129e9b3          	or	s3,s3,s2
    1b96:	5e26                	lw	t3,104(sp)
    1b98:	5906                	lw	s2,96(sp)
        BCo = ROL(Amu, 8);
    1b9a:	d6a6                	sw	s1,108(sp)
    1b9c:	00b564b3          	or	s1,a0,a1
        Abi ^= Di;
    1ba0:	458a                	lw	a1,128(sp)
        BCu = ROL(Asa, 18);
    1ba2:	10012683          	lw	a3,256(sp)
    1ba6:	10412603          	lw	a2,260(sp)
        BCi = ROL(Ako, 25);
    1baa:	01c96933          	or	s2,s2,t3
        Abi ^= Di;
    1bae:	451a                	lw	a0,132(sp)
    1bb0:	0175ce33          	xor	t3,a1,s7
    1bb4:	5bfa                	lw	s7,188(sp)
        BCu = ROL(Asa, 18);
    1bb6:	00e6d293          	srli	t0,a3,0xe
    1bba:	01261f93          	slli	t6,a2,0x12
    1bbe:	06ca                	slli	a3,a3,0x12
    1bc0:	8239                	srli	a2,a2,0xe
    1bc2:	8e55                	or	a2,a2,a3
        Abi ^= Di;
    1bc4:	01754533          	xor	a0,a0,s7
        BCe = ROL(Agi, 6);
    1bc8:	ced6                	sw	s5,92(sp)
    1bca:	ccd2                	sw	s4,88(sp)
        BCi = ROL(Ako, 25);
    1bcc:	d2ce                	sw	s3,100(sp)
    1bce:	d0ca                	sw	s2,96(sp)
        BCo = ROL(Amu, 8);
    1bd0:	d4a6                	sw	s1,104(sp)
        BCu = ROL(Asa, 18);
    1bd2:	d732                	sw	a2,172(sp)
        Abi ^= Di;
    1bd4:	13c12623          	sw	t3,300(sp)
    1bd8:	12a12823          	sw	a0,304(sp)
        Ago ^= Do;
    1bdc:	45aa                	lw	a1,136(sp)
    1bde:	4bee                	lw	s7,216(sp)
        Ama ^= Da;
    1be0:	46a2                	lw	a3,8(sp)
        Ebe = BCe ^ ((~BCi) & BCo);
    1be2:	44e2                	lw	s1,24(sp)
        Ago ^= Do;
    1be4:	0175c533          	xor	a0,a1,s7
    1be8:	45ba                	lw	a1,140(sp)
    1bea:	4bfe                	lw	s7,220(sp)
        BCu = ROL(Asa, 18);
    1bec:	01f2efb3          	or	t6,t0,t6
        Ebi = BCi ^ ((~BCo) & BCu);
    1bf0:	5282                	lw	t0,32(sp)
        Ago ^= Do;
    1bf2:	0175c3b3          	xor	t2,a1,s7
        Aku ^= Du;
    1bf6:	45c2                	lw	a1,16(sp)
    1bf8:	5bae                	lw	s7,232(sp)
        Ebi = BCi ^ ((~BCo) & BCu);
    1bfa:	5e12                	lw	t3,36(sp)
        Ebe = BCe ^ ((~BCi) & BCo);
    1bfc:	4372                	lw	t1,28(sp)
        Aku ^= Du;
    1bfe:	0175cab3          	xor	s5,a1,s7
    1c02:	45d2                	lw	a1,20(sp)
    1c04:	5bbe                	lw	s7,236(sp)
        Ago ^= Do;
    1c06:	12712c23          	sw	t2,312(sp)
        Ebi = BCi ^ ((~BCo) & BCu);
    1c0a:	fffe4393          	not	t2,t3
        Aku ^= Du;
    1c0e:	0175ca33          	xor	s4,a1,s7
        Ama ^= Da;
    1c12:	5bce                	lw	s7,240(sp)
        Ago ^= Do;
    1c14:	12a12a23          	sw	a0,308(sp)
        Ebi = BCi ^ ((~BCo) & BCu);
    1c18:	d11e                	sw	t2,160(sp)
        Ama ^= Da;
    1c1a:	0176c9b3          	xor	s3,a3,s7
    1c1e:	46b2                	lw	a3,12(sp)
    1c20:	5bde                	lw	s7,244(sp)
    1c22:	0176c933          	xor	s2,a3,s7
        Ase ^= De;
    1c26:	56e6                	lw	a3,120(sp)
    1c28:	5bc6                	lw	s7,112(sp)
    1c2a:	0176c5b3          	xor	a1,a3,s7
    1c2e:	56f6                	lw	a3,124(sp)
    1c30:	5bd6                	lw	s7,116(sp)
    1c32:	c32e                	sw	a1,132(sp)
        Eba = BCa ^ ((~BCe) & BCi);
    1c34:	45ea                	lw	a1,152(sp)
        Ase ^= De;
    1c36:	0176c633          	xor	a2,a3,s7
        Ebe = BCe ^ ((~BCi) & BCo);
    1c3a:	fff4cb93          	not	s7,s1
    1c3e:	c55e                	sw	s7,136(sp)
        Ebi = BCi ^ ((~BCo) & BCu);
    1c40:	fff2cb93          	not	s7,t0
        Ebo = BCo ^ ((~BCu) & BCa);
    1c44:	52a2                	lw	t0,40(sp)
    1c46:	54b2                	lw	s1,44(sp)
        Eba = BCa ^ ((~BCe) & BCi);
    1c48:	46da                	lw	a3,148(sp)
        Ebi = BCi ^ ((~BCo) & BCu);
    1c4a:	c75e                	sw	s7,140(sp)
        Ebo = BCo ^ ((~BCu) & BCa);
    1c4c:	fff2cb93          	not	s7,t0
    1c50:	fff4c393          	not	t2,s1
        Ase ^= De;
    1c54:	12c12e23          	sw	a2,316(sp)
        Ebo = BCo ^ ((~BCu) & BCa);
    1c58:	d95e                	sw	s7,176(sp)
    1c5a:	db1e                	sw	t2,180(sp)
        Eba = BCa ^ ((~BCe) & BCi);
    1c5c:	fff6c513          	not	a0,a3
        Ega = BCa ^ ((~BCe) & BCi);
    1c60:	5e62                	lw	t3,56(sp)
        Ebe = BCe ^ ((~BCi) & BCo);
    1c62:	fff34693          	not	a3,t1
        Ega = BCa ^ ((~BCe) & BCi);
    1c66:	5372                	lw	t1,60(sp)
    1c68:	fffe4493          	not	s1,t3
        Egi = BCi ^ ((~BCo) & BCu);
    1c6c:	4e26                	lw	t3,72(sp)
        Ega = BCa ^ ((~BCe) & BCi);
    1c6e:	fff34293          	not	t0,t1
        Ege = BCe ^ ((~BCi) & BCo);
    1c72:	4316                	lw	t1,68(sp)
        Egi = BCi ^ ((~BCo) & BCu);
    1c74:	fffe4b93          	not	s7,t3
        Ego = BCo ^ ((~BCu) & BCa);
    1c78:	4e46                	lw	t3,80(sp)
        Ege = BCe ^ ((~BCi) & BCo);
    1c7a:	fff34393          	not	t2,t1
        Egi = BCi ^ ((~BCo) & BCu);
    1c7e:	4336                	lw	t1,76(sp)
        Ege = BCe ^ ((~BCi) & BCo);
    1c80:	df1e                	sw	t2,188(sp)
        Egi = BCi ^ ((~BCo) & BCu);
    1c82:	c1de                	sw	s7,192(sp)
    1c84:	fff34393          	not	t2,t1
        Ego = BCo ^ ((~BCu) & BCa);
    1c88:	fffe4313          	not	t1,t3
    1c8c:	c59a                	sw	t1,200(sp)
    1c8e:	4356                	lw	t1,84(sp)
        Egu = BCu ^ ((~BCa) & BCe);
    1c90:	5e42                	lw	t3,48(sp)
        Egi = BCi ^ ((~BCo) & BCu);
    1c92:	c39e                	sw	t2,196(sp)
        Ego = BCo ^ ((~BCu) & BCa);
    1c94:	fff34b93          	not	s7,t1
        Egu = BCu ^ ((~BCa) & BCe);
    1c98:	5352                	lw	t1,52(sp)
    1c9a:	fffe4393          	not	t2,t3
        Ego = BCo ^ ((~BCu) & BCa);
    1c9e:	c7de                	sw	s7,204(sp)
        Egu = BCu ^ ((~BCa) & BCe);
    1ca0:	fff34e13          	not	t3,t1
        BCa = ROL(Abu, 27);
    1ca4:	01b71313          	slli	t1,a4,0x1b
    1ca8:	c41a                	sw	t1,8(sp)
        BCe = ROL(Aga, 36);
    1caa:	10812303          	lw	t1,264(sp)
        Egu = BCu ^ ((~BCa) & BCe);
    1cae:	cbf2                	sw	t3,212(sp)
        Eku = BCu ^ ((~BCa) & BCe);
    1cb0:	5e1a                	lw	t3,164(sp)
        BCe = ROL(Aga, 36);
    1cb2:	00431613          	slli	a2,t1,0x4
    1cb6:	c632                	sw	a2,12(sp)
    1cb8:	01cb5613          	srli	a2,s6,0x1c
        Eku = BCu ^ ((~BCa) & BCe);
    1cbc:	fffe4b93          	not	s7,t3
        BCe = ROL(Aga, 36);
    1cc0:	c832                	sw	a2,16(sp)
        Eku = BCu ^ ((~BCa) & BCe);
    1cc2:	5e2a                	lw	t3,168(sp)
        BCi = ROL(Ake, 10);
    1cc4:	016cd613          	srli	a2,s9,0x16
    1cc8:	ca32                	sw	a2,20(sp)
    1cca:	00ac1613          	slli	a2,s8,0xa
    1cce:	d8b2                	sw	a2,112(sp)
        BCa = ROL(Abu, 27);
    1cd0:	4622                	lw	a2,8(sp)
        Egu = BCu ^ ((~BCa) & BCe);
    1cd2:	c99e                	sw	t2,208(sp)
        Eku = BCu ^ ((~BCa) & BCe);
    1cd4:	fffe4393          	not	t2,t3
    1cd8:	12712423          	sw	t2,296(sp)
        BCa = ROL(Abu, 27);
    1cdc:	8315                	srli	a4,a4,0x5
    1cde:	0057d393          	srli	t2,a5,0x5
    1ce2:	07ee                	slli	a5,a5,0x1b
    1ce4:	00c3e3b3          	or	t2,t2,a2
    1ce8:	8f5d                	or	a4,a4,a5
        BCi = ROL(Ake, 10);
    1cea:	016c5c13          	srli	s8,s8,0x16
    1cee:	0caa                	slli	s9,s9,0xa
        Ega = BCa ^ ((~BCe) & BCi);
    1cf0:	dd16                	sw	t0,184(sp)
        Eku = BCu ^ ((~BCa) & BCe);
    1cf2:	cdde                	sw	s7,216(sp)
        Ege = BCe ^ ((~BCi) & BCo);
    1cf4:	4286                	lw	t0,64(sp)
        BCi = ROL(Ake, 10);
    1cf6:	dae2                	sw	s8,116(sp)
    1cf8:	dce6                	sw	s9,120(sp)
        BCa = ROL(Abu, 27);
    1cfa:	c41e                	sw	t2,8(sp)
    1cfc:	83ba                	mv	t2,a4
        BCe = ROL(Aga, 36);
    1cfe:	4732                	lw	a4,12(sp)
    1d00:	4642                	lw	a2,16(sp)
        BCi = ROL(Ake, 10);
    1d02:	57c6                	lw	a5,112(sp)
        BCo = ROL(Ami, 15);
    1d04:	01185e13          	srli	t3,a6,0x11
        BCe = ROL(Aga, 36);
    1d08:	8f51                	or	a4,a4,a2
        BCi = ROL(Ake, 10);
    1d0a:	4652                	lw	a2,20(sp)
        BCo = ROL(Ami, 15);
    1d0c:	00f81c93          	slli	s9,a6,0xf
        BCe = ROL(Aga, 36);
    1d10:	01c35b93          	srli	s7,t1,0x1c
        BCu = ROL(Aso, 56);
    1d14:	008d5813          	srli	a6,s10,0x8
        BCo = ROL(Ami, 15);
    1d18:	00f89313          	slli	t1,a7,0xf
        BCi = ROL(Ake, 10);
    1d1c:	8fd1                	or	a5,a5,a2
        BCo = ROL(Ami, 15);
    1d1e:	0118dc13          	srli	s8,a7,0x11
        BCi = ROL(Ake, 10);
    1d22:	5656                	lw	a2,116(sp)
        BCu = ROL(Aso, 56);
    1d24:	018d9893          	slli	a7,s11,0x18
        BCe = ROL(Aga, 36);
    1d28:	c63a                	sw	a4,12(sp)
        BCu = ROL(Aso, 56);
    1d2a:	008ddd93          	srli	s11,s11,0x8
        BCi = ROL(Ake, 10);
    1d2e:	5766                	lw	a4,120(sp)
        BCu = ROL(Aso, 56);
    1d30:	0d62                	slli	s10,s10,0x18
    1d32:	01bd6d33          	or	s10,s10,s11
        Eba ^= KeccakF_RoundConstants[round];
    1d36:	4dca                	lw	s11,144(sp)
        BCi = ROL(Ake, 10);
    1d38:	8f51                	or	a4,a4,a2
    1d3a:	ca3a                	sw	a4,20(sp)
        Eba ^= KeccakF_RoundConstants[round];
    1d3c:	01edc633          	xor	a2,s11,t5
        Eba = BCa ^ ((~BCe) & BCi);
    1d40:	4762                	lw	a4,24(sp)
        Eba ^= KeccakF_RoundConstants[round];
    1d42:	4dfa                	lw	s11,156(sp)
        BCu = ROL(Aso, 56);
    1d44:	0108e8b3          	or	a7,a7,a6
    1d48:	dec6                	sw	a7,124(sp)
    1d4a:	c16a                	sw	s10,128(sp)
        Eba = BCa ^ ((~BCe) & BCi);
    1d4c:	00e578b3          	and	a7,a0,a4
        Eba ^= KeccakF_RoundConstants[round];
    1d50:	01ddcd33          	xor	s10,s11,t4
        Ebe = BCe ^ ((~BCi) & BCo);
    1d54:	5502                	lw	a0,32(sp)
    1d56:	4daa                	lw	s11,136(sp)
        BCe = ROL(Aga, 36);
    1d58:	0b12                	slli	s6,s6,0x4
        Eba ^= KeccakF_RoundConstants[round];
    1d5a:	d1ea                	sw	s10,224(sp)
        Eba = BCa ^ ((~BCe) & BCi);
    1d5c:	d3c6                	sw	a7,228(sp)
        Ebe = BCe ^ ((~BCi) & BCo);
    1d5e:	00adfd33          	and	s10,s11,a0
        Ebi = BCi ^ ((~BCo) & BCu);
    1d62:	58a2                	lw	a7,40(sp)
    1d64:	4dba                	lw	s11,140(sp)
        BCe = ROL(Aga, 36);
    1d66:	017b6bb3          	or	s7,s6,s7
    1d6a:	c85e                	sw	s7,16(sp)
        BCo = ROL(Ami, 15);
    1d6c:	006e6bb3          	or	s7,t3,t1
        Eba = BCa ^ ((~BCe) & BCi);
    1d70:	4372                	lw	t1,28(sp)
        Ebe = BCe ^ ((~BCi) & BCo);
    1d72:	5e12                	lw	t3,36(sp)
        Ebi = BCi ^ ((~BCo) & BCu);
    1d74:	5832                	lw	a6,44(sp)
        BCi = ROL(Ake, 10);
    1d76:	d8be                	sw	a5,112(sp)
        Ebi = BCi ^ ((~BCo) & BCu);
    1d78:	011df7b3          	and	a5,s11,a7
    1d7c:	5d8a                	lw	s11,160(sp)
        Eba = BCa ^ ((~BCe) & BCi);
    1d7e:	fff5c593          	not	a1,a1
        BCo = ROL(Ami, 15);
    1d82:	019c6c33          	or	s8,s8,s9
        Ebe = BCe ^ ((~BCi) & BCo);
    1d86:	01c6f6b3          	and	a3,a3,t3
        Eba = BCa ^ ((~BCe) & BCi);
    1d8a:	0065fcb3          	and	s9,a1,t1
        BCo = ROL(Ami, 15);
    1d8e:	dcde                	sw	s7,120(sp)
    1d90:	dae2                	sw	s8,116(sp)
        Eba ^= KeccakF_RoundConstants[round];
    1d92:	cfb2                	sw	a2,220(sp)
        Eba = BCa ^ ((~BCe) & BCi);
    1d94:	d5e6                	sw	s9,232(sp)
        Ebe = BCe ^ ((~BCi) & BCo);
    1d96:	d7ea                	sw	s10,236(sp)
        Ebi = BCi ^ ((~BCo) & BCu);
    1d98:	010dfcb3          	and	s9,s11,a6
        Ebe = BCe ^ ((~BCi) & BCo);
    1d9c:	d9b6                	sw	a3,240(sp)
        Ebi = BCi ^ ((~BCo) & BCu);
    1d9e:	dbbe                	sw	a5,244(sp)
    1da0:	dde6                	sw	s9,248(sp)
        Ebo = BCo ^ ((~BCu) & BCa);
    1da2:	5dca                	lw	s11,176(sp)
        Ega = BCa ^ ((~BCe) & BCi);
    1da4:	4b86                	lw	s7,64(sp)
        Ege = BCe ^ ((~BCi) & BCo);
    1da6:	4cb6                	lw	s9,76(sp)
        Ebo = BCo ^ ((~BCu) & BCa);
    1da8:	01edf5b3          	and	a1,s11,t5
    1dac:	5dda                	lw	s11,180(sp)
        Ega = BCa ^ ((~BCe) & BCi);
    1dae:	0174f4b3          	and	s1,s1,s7
    1db2:	4b96                	lw	s7,68(sp)
        Ebo = BCo ^ ((~BCu) & BCa);
    1db4:	01ddfc33          	and	s8,s11,t4
        Ega = BCa ^ ((~BCe) & BCi);
    1db8:	5dea                	lw	s11,184(sp)
        Ebu = BCu ^ ((~BCa) & BCe);
    1dba:	ffff4e13          	not	t3,t5
        Egi = BCi ^ ((~BCo) & BCu);
    1dbe:	4d46                	lw	s10,80(sp)
        Ega = BCa ^ ((~BCe) & BCi);
    1dc0:	017dff33          	and	t5,s11,s7
        Ege = BCe ^ ((~BCi) & BCo);
    1dc4:	5dfa                	lw	s11,188(sp)
        Ebu = BCu ^ ((~BCa) & BCe);
    1dc6:	fffec313          	not	t1,t4
        Egi = BCi ^ ((~BCo) & BCu);
    1dca:	481e                	lw	a6,196(sp)
        Ege = BCe ^ ((~BCi) & BCo);
    1dcc:	019dfeb3          	and	t4,s11,s9
        Egi = BCi ^ ((~BCo) & BCu);
    1dd0:	4d8e                	lw	s11,192(sp)
        Ega = BCa ^ ((~BCe) & BCi);
    1dd2:	11e12223          	sw	t5,260(sp)
        Ego = BCo ^ ((~BCu) & BCa);
    1dd6:	5f42                	lw	t5,48(sp)
        Egi = BCi ^ ((~BCo) & BCu);
    1dd8:	01adfdb3          	and	s11,s11,s10
    1ddc:	11b12623          	sw	s11,268(sp)
    1de0:	4dd6                	lw	s11,84(sp)
        Ebo = BCo ^ ((~BCu) & BCa);
    1de2:	dfae                	sw	a1,252(sp)
        Ege = BCe ^ ((~BCi) & BCo);
    1de4:	11d12423          	sw	t4,264(sp)
        Egi = BCi ^ ((~BCo) & BCu);
    1de8:	01b876b3          	and	a3,a6,s11
        Ego = BCo ^ ((~BCu) & BCa);
    1dec:	482e                	lw	a6,200(sp)
    1dee:	5ed2                	lw	t4,52(sp)
        Egu = BCu ^ ((~BCa) & BCe);
    1df0:	5be2                	lw	s7,56(sp)
        Ego = BCo ^ ((~BCu) & BCa);
    1df2:	01e875b3          	and	a1,a6,t5
    1df6:	483e                	lw	a6,204(sp)
        Eka = BCa ^ ((~BCe) & BCi);
    1df8:	4b66                	lw	s6,88(sp)
        Ebo = BCo ^ ((~BCu) & BCa);
    1dfa:	11812023          	sw	s8,256(sp)
        Ego = BCo ^ ((~BCu) & BCa);
    1dfe:	01d87533          	and	a0,a6,t4
        Egu = BCu ^ ((~BCa) & BCe);
    1e02:	484e                	lw	a6,208(sp)
        Ege = BCe ^ ((~BCi) & BCo);
    1e04:	4c26                	lw	s8,72(sp)
        Eka = BCa ^ ((~BCe) & BCi);
    1e06:	4ef6                	lw	t4,92(sp)
        Egu = BCu ^ ((~BCa) & BCe);
    1e08:	01787833          	and	a6,a6,s7
    1e0c:	11012e23          	sw	a6,284(sp)
    1e10:	5bf2                	lw	s7,60(sp)
    1e12:	485e                	lw	a6,212(sp)
        Egi = BCi ^ ((~BCo) & BCu);
    1e14:	10d12823          	sw	a3,272(sp)
        Ego = BCo ^ ((~BCu) & BCa);
    1e18:	10b12a23          	sw	a1,276(sp)
        Egu = BCu ^ ((~BCa) & BCe);
    1e1c:	01787833          	and	a6,a6,s7
        Ego = BCo ^ ((~BCu) & BCa);
    1e20:	10a12c23          	sw	a0,280(sp)
        Egu = BCu ^ ((~BCa) & BCe);
    1e24:	13012023          	sw	a6,288(sp)
        Eke = BCe ^ ((~BCi) & BCo);
    1e28:	5706                	lw	a4,96(sp)
        Eki = BCi ^ ((~BCo) & BCu);
    1e2a:	56a6                	lw	a3,104(sp)
        Eku = BCu ^ ((~BCa) & BCe);
    1e2c:	4dee                	lw	s11,216(sp)
        BCa = ROL(Abi, 62);
    1e2e:	12c12c83          	lw	s9,300(sp)
        Eki = BCi ^ ((~BCo) & BCu);
    1e32:	fff6cf13          	not	t5,a3
        Ege = BCe ^ ((~BCi) & BCo);
    1e36:	fff2c293          	not	t0,t0
    1e3a:	0182f2b3          	and	t0,t0,s8
        Eka = BCa ^ ((~BCe) & BCi);
    1e3e:	fffb4893          	not	a7,s6
        BCa = ROL(Abi, 62);
    1e42:	13012c03          	lw	s8,304(sp)
        Eki = BCi ^ ((~BCo) & BCu);
    1e46:	13e12223          	sw	t5,292(sp)
        Eku = BCu ^ ((~BCa) & BCe);
    1e4a:	016dff33          	and	t5,s11,s6
    1e4e:	12812d83          	lw	s11,296(sp)
        BCa = ROL(Abi, 62);
    1e52:	01ec9b13          	slli	s6,s9,0x1e
    1e56:	c55a                	sw	s6,136(sp)
        BCe = ROL(Ago, 55);
    1e58:	13412b03          	lw	s6,308(sp)
    1e5c:	13812b83          	lw	s7,312(sp)
        Eko = BCo ^ ((~BCu) & BCa);
    1e60:	563a                	lw	a2,172(sp)
        Eka = BCa ^ ((~BCe) & BCi);
    1e62:	fffec813          	not	a6,t4
        Eke = BCe ^ ((~BCi) & BCo);
    1e66:	fff74513          	not	a0,a4
        Eku = BCu ^ ((~BCa) & BCe);
    1e6a:	01ddfeb3          	and	t4,s11,t4
        Eki = BCi ^ ((~BCo) & BCu);
    1e6e:	5736                	lw	a4,108(sp)
        BCa = ROL(Abi, 62);
    1e70:	01ec1d93          	slli	s11,s8,0x1e
    1e74:	002c5c13          	srli	s8,s8,0x2
    1e78:	c762                	sw	s8,140(sp)
        BCe = ROL(Ago, 55);
    1e7a:	009b5c13          	srli	s8,s6,0x9
    1e7e:	0b5e                	slli	s6,s6,0x17
    1e80:	c95a                	sw	s6,144(sp)
    1e82:	009bdb13          	srli	s6,s7,0x9
    1e86:	cf5a                	sw	s6,156(sp)
        Eki = BCi ^ ((~BCo) & BCu);
    1e88:	fff74693          	not	a3,a4
        BCi = ROL(Aku, 39);
    1e8c:	019adb13          	srli	s6,s5,0x19
        Eko = BCo ^ ((~BCu) & BCa);
    1e90:	fff64713          	not	a4,a2
        BCi = ROL(Aku, 39);
    1e94:	0a9e                	slli	s5,s5,0x7
        BCu = ROL(Ase, 2);
    1e96:	13c12603          	lw	a2,316(sp)
        BCi = ROL(Aku, 39);
    1e9a:	d156                	sw	s5,160(sp)
    1e9c:	019a5a93          	srli	s5,s4,0x19
    1ea0:	d956                	sw	s5,176(sp)
        BCo = ROL(Ama, 41);
    1ea2:	00991a93          	slli	s5,s2,0x9
    1ea6:	01795913          	srli	s2,s2,0x17
    1eaa:	c9ca                	sw	s2,208(sp)
        BCu = ROL(Ase, 2);
    1eac:	00261913          	slli	s2,a2,0x2
    1eb0:	8279                	srli	a2,a2,0x1e
    1eb2:	cbb2                	sw	a2,212(sp)
    1eb4:	461a                	lw	a2,132(sp)
        BCa = ROL(Abi, 62);
    1eb6:	002cdd13          	srli	s10,s9,0x2
    1eba:	01adedb3          	or	s11,s11,s10
        BCu = ROL(Ase, 2);
    1ebe:	060a                	slli	a2,a2,0x2
    1ec0:	cdb2                	sw	a2,216(sp)
        BCa = ROL(Abi, 62);
    1ec2:	dd6e                	sw	s11,184(sp)
    1ec4:	463a                	lw	a2,140(sp)
    1ec6:	4daa                	lw	s11,136(sp)
        BCe = ROL(Ago, 55);
    1ec8:	017b9c93          	slli	s9,s7,0x17
    1ecc:	018cecb3          	or	s9,s9,s8
        BCa = ROL(Abi, 62);
    1ed0:	00cded33          	or	s10,s11,a2
        BCe = ROL(Ago, 55);
    1ed4:	4c7a                	lw	s8,156(sp)
        BCi = ROL(Aku, 39);
    1ed6:	007a1b93          	slli	s7,s4,0x7
        BCe = ROL(Ago, 55);
    1eda:	4dca                	lw	s11,144(sp)
        BCo = ROL(Ama, 41);
    1edc:	0179da13          	srli	s4,s3,0x17
    1ee0:	09a6                	slli	s3,s3,0x9
    1ee2:	db4e                	sw	s3,180(sp)
        BCu = ROL(Ase, 2);
    1ee4:	499a                	lw	s3,132(sp)
        BCe = ROL(Ago, 55);
    1ee6:	018dedb3          	or	s11,s11,s8
        BCa = ROL(Abi, 62);
    1eea:	df6a                	sw	s10,188(sp)
        BCe = ROL(Ago, 55);
    1eec:	c1e6                	sw	s9,192(sp)
        Eke = BCe ^ ((~BCi) & BCo);
    1eee:	5796                	lw	a5,100(sp)
        BCu = ROL(Ase, 2);
    1ef0:	01e9d993          	srli	s3,s3,0x1e
        BCe = ROL(Ago, 55);
    1ef4:	c3ee                	sw	s11,196(sp)
        BCi = ROL(Aku, 39);
    1ef6:	016bedb3          	or	s11,s7,s6
    1efa:	5c4a                	lw	s8,176(sp)
    1efc:	5b0a                	lw	s6,160(sp)
        BCu = ROL(Ase, 2);
    1efe:	0129e9b3          	or	s3,s3,s2
        BCo = ROL(Ama, 41);
    1f02:	014aeab3          	or	s5,s5,s4
        Eba ^= KeccakF_RoundConstants[round];
    1f06:	467e                	lw	a2,220(sp)
        BCu = ROL(Ase, 2);
    1f08:	c94e                	sw	s3,144(sp)
        Eba ^= KeccakF_RoundConstants[round];
    1f0a:	599e                	lw	s3,228(sp)
        BCi = ROL(Aku, 39);
    1f0c:	018b6b33          	or	s6,s6,s8
        BCo = ROL(Ama, 41);
    1f10:	c356                	sw	s5,132(sp)
    1f12:	5c5a                	lw	s8,180(sp)
    1f14:	4ace                	lw	s5,208(sp)
        Eba ^= KeccakF_RoundConstants[round];
    1f16:	01364633          	xor	a2,a2,s3
        BCu = ROL(Ase, 2);
    1f1a:	495e                	lw	s2,212(sp)
        Eba ^= KeccakF_RoundConstants[round];
    1f1c:	59ae                	lw	s3,232(sp)
        BCo = ROL(Ama, 41);
    1f1e:	015c6c33          	or	s8,s8,s5
        Eba ^= KeccakF_RoundConstants[round];
    1f22:	cf32                	sw	a2,156(sp)
        BCu = ROL(Ase, 2);
    1f24:	4aee                	lw	s5,216(sp)
        Eba ^= KeccakF_RoundConstants[round];
    1f26:	560e                	lw	a2,224(sp)
        Ebi = BCi ^ ((~BCo) & BCu);
    1f28:	4a62                	lw	s4,24(sp)
        BCu = ROL(Ase, 2);
    1f2a:	01596933          	or	s2,s2,s5
        Eba ^= KeccakF_RoundConstants[round];
    1f2e:	01364633          	xor	a2,a2,s3
        BCu = ROL(Ase, 2);
    1f32:	c74a                	sw	s2,140(sp)
        Eba ^= KeccakF_RoundConstants[round];
    1f34:	d132                	sw	a2,160(sp)
        Ebe = BCe ^ ((~BCi) & BCo);
    1f36:	495a                	lw	s2,148(sp)
    1f38:	563e                	lw	a2,236(sp)
    1f3a:	49ea                	lw	s3,152(sp)
        Ebi = BCi ^ ((~BCo) & BCu);
    1f3c:	5cee                	lw	s9,248(sp)
        Ebe = BCe ^ ((~BCi) & BCo);
    1f3e:	01264633          	xor	a2,a2,s2
    1f42:	cb32                	sw	a2,148(sp)
    1f44:	564e                	lw	a2,240(sp)
        Ebo = BCo ^ ((~BCu) & BCa);
    1f46:	5d7e                	lw	s10,252(sp)
    1f48:	5a82                	lw	s5,32(sp)
        Ebe = BCe ^ ((~BCi) & BCo);
    1f4a:	01364633          	xor	a2,a2,s3
    1f4e:	cd32                	sw	a2,152(sp)
        Ebi = BCi ^ ((~BCo) & BCu);
    1f50:	565e                	lw	a2,244(sp)
        Ebo = BCo ^ ((~BCu) & BCa);
    1f52:	015d4ab3          	xor	s5,s10,s5
        BCi = ROL(Aku, 39);
    1f56:	c5ee                	sw	s11,200(sp)
        Ebi = BCi ^ ((~BCo) & BCu);
    1f58:	01464633          	xor	a2,a2,s4
    1f5c:	4a72                	lw	s4,28(sp)
        BCi = ROL(Aku, 39);
    1f5e:	c7da                	sw	s6,204(sp)
        BCo = ROL(Ama, 41);
    1f60:	c562                	sw	s8,136(sp)
        Ebi = BCi ^ ((~BCo) & BCu);
    1f62:	014cccb3          	xor	s9,s9,s4
    1f66:	cc32                	sw	a2,24(sp)
    1f68:	ce66                	sw	s9,28(sp)
        Ebo = BCo ^ ((~BCu) & BCa);
    1f6a:	d056                	sw	s5,32(sp)
    1f6c:	10012a83          	lw	s5,256(sp)
    1f70:	5a12                	lw	s4,36(sp)
        Ege = BCe ^ ((~BCi) & BCo);
    1f72:	5bf2                	lw	s7,60(sp)
        Ego = BCo ^ ((~BCu) & BCa);
    1f74:	4cb6                	lw	s9,76(sp)
        Ebo = BCo ^ ((~BCu) & BCa);
    1f76:	014aca33          	xor	s4,s5,s4
        Ega = BCa ^ ((~BCe) & BCi);
    1f7a:	5ac2                	lw	s5,48(sp)
        Ebo = BCo ^ ((~BCu) & BCa);
    1f7c:	d252                	sw	s4,36(sp)
        Ega = BCa ^ ((~BCe) & BCi);
    1f7e:	5a52                	lw	s4,52(sp)
    1f80:	0154cab3          	xor	s5,s1,s5
    1f84:	10412483          	lw	s1,260(sp)
        Egu = BCu ^ ((~BCa) & BCe);
    1f88:	4d46                	lw	s10,80(sp)
    1f8a:	4dd6                	lw	s11,84(sp)
        Ega = BCa ^ ((~BCe) & BCi);
    1f8c:	0144ca33          	xor	s4,s1,s4
    1f90:	da52                	sw	s4,52(sp)
        Ege = BCe ^ ((~BCi) & BCo);
    1f92:	5a62                	lw	s4,56(sp)
        Ego = BCo ^ ((~BCu) & BCa);
    1f94:	4c26                	lw	s8,72(sp)
        Eku = BCu ^ ((~BCa) & BCe);
    1f96:	563a                	lw	a2,172(sp)
        Ege = BCe ^ ((~BCi) & BCo);
    1f98:	0142c2b3          	xor	t0,t0,s4
    1f9c:	dc16                	sw	t0,56(sp)
    1f9e:	10812283          	lw	t0,264(sp)
        Egi = BCi ^ ((~BCo) & BCu);
    1fa2:	4a06                	lw	s4,64(sp)
        Eku = BCu ^ ((~BCa) & BCe);
    1fa4:	00cf4f33          	xor	t5,t5,a2
        Ege = BCe ^ ((~BCi) & BCo);
    1fa8:	0172c2b3          	xor	t0,t0,s7
    1fac:	de16                	sw	t0,60(sp)
        Egi = BCi ^ ((~BCo) & BCu);
    1fae:	10c12283          	lw	t0,268(sp)
    1fb2:	4b96                	lw	s7,68(sp)
        Ega = BCa ^ ((~BCe) & BCi);
    1fb4:	d856                	sw	s5,48(sp)
        Egi = BCi ^ ((~BCo) & BCu);
    1fb6:	0142ca33          	xor	s4,t0,s4
    1fba:	c0d2                	sw	s4,64(sp)
        Ego = BCo ^ ((~BCu) & BCa);
    1fbc:	11812a03          	lw	s4,280(sp)
        Egi = BCi ^ ((~BCo) & BCu);
    1fc0:	11012283          	lw	t0,272(sp)
        Eke = BCe ^ ((~BCi) & BCo);
    1fc4:	fff7c593          	not	a1,a5
        Ego = BCo ^ ((~BCu) & BCa);
    1fc8:	019a4cb3          	xor	s9,s4,s9
        Egu = BCu ^ ((~BCa) & BCe);
    1fcc:	11c12a03          	lw	s4,284(sp)
        Egi = BCi ^ ((~BCo) & BCu);
    1fd0:	0172cbb3          	xor	s7,t0,s7
        Ego = BCo ^ ((~BCu) & BCa);
    1fd4:	11412283          	lw	t0,276(sp)
        Egu = BCu ^ ((~BCa) & BCe);
    1fd8:	01aa4d33          	xor	s10,s4,s10
    1fdc:	12012a03          	lw	s4,288(sp)
        Ego = BCo ^ ((~BCu) & BCa);
    1fe0:	0182cc33          	xor	s8,t0,s8
        Egi = BCi ^ ((~BCo) & BCu);
    1fe4:	c2de                	sw	s7,68(sp)
        Egu = BCu ^ ((~BCa) & BCe);
    1fe6:	01ba4a33          	xor	s4,s4,s11
        Ego = BCo ^ ((~BCu) & BCa);
    1fea:	c4e2                	sw	s8,72(sp)
    1fec:	c6e6                	sw	s9,76(sp)
        Egu = BCu ^ ((~BCa) & BCe);
    1fee:	c8ea                	sw	s10,80(sp)
    1ff0:	cad2                	sw	s4,84(sp)
        Eku = BCu ^ ((~BCa) & BCe);
    1ff2:	d77a                	sw	t5,172(sp)
        Eke = BCe ^ ((~BCi) & BCo);
    1ff4:	54b6                	lw	s1,108(sp)
        Ebu = BCu ^ ((~BCa) & BCe);
    1ff6:	01337333          	and	t1,t1,s3
        Eka = BCa ^ ((~BCe) & BCi);
    1ffa:	5996                	lw	s3,100(sp)
        Eku = BCu ^ ((~BCa) & BCe);
    1ffc:	01fecf33          	xor	t5,t4,t6
        Eke = BCe ^ ((~BCi) & BCo);
    2000:	8de5                	and	a1,a1,s1
        Eko = BCo ^ ((~BCu) & BCa);
    2002:	5eaa                	lw	t4,168(sp)
        Ebu = BCu ^ ((~BCa) & BCe);
    2004:	54b2                	lw	s1,44(sp)
        Eke = BCe ^ ((~BCi) & BCo);
    2006:	5a26                	lw	s4,104(sp)
        Eko = BCo ^ ((~BCu) & BCa);
    2008:	ffffc793          	not	a5,t6
        Eka = BCa ^ ((~BCe) & BCi);
    200c:	01387833          	and	a6,a6,s3
        Eko = BCo ^ ((~BCu) & BCa);
    2010:	01d7f7b3          	and	a5,a5,t4
        Ebu = BCu ^ ((~BCa) & BCe);
    2014:	00934333          	xor	t1,t1,s1
        Eka = BCa ^ ((~BCe) & BCi);
    2018:	01d84833          	xor	a6,a6,t4
        Eke = BCe ^ ((~BCi) & BCo);
    201c:	44e6                	lw	s1,88(sp)
    201e:	4ef6                	lw	t4,92(sp)
        Eki = BCi ^ ((~BCo) & BCu);
    2020:	12412983          	lw	s3,292(sp)
        Eke = BCe ^ ((~BCi) & BCo);
    2024:	01457533          	and	a0,a0,s4
    2028:	8d25                	xor	a0,a0,s1
    202a:	01d5c4b3          	xor	s1,a1,t4
        Eki = BCi ^ ((~BCo) & BCu);
    202e:	5586                	lw	a1,96(sp)
    2030:	00c9f633          	and	a2,s3,a2
        Ebu = BCu ^ ((~BCa) & BCe);
    2034:	012e7e33          	and	t3,t3,s2
        Eki = BCi ^ ((~BCo) & BCu);
    2038:	8db1                	xor	a1,a1,a2
    203a:	5616                	lw	a2,100(sp)
        Eka = BCa ^ ((~BCe) & BCi);
    203c:	5906                	lw	s2,96(sp)
        Ebu = BCu ^ ((~BCa) & BCe);
    203e:	52a2                	lw	t0,40(sp)
        Eki = BCi ^ ((~BCo) & BCu);
    2040:	01f6f6b3          	and	a3,a3,t6
        Eku = BCu ^ ((~BCa) & BCe);
    2044:	d97a                	sw	t5,176(sp)
        Eko = BCo ^ ((~BCu) & BCa);
    2046:	5f1a                	lw	t5,164(sp)
        Eki = BCi ^ ((~BCo) & BCu);
    2048:	00c6ceb3          	xor	t4,a3,a2
        Eko = BCo ^ ((~BCu) & BCa);
    204c:	56a6                	lw	a3,104(sp)
        Ema = BCa ^ ((~BCe) & BCi);
    204e:	4ab2                	lw	s5,12(sp)
        Emi = BCi ^ ((~BCo) & BCu);
    2050:	5fe6                	lw	t6,120(sp)
        Eka = BCa ^ ((~BCe) & BCi);
    2052:	0128f8b3          	and	a7,a7,s2
        Eko = BCo ^ ((~BCu) & BCa);
    2056:	01e77733          	and	a4,a4,t5
        Ebu = BCu ^ ((~BCa) & BCe);
    205a:	005e4e33          	xor	t3,t3,t0
        Eka = BCa ^ ((~BCe) & BCi);
    205e:	01e8c8b3          	xor	a7,a7,t5
        Eko = BCo ^ ((~BCu) & BCa);
    2062:	8eb9                	xor	a3,a3,a4
        Ebu = BCu ^ ((~BCa) & BCe);
    2064:	d472                	sw	t3,40(sp)
    2066:	d61a                	sw	t1,44(sp)
        Eka = BCa ^ ((~BCe) & BCi);
    2068:	d346                	sw	a7,164(sp)
    206a:	d542                	sw	a6,168(sp)
        Eke = BCe ^ ((~BCi) & BCo);
    206c:	ccaa                	sw	a0,88(sp)
    206e:	cea6                	sw	s1,92(sp)
        Eki = BCi ^ ((~BCo) & BCu);
    2070:	d0ae                	sw	a1,96(sp)
    2072:	d2f6                	sw	t4,100(sp)
        Ema = BCa ^ ((~BCe) & BCi);
    2074:	4bc2                	lw	s7,16(sp)
        Emi = BCi ^ ((~BCo) & BCu);
    2076:	5a56                	lw	s4,116(sp)
        Emo = BCo ^ ((~BCu) & BCa);
    2078:	490a                	lw	s2,128(sp)
        Eme = BCe ^ ((~BCi) & BCo);
    207a:	4cd2                	lw	s9,20(sp)
    207c:	5c46                	lw	s8,112(sp)
        Ema = BCa ^ ((~BCe) & BCi);
    207e:	fffacd93          	not	s11,s5
        Emi = BCi ^ ((~BCo) & BCu);
    2082:	ffffcb13          	not	s6,t6
        Emo = BCo ^ ((~BCu) & BCa);
    2086:	5af6                	lw	s5,124(sp)
        Emu = BCu ^ ((~BCa) & BCe);
    2088:	4fa2                	lw	t6,8(sp)
        Eko = BCo ^ ((~BCu) & BCa);
    208a:	d4b6                	sw	a3,104(sp)
    208c:	5736                	lw	a4,108(sp)
        Emu = BCu ^ ((~BCa) & BCe);
    208e:	46c2                	lw	a3,16(sp)
        Ese = BCe ^ ((~BCi) & BCo);
    2090:	4e3e                	lw	t3,204(sp)
        Eko = BCo ^ ((~BCu) & BCa);
    2092:	00e7c5b3          	xor	a1,a5,a4
    2096:	d6ae                	sw	a1,108(sp)
        Eme = BCe ^ ((~BCi) & BCo);
    2098:	55d6                	lw	a1,116(sp)
        Ema = BCa ^ ((~BCe) & BCi);
    209a:	fffbcd13          	not	s10,s7
        Emi = BCi ^ ((~BCo) & BCu);
    209e:	fffa4b93          	not	s7,s4
        Emo = BCo ^ ((~BCu) & BCa);
    20a2:	fff94a13          	not	s4,s2
        Emu = BCu ^ ((~BCa) & BCe);
    20a6:	ffffc913          	not	s2,t6
    20aa:	00d977b3          	and	a5,s2,a3
        Eme = BCe ^ ((~BCi) & BCo);
    20ae:	fffccc93          	not	s9,s9
        Ema = BCa ^ ((~BCe) & BCi);
    20b2:	4652                	lw	a2,20(sp)
        Emi = BCi ^ ((~BCo) & BCu);
    20b4:	58f6                	lw	a7,124(sp)
    20b6:	450a                	lw	a0,128(sp)
        Esa = BCa ^ ((~BCe) & BCi);
    20b8:	481e                	lw	a6,196(sp)
        Ese = BCe ^ ((~BCi) & BCo);
    20ba:	432e                	lw	t1,200(sp)
        Esi = BCi ^ ((~BCo) & BCu);
    20bc:	4e9a                	lw	t4,132(sp)
    20be:	4f2a                	lw	t5,136(sp)
        Eso = BCo ^ ((~BCu) & BCa);
    20c0:	46ba                	lw	a3,140(sp)
        Eme = BCe ^ ((~BCi) & BCo);
    20c2:	00bcfcb3          	and	s9,s9,a1
        Emo = BCo ^ ((~BCu) & BCa);
    20c6:	01fa7a33          	and	s4,s4,t6
        Eme = BCe ^ ((~BCi) & BCo);
    20ca:	55e6                	lw	a1,120(sp)
        Emu = BCu ^ ((~BCa) & BCe);
    20cc:	c9be                	sw	a5,208(sp)
        Ese = BCe ^ ((~BCi) & BCo);
    20ce:	fffe4f93          	not	t6,t3
        Eso = BCo ^ ((~BCu) & BCa);
    20d2:	47ca                	lw	a5,144(sp)
        Esu = BCu ^ ((~BCa) & BCe);
    20d4:	5e7a                	lw	t3,188(sp)
        Eme = BCe ^ ((~BCi) & BCo);
    20d6:	fffc4c13          	not	s8,s8
        Emo = BCo ^ ((~BCu) & BCa);
    20da:	fffaca93          	not	s5,s5
        Emu = BCu ^ ((~BCa) & BCe);
    20de:	4732                	lw	a4,12(sp)
        Eme = BCe ^ ((~BCi) & BCo);
    20e0:	00bc7c33          	and	s8,s8,a1
        Emi = BCi ^ ((~BCo) & BCu);
    20e4:	011bfbb3          	and	s7,s7,a7
    20e8:	00ab7b33          	and	s6,s6,a0
        Emo = BCo ^ ((~BCu) & BCa);
    20ec:	007afab3          	and	s5,s5,t2
        Ese = BCe ^ ((~BCi) & BCo);
    20f0:	fff34293          	not	t0,t1
        Emu = BCu ^ ((~BCa) & BCe);
    20f4:	fff3c993          	not	s3,t2
        Esu = BCu ^ ((~BCa) & BCe);
    20f8:	536a                	lw	t1,184(sp)
        Ema = BCa ^ ((~BCe) & BCi);
    20fa:	00cdfdb3          	and	s11,s11,a2
        Emo = BCo ^ ((~BCu) & BCa);
    20fe:	db1e                	sw	t2,180(sp)
        Ema = BCa ^ ((~BCe) & BCi);
    2100:	5646                	lw	a2,112(sp)
        Esa = BCa ^ ((~BCe) & BCi);
    2102:	fff84393          	not	t2,a6
        Esi = BCi ^ ((~BCo) & BCu);
    2106:	fffec893          	not	a7,t4
    210a:	ffff4813          	not	a6,t5
        BCa = Eba ^ Ega ^ Eka ^ Ema ^ Esa;
    210e:	4efa                	lw	t4,156(sp)
    2110:	5f42                	lw	t5,48(sp)
        Eso = BCo ^ ((~BCu) & BCa);
    2112:	fff6c513          	not	a0,a3
    2116:	fff7c593          	not	a1,a5
        Esu = BCu ^ ((~BCa) & BCe);
    211a:	fffe4693          	not	a3,t3
        BCa = Eba ^ Ega ^ Eka ^ Ema ^ Esa;
    211e:	578a                	lw	a5,160(sp)
    2120:	5e52                	lw	t3,52(sp)
        Ema = BCa ^ ((~BCe) & BCi);
    2122:	00cd7d33          	and	s10,s10,a2
        Emu = BCu ^ ((~BCa) & BCe);
    2126:	00e9f9b3          	and	s3,s3,a4
        Esu = BCu ^ ((~BCa) & BCe);
    212a:	fff34613          	not	a2,t1
        BCe = Ebe ^ Ege ^ Eke ^ Eme ^ Ese;
    212e:	5772                	lw	a4,60(sp)
    2130:	435a                	lw	t1,148(sp)
        BCa = Eba ^ Ega ^ Eka ^ Ema ^ Esa;
    2132:	01eecf33          	xor	t5,t4,t5
    2136:	01c7ceb3          	xor	t4,a5,t3
        BCe = Ebe ^ Ege ^ Eke ^ Eme ^ Ese;
    213a:	5e62                	lw	t3,56(sp)
    213c:	47ea                	lw	a5,152(sp)
        Esa = BCa ^ ((~BCe) & BCi);
    213e:	448e                	lw	s1,192(sp)
        Ese = BCe ^ ((~BCi) & BCo);
    2140:	cb96                	sw	t0,212(sp)
        BCe = Ebe ^ Ege ^ Eke ^ Eme ^ Ese;
    2142:	01c34e33          	xor	t3,t1,t3
    2146:	00e7c333          	xor	t1,a5,a4
        BCi = Ebi ^ Egi ^ Eki ^ Emi ^ Esi;
    214a:	4762                	lw	a4,24(sp)
    214c:	4786                	lw	a5,64(sp)
    214e:	4916                	lw	s2,68(sp)
        BCo = Ebo ^ Ego ^ Eko ^ Emo ^ Eso;
    2150:	42a6                	lw	t0,72(sp)
        BCi = Ebi ^ Egi ^ Eki ^ Emi ^ Esi;
    2152:	8f3d                	xor	a4,a4,a5
    2154:	47f2                	lw	a5,28(sp)
        Esa = BCa ^ ((~BCe) & BCi);
    2156:	fff4c493          	not	s1,s1
        BCi = Ebi ^ Egi ^ Eki ^ Emi ^ Esi;
    215a:	0127c7b3          	xor	a5,a5,s2
        BCo = Ebo ^ Ego ^ Eko ^ Emo ^ Eso;
    215e:	5902                	lw	s2,32(sp)
    2160:	005942b3          	xor	t0,s2,t0
    2164:	cd96                	sw	t0,216(sp)
    2166:	5912                	lw	s2,36(sp)
    2168:	42b6                	lw	t0,76(sp)
    216a:	005942b3          	xor	t0,s2,t0
    216e:	cf96                	sw	t0,220(sp)
        BCu = Ebu ^ Egu ^ Eku ^ Emu ^ Esu;
    2170:	593a                	lw	s2,172(sp)
    2172:	42c6                	lw	t0,80(sp)
    2174:	0122c2b3          	xor	t0,t0,s2
    2178:	d196                	sw	t0,224(sp)
    217a:	594a                	lw	s2,176(sp)
    217c:	42d6                	lw	t0,84(sp)
    217e:	0122c2b3          	xor	t0,t0,s2
        Ema = BCa ^ ((~BCe) & BCi);
    2182:	595a                	lw	s2,180(sp)
        BCu = Ebu ^ Egu ^ Eku ^ Emu ^ Esu;
    2184:	d396                	sw	t0,228(sp)
        Ema = BCa ^ ((~BCe) & BCi);
    2186:	012dcdb3          	xor	s11,s11,s2
    218a:	db6e                	sw	s11,180(sp)
    218c:	4da2                	lw	s11,8(sp)
        Eme = BCe ^ ((~BCi) & BCo);
    218e:	4932                	lw	s2,12(sp)
        Ema = BCa ^ ((~BCe) & BCi);
    2190:	01bd4d33          	xor	s10,s10,s11
    2194:	c46a                	sw	s10,8(sp)
        Eme = BCe ^ ((~BCi) & BCo);
    2196:	012ccd33          	xor	s10,s9,s2
        Emi = BCi ^ ((~BCo) & BCu);
    219a:	4cd2                	lw	s9,20(sp)
        Eme = BCe ^ ((~BCi) & BCo);
    219c:	4942                	lw	s2,16(sp)
    219e:	c66a                	sw	s10,12(sp)
        Emi = BCi ^ ((~BCo) & BCu);
    21a0:	019bccb3          	xor	s9,s7,s9
        Emo = BCo ^ ((~BCu) & BCa);
    21a4:	5bd6                	lw	s7,116(sp)
        Eme = BCe ^ ((~BCi) & BCo);
    21a6:	012c4db3          	xor	s11,s8,s2
        Emo = BCo ^ ((~BCu) & BCa);
    21aa:	5966                	lw	s2,120(sp)
        Emi = BCi ^ ((~BCo) & BCu);
    21ac:	5c46                	lw	s8,112(sp)
        Emo = BCo ^ ((~BCu) & BCa);
    21ae:	017acbb3          	xor	s7,s5,s7
        Emu = BCu ^ ((~BCa) & BCe);
    21b2:	5af6                	lw	s5,124(sp)
        Emi = BCi ^ ((~BCo) & BCu);
    21b4:	018b4c33          	xor	s8,s6,s8
        Emo = BCo ^ ((~BCu) & BCa);
    21b8:	012a4a33          	xor	s4,s4,s2
        Emu = BCu ^ ((~BCa) & BCe);
    21bc:	0159c9b3          	xor	s3,s3,s5
        Eme = BCe ^ ((~BCi) & BCo);
    21c0:	c86e                	sw	s11,16(sp)
        Emi = BCi ^ ((~BCo) & BCu);
    21c2:	ca66                	sw	s9,20(sp)
    21c4:	d8e2                	sw	s8,112(sp)
        Emo = BCo ^ ((~BCu) & BCa);
    21c6:	dade                	sw	s7,116(sp)
    21c8:	dcd2                	sw	s4,120(sp)
        Emu = BCu ^ ((~BCa) & BCe);
    21ca:	dece                	sw	s3,124(sp)
    21cc:	490a                	lw	s2,128(sp)
    21ce:	49ce                	lw	s3,208(sp)
        Ese = BCe ^ ((~BCi) & BCo);
    21d0:	4a9a                	lw	s5,132(sp)
    21d2:	42de                	lw	t0,212(sp)
        Emu = BCu ^ ((~BCa) & BCe);
    21d4:	0129cbb3          	xor	s7,s3,s2
        Esi = BCi ^ ((~BCo) & BCu);
    21d8:	49ca                	lw	s3,144(sp)
    21da:	4a3a                	lw	s4,140(sp)
        Ese = BCe ^ ((~BCi) & BCo);
    21dc:	0152f2b3          	and	t0,t0,s5
        Esi = BCi ^ ((~BCo) & BCu);
    21e0:	01387833          	and	a6,a6,s3
        BCe = Ebe ^ Ege ^ Eke ^ Eme ^ Ese;
    21e4:	4ae6                	lw	s5,88(sp)
        BCa = Eba ^ Ega ^ Eka ^ Ema ^ Esa;
    21e6:	599a                	lw	s3,164(sp)
        Esi = BCi ^ ((~BCo) & BCu);
    21e8:	0148f8b3          	and	a7,a7,s4
        BCe = Ebe ^ Ege ^ Eke ^ Eme ^ Ese;
    21ec:	015e4e33          	xor	t3,t3,s5
        BCa = Eba ^ Ega ^ Eka ^ Ema ^ Esa;
    21f0:	5a2a                	lw	s4,168(sp)
        BCi = Ebi ^ Egi ^ Eki ^ Emi ^ Esi;
    21f2:	5a96                	lw	s5,100(sp)
        BCa = Eba ^ Ega ^ Eka ^ Ema ^ Esa;
    21f4:	013f4f33          	xor	t5,t5,s3
        BCe = Ebe ^ Ege ^ Eke ^ Eme ^ Ese;
    21f8:	49f6                	lw	s3,92(sp)
        Ese = BCe ^ ((~BCi) & BCo);
    21fa:	492a                	lw	s2,136(sp)
        BCa = Eba ^ Ega ^ Eka ^ Ema ^ Esa;
    21fc:	014eceb3          	xor	t4,t4,s4
        BCe = Ebe ^ Ege ^ Eke ^ Eme ^ Ese;
    2200:	01334333          	xor	t1,t1,s3
        BCi = Ebi ^ Egi ^ Eki ^ Emi ^ Esi;
    2204:	5a06                	lw	s4,96(sp)
        BCo = Ebo ^ Ego ^ Eko ^ Emo ^ Eso;
    2206:	59a6                	lw	s3,104(sp)
        BCi = Ebi ^ Egi ^ Eki ^ Emi ^ Esi;
    2208:	0157c7b3          	xor	a5,a5,s5
        BCo = Ebo ^ Ego ^ Eko ^ Emo ^ Eso;
    220c:	4aee                	lw	s5,216(sp)
        Esa = BCa ^ ((~BCe) & BCi);
    220e:	4b3e                	lw	s6,204(sp)
    2210:	4dae                	lw	s11,200(sp)
        Eso = BCo ^ ((~BCu) & BCa);
    2212:	5c7a                	lw	s8,188(sp)
        Ese = BCe ^ ((~BCi) & BCo);
    2214:	012fffb3          	and	t6,t6,s2
        BCi = Ebi ^ Egi ^ Eki ^ Emi ^ Esi;
    2218:	01474733          	xor	a4,a4,s4
        BCo = Ebo ^ Ego ^ Eko ^ Emo ^ Eso;
    221c:	013ac933          	xor	s2,s5,s3
    2220:	5a36                	lw	s4,108(sp)
    2222:	4afe                	lw	s5,220(sp)
        Esu = BCu ^ ((~BCa) & BCe);
    2224:	4c8e                	lw	s9,192(sp)
    2226:	4d1e                	lw	s10,196(sp)
        Emu = BCu ^ ((~BCa) & BCe);
    2228:	c15e                	sw	s7,128(sp)
        Eso = BCo ^ ((~BCu) & BCa);
    222a:	5bea                	lw	s7,184(sp)
        Esa = BCa ^ ((~BCe) & BCi);
    222c:	0163f3b3          	and	t2,t2,s6
    2230:	01b4f4b3          	and	s1,s1,s11
        Eso = BCo ^ ((~BCu) & BCa);
    2234:	0185f5b3          	and	a1,a1,s8
        BCo = Ebo ^ Ego ^ Eko ^ Emo ^ Eso;
    2238:	014ac9b3          	xor	s3,s5,s4
        Esa = BCa ^ ((~BCe) & BCi);
    223c:	0183cc33          	xor	s8,t2,s8
        BCu = Ebu ^ Egu ^ Eku ^ Emu ^ Esu;
    2240:	5a8e                	lw	s5,224(sp)
    2242:	5a22                	lw	s4,40(sp)
        Esa = BCa ^ ((~BCe) & BCi);
    2244:	83e2                	mv	t2,s8
        Eso = BCo ^ ((~BCu) & BCa);
    2246:	01757533          	and	a0,a0,s7
        Ese = BCe ^ ((~BCi) & BCo);
    224a:	0192cc33          	xor	s8,t0,s9
        Esu = BCu ^ ((~BCa) & BCe);
    224e:	01a6f6b3          	and	a3,a3,s10
        Esa = BCa ^ ((~BCe) & BCi);
    2252:	0174cbb3          	xor	s7,s1,s7
        Ese = BCe ^ ((~BCi) & BCo);
    2256:	01afcfb3          	xor	t6,t6,s10
        Esi = BCi ^ ((~BCo) & BCu);
    225a:	01b8c8b3          	xor	a7,a7,s11
        Esu = BCu ^ ((~BCa) & BCe);
    225e:	c5b6                	sw	a3,200(sp)
        Esa = BCa ^ ((~BCe) & BCi);
    2260:	dd5e                	sw	s7,184(sp)
        Ese = BCe ^ ((~BCi) & BCo);
    2262:	df62                	sw	s8,188(sp)
    2264:	c1fe                	sw	t6,192(sp)
        BCu = Ebu ^ Egu ^ Eku ^ Emu ^ Esu;
    2266:	569e                	lw	a3,228(sp)
    2268:	014aca33          	xor	s4,s5,s4
    226c:	5ab2                	lw	s5,44(sp)
        Esi = BCi ^ ((~BCo) & BCu);
    226e:	c3c6                	sw	a7,196(sp)
        Eso = BCo ^ ((~BCu) & BCa);
    2270:	449a                	lw	s1,132(sp)
        Esi = BCi ^ ((~BCo) & BCu);
    2272:	01684833          	xor	a6,a6,s6
    2276:	8b42                	mv	s6,a6
        Eso = BCo ^ ((~BCu) & BCa);
    2278:	00954833          	xor	a6,a0,s1
    227c:	452a                	lw	a0,136(sp)
        Esu = BCu ^ ((~BCa) & BCe);
    227e:	01967633          	and	a2,a2,s9
        Eso = BCo ^ ((~BCu) & BCa);
    2282:	84c2                	mv	s1,a6
    2284:	8d2d                	xor	a0,a0,a1
        Esu = BCu ^ ((~BCa) & BCe);
    2286:	45ba                	lw	a1,140(sp)
        Eso = BCo ^ ((~BCu) & BCa);
    2288:	8d2a                	mv	s10,a0
        BCe = Ebe ^ Ege ^ Eke ^ Eme ^ Ese;
    228a:	4842                	lw	a6,16(sp)
    228c:	4532                	lw	a0,12(sp)
        BCu = Ebu ^ Egu ^ Eku ^ Emu ^ Esu;
    228e:	0156cab3          	xor	s5,a3,s5
        Esu = BCu ^ ((~BCa) & BCe);
    2292:	00b646b3          	xor	a3,a2,a1
    2296:	464a                	lw	a2,144(sp)
    2298:	45ae                	lw	a1,200(sp)
        BCo = Ebo ^ Ego ^ Eko ^ Emo ^ Eso;
    229a:	5bd6                	lw	s7,116(sp)
    229c:	58e6                	lw	a7,120(sp)
        Esu = BCu ^ ((~BCa) & BCe);
    229e:	00c5cdb3          	xor	s11,a1,a2
        BCe = Ebe ^ Ege ^ Eke ^ Eme ^ Ese;
    22a2:	00ae4e33          	xor	t3,t3,a0
        BCa = Eba ^ Ega ^ Eka ^ Ema ^ Esa;
    22a6:	45a2                	lw	a1,8(sp)
        BCe = Ebe ^ Ege ^ Eke ^ Eme ^ Ese;
    22a8:	557a                	lw	a0,188(sp)
    22aa:	01034333          	xor	t1,t1,a6
    22ae:	480e                	lw	a6,192(sp)
        Esu = BCu ^ ((~BCa) & BCe);
    22b0:	c336                	sw	a3,132(sp)
        BCu = Ebu ^ Egu ^ Eku ^ Emu ^ Esu;
    22b2:	5ff6                	lw	t6,124(sp)
    22b4:	460a                	lw	a2,128(sp)
        BCo = Ebo ^ Ego ^ Eko ^ Emo ^ Eso;
    22b6:	01794933          	xor	s2,s2,s7
    22ba:	00994933          	xor	s2,s2,s1
        BCa = Eba ^ Ega ^ Eka ^ Ema ^ Esa;
    22be:	56da                	lw	a3,180(sp)
        BCi = Ebi ^ Egi ^ Eki ^ Emi ^ Esi;
    22c0:	4cd2                	lw	s9,20(sp)
    22c2:	5c46                	lw	s8,112(sp)
        BCo = Ebo ^ Ego ^ Eko ^ Emo ^ Eso;
    22c4:	c926                	sw	s1,144(sp)
        BCu = Ebu ^ Egu ^ Eku ^ Emu ^ Esu;
    22c6:	449a                	lw	s1,132(sp)
        BCe = Ebe ^ Ege ^ Eke ^ Eme ^ Ese;
    22c8:	00ae4e33          	xor	t3,t3,a0
    22cc:	01034333          	xor	t1,t1,a6
        BCa = Eba ^ Ega ^ Eka ^ Ema ^ Esa;
    22d0:	00beceb3          	xor	t4,t4,a1
        BCo = Ebo ^ Ego ^ Eko ^ Emo ^ Eso;
    22d4:	0119c9b3          	xor	s3,s3,a7
        BCi = Ebi ^ Egi ^ Eki ^ Emi ^ Esi;
    22d8:	489e                	lw	a7,196(sp)
        BCa = Eba ^ Ega ^ Eka ^ Ema ^ Esa;
    22da:	007eceb3          	xor	t4,t4,t2
        BCo = Ebo ^ Ego ^ Eko ^ Emo ^ Eso;
    22de:	01a9c9b3          	xor	s3,s3,s10
        BCu = Ebu ^ Egu ^ Eku ^ Emu ^ Esu;
    22e2:	01fa42b3          	xor	t0,s4,t6
        BCa = Eba ^ Ega ^ Eka ^ Ema ^ Esa;
    22e6:	c51e                	sw	t2,136(sp)
        BCu = Ebu ^ Egu ^ Eku ^ Emu ^ Esu;
    22e8:	00cacfb3          	xor	t6,s5,a2
        BCo = Ebo ^ Ego ^ Eko ^ Emo ^ Eso;
    22ec:	c5ea                	sw	s10,200(sp)
        Da = BCu ^ ROL(BCe, 1);
    22ee:	01fe5393          	srli	t2,t3,0x1f
    22f2:	00131d13          	slli	s10,t1,0x1
        BCu = Ebu ^ Egu ^ Eku ^ Emu ^ Esu;
    22f6:	0092c2b3          	xor	t0,t0,s1
    22fa:	01bfcfb3          	xor	t6,t6,s11
        BCi = Ebi ^ Egi ^ Eki ^ Emi ^ Esi;
    22fe:	01974733          	xor	a4,a4,s9
    2302:	0187c7b3          	xor	a5,a5,s8
        Da = BCu ^ ROL(BCe, 1);
    2306:	01a3e3b3          	or	t2,t2,s10
        BCa = Eba ^ Ega ^ Eka ^ Ema ^ Esa;
    230a:	00df4f33          	xor	t5,t5,a3
        Da = BCu ^ ROL(BCe, 1);
    230e:	001e1d13          	slli	s10,t3,0x1
        BCa = Eba ^ Ega ^ Eka ^ Ema ^ Esa;
    2312:	56ea                	lw	a3,184(sp)
        Da = BCu ^ ROL(BCe, 1);
    2314:	01f35493          	srli	s1,t1,0x1f
        BCi = Ebi ^ Egi ^ Eki ^ Emi ^ Esi;
    2318:	01174ab3          	xor	s5,a4,a7
    231c:	0167ca33          	xor	s4,a5,s6
        Da = BCu ^ ROL(BCe, 1);
    2320:	01a4e4b3          	or	s1,s1,s10
        Do = BCi ^ ROL(BCu, 1);
    2324:	001f9593          	slli	a1,t6,0x1
    2328:	01f2dd13          	srli	s10,t0,0x1f
        De = BCa ^ ROL(BCi, 1);
    232c:	001a9c13          	slli	s8,s5,0x1
    2330:	01fa5713          	srli	a4,s4,0x1f
        Do = BCi ^ ROL(BCu, 1);
    2334:	00bd65b3          	or	a1,s10,a1
    2338:	01ffdd13          	srli	s10,t6,0x1f
        Da = BCu ^ ROL(BCe, 1);
    233c:	01f3cfb3          	xor	t6,t2,t6
        Ege ^= De;
    2340:	53e2                	lw	t2,56(sp)
        BCa = Eba ^ Ega ^ Eka ^ Ema ^ Esa;
    2342:	00df4f33          	xor	t5,t5,a3
        De = BCa ^ ROL(BCi, 1);
    2346:	01876733          	or	a4,a4,s8
    234a:	01e74733          	xor	a4,a4,t5
    234e:	001a1c93          	slli	s9,s4,0x1
    2352:	01fad793          	srli	a5,s5,0x1f
    2356:	0197e7b3          	or	a5,a5,s9
        Ege ^= De;
    235a:	00e3ccb3          	xor	s9,t2,a4
    235e:	53f2                	lw	t2,60(sp)
        De = BCa ^ ROL(BCi, 1);
    2360:	01d7c7b3          	xor	a5,a5,t4
        BCi = Ebi ^ Egi ^ Eki ^ Emi ^ Esi;
    2364:	c75a                	sw	s6,140(sp)
        Ege ^= De;
    2366:	00f3cc33          	xor	s8,t2,a5
        Di = BCe ^ ROL(BCo, 1);
    236a:	01f9db13          	srli	s6,s3,0x1f
        Eki ^= Di;
    236e:	5386                	lw	t2,96(sp)
        Di = BCe ^ ROL(BCo, 1);
    2370:	00191893          	slli	a7,s2,0x1
    2374:	011b68b3          	or	a7,s6,a7
    2378:	01c8c8b3          	xor	a7,a7,t3
    237c:	00199b93          	slli	s7,s3,0x1
    2380:	01f95813          	srli	a6,s2,0x1f
    2384:	01786833          	or	a6,a6,s7
        Eki ^= Di;
    2388:	0113cbb3          	xor	s7,t2,a7
    238c:	5396                	lw	t2,100(sp)
        Di = BCe ^ ROL(BCo, 1);
    238e:	00684833          	xor	a6,a6,t1
        Do = BCi ^ ROL(BCu, 1);
    2392:	00129513          	slli	a0,t0,0x1
        Eki ^= Di;
    2396:	0103cb33          	xor	s6,t2,a6
        Du = BCo ^ ROL(BCa, 1);
    239a:	001e9693          	slli	a3,t4,0x1
        Emo ^= Do;
    239e:	53d6                	lw	t2,116(sp)
        Do = BCi ^ ROL(BCu, 1);
    23a0:	00ad6533          	or	a0,s10,a0
        Du = BCo ^ ROL(BCa, 1);
    23a4:	01ff5d13          	srli	s10,t5,0x1f
    23a8:	001f1613          	slli	a2,t5,0x1
    23ac:	00dd66b3          	or	a3,s10,a3
    23b0:	01fedd13          	srli	s10,t4,0x1f
        Do = BCi ^ ROL(BCu, 1);
    23b4:	01554533          	xor	a0,a0,s5
        Du = BCo ^ ROL(BCa, 1);
    23b8:	00cd6633          	or	a2,s10,a2
        Da = BCu ^ ROL(BCe, 1);
    23bc:	0054c2b3          	xor	t0,s1,t0
        Do = BCi ^ ROL(BCu, 1);
    23c0:	0145c5b3          	xor	a1,a1,s4
        Du = BCo ^ ROL(BCa, 1);
    23c4:	01264633          	xor	a2,a2,s2
        Emo ^= Do;
    23c8:	00a3ca33          	xor	s4,t2,a0
        Esu ^= Du;
    23cc:	449a                	lw	s1,132(sp)
        Emo ^= Do;
    23ce:	53e6                	lw	t2,120(sp)
        Ebo ^= Do;
    23d0:	5902                	lw	s2,32(sp)
        Esi ^= Di;
    23d2:	433a                	lw	t1,140(sp)
        Eka ^= Da;
    23d4:	5e1a                	lw	t3,164(sp)
        Du = BCo ^ ROL(BCa, 1);
    23d6:	0136c6b3          	xor	a3,a3,s3
        Esi ^= Di;
    23da:	01034333          	xor	t1,t1,a6
    23de:	d09a                	sw	t1,96(sp)
        Ebe ^= De;
    23e0:	435a                	lw	t1,148(sp)
        Esu ^= Du;
    23e2:	00c4cd33          	xor	s10,s1,a2
        Eka ^= Da;
    23e6:	005e4eb3          	xor	t4,t3,t0
        Ebe ^= De;
    23ea:	00e34333          	xor	t1,t1,a4
    23ee:	d29a                	sw	t1,100(sp)
    23f0:	436a                	lw	t1,152(sp)
        Eka ^= Da;
    23f2:	5e2a                	lw	t3,168(sp)
        Ebo ^= Do;
    23f4:	5492                	lw	s1,36(sp)
        Ebe ^= De;
    23f6:	00f34333          	xor	t1,t1,a5
    23fa:	da9a                	sw	t1,116(sp)
        Egi ^= Di;
    23fc:	4306                	lw	t1,64(sp)
        Ebo ^= Do;
    23fe:	00b4c9b3          	xor	s3,s1,a1
        Eka ^= Da;
    2402:	01fe4f33          	xor	t5,t3,t6
        Egi ^= Di;
    2406:	01134333          	xor	t1,t1,a7
    240a:	dc9a                	sw	t1,120(sp)
    240c:	4316                	lw	t1,68(sp)
        Egu ^= Du;
    240e:	44c6                	lw	s1,80(sp)
        Eme ^= De;
    2410:	4e32                	lw	t3,12(sp)
        Egi ^= Di;
    2412:	01034333          	xor	t1,t1,a6
    2416:	c31a                	sw	t1,132(sp)
        Eko ^= Do;
    2418:	5326                	lw	t1,104(sp)
        Emo ^= Do;
    241a:	00b3cab3          	xor	s5,t2,a1
        Egu ^= Du;
    241e:	00c4c3b3          	xor	t2,s1,a2
        Eko ^= Do;
    2422:	00a34333          	xor	t1,t1,a0
    2426:	c71a                	sw	t1,140(sp)
    2428:	5336                	lw	t1,108(sp)
        Egu ^= Du;
    242a:	44d6                	lw	s1,84(sp)
        Eka ^= Da;
    242c:	cafa                	sw	t5,84(sp)
        Eko ^= Do;
    242e:	00b34333          	xor	t1,t1,a1
    2432:	cb1a                	sw	t1,148(sp)
        Emu ^= Du;
    2434:	5376                	lw	t1,124(sp)
        Eme ^= De;
    2436:	00ee4f33          	xor	t5,t3,a4
    243a:	4e42                	lw	t3,16(sp)
        Emu ^= Du;
    243c:	00c34333          	xor	t1,t1,a2
    2440:	cd1a                	sw	t1,152(sp)
    2442:	430a                	lw	t1,128(sp)
        Eka ^= Da;
    2444:	c8f6                	sw	t4,80(sp)
        Eme ^= De;
    2446:	00fe4eb3          	xor	t4,t3,a5
        Emu ^= Du;
    244a:	00d34333          	xor	t1,t1,a3
    244e:	d31a                	sw	t1,164(sp)
        Esa ^= Da;
    2450:	536a                	lw	t1,184(sp)
        Esi ^= Di;
    2452:	4e1e                	lw	t3,196(sp)
        Ebo ^= Do;
    2454:	00a94933          	xor	s2,s2,a0
        Esa ^= Da;
    2458:	00534333          	xor	t1,t1,t0
    245c:	d51a                	sw	t1,168(sp)
    245e:	432a                	lw	t1,136(sp)
        Esi ^= Di;
    2460:	011e4e33          	xor	t3,t3,a7
        Egu ^= Du;
    2464:	8cb5                	xor	s1,s1,a3
        Esa ^= Da;
    2466:	01f34333          	xor	t1,t1,t6
    246a:	dd1a                	sw	t1,184(sp)
        Ebu ^= Du;
    246c:	5322                	lw	t1,40(sp)
        Esu ^= Du;
    246e:	00ddcdb3          	xor	s11,s11,a3
        Ebu ^= Du;
    2472:	00c34333          	xor	t1,t1,a2
    2476:	c39a                	sw	t1,196(sp)
    2478:	5332                	lw	t1,44(sp)
    247a:	00d34333          	xor	t1,t1,a3
    247e:	cb9a                	sw	t1,212(sp)
        Ega ^= Da;
    2480:	5342                	lw	t1,48(sp)
    2482:	00534333          	xor	t1,t1,t0
    2486:	cd9a                	sw	t1,216(sp)
    2488:	5352                	lw	t1,52(sp)
    248a:	01f34333          	xor	t1,t1,t6
    248e:	cf9a                	sw	t1,220(sp)
        Eke ^= De;
    2490:	4366                	lw	t1,88(sp)
    2492:	00e34333          	xor	t1,t1,a4
    2496:	d19a                	sw	t1,224(sp)
    2498:	4376                	lw	t1,92(sp)
    249a:	00f34333          	xor	t1,t1,a5
    249e:	d39a                	sw	t1,228(sp)
        Emi ^= Di;
    24a0:	4352                	lw	t1,20(sp)
    24a2:	01134333          	xor	t1,t1,a7
    24a6:	d99a                	sw	t1,240(sp)
    24a8:	5346                	lw	t1,112(sp)
    24aa:	01034333          	xor	t1,t1,a6
    24ae:	db9a                	sw	t1,244(sp)
        Eso ^= Do;
    24b0:	434a                	lw	t1,144(sp)
    24b2:	00a34333          	xor	t1,t1,a0
    24b6:	10612223          	sw	t1,260(sp)
    24ba:	432e                	lw	t1,200(sp)
    24bc:	00b34333          	xor	t1,t1,a1
    24c0:	10612023          	sw	t1,256(sp)
        Ebi ^= Di;
    24c4:	4362                	lw	t1,24(sp)
    24c6:	011348b3          	xor	a7,t1,a7
    24ca:	4372                	lw	t1,28(sp)
    24cc:	01034833          	xor	a6,t1,a6
        Ego ^= Do;
    24d0:	4326                	lw	t1,72(sp)
    24d2:	00a34533          	xor	a0,t1,a0
    24d6:	4336                	lw	t1,76(sp)
    24d8:	00b345b3          	xor	a1,t1,a1
        Eku ^= Du;
    24dc:	533a                	lw	t1,172(sp)
    24de:	00c34633          	xor	a2,t1,a2
    24e2:	534a                	lw	t1,176(sp)
    24e4:	00d346b3          	xor	a3,t1,a3
        Ema ^= Da;
    24e8:	535a                	lw	t1,180(sp)
    24ea:	00534333          	xor	t1,t1,t0
    24ee:	12612a23          	sw	t1,308(sp)
    24f2:	4322                	lw	t1,8(sp)
    24f4:	01f34333          	xor	t1,t1,t6
    24f8:	12612823          	sw	t1,304(sp)
        Ese ^= De;
    24fc:	537a                	lw	t1,188(sp)
    24fe:	00e34733          	xor	a4,t1,a4
    2502:	12e12c23          	sw	a4,312(sp)
    2506:	430e                	lw	t1,192(sp)
    2508:	00f34733          	xor	a4,t1,a5
        Aba ^= KeccakF_RoundConstants[round + 1];
    250c:	4792                	lw	a5,4(sp)
    250e:	0087a303          	lw	t1,8(a5)
    2512:	47dc                	lw	a5,12(a5)
    2514:	c79a                	sw	t1,204(sp)
    2516:	c9be                	sw	a5,208(sp)
        BCe = ROL(Ege, 44);
    2518:	00cc1793          	slli	a5,s8,0xc
    251c:	c43e                	sw	a5,8(sp)
    251e:	014cd793          	srli	a5,s9,0x14
    2522:	c63e                	sw	a5,12(sp)
        BCi = ROL(Eki, 43);
    2524:	00bb1793          	slli	a5,s6,0xb
    2528:	c83e                	sw	a5,16(sp)
    252a:	015bd793          	srli	a5,s7,0x15
    252e:	ca3e                	sw	a5,20(sp)
        BCo = ROL(Emo, 21);
    2530:	00ba5793          	srli	a5,s4,0xb
    2534:	cc3e                	sw	a5,24(sp)
    2536:	015a9793          	slli	a5,s5,0x15
    253a:	ce3e                	sw	a5,28(sp)
        BCu = ROL(Esu, 14);
    253c:	012d5793          	srli	a5,s10,0x12
    2540:	d03e                	sw	a5,32(sp)
    2542:	00ed9793          	slli	a5,s11,0xe
    2546:	d23e                	sw	a5,36(sp)
        BCa = ROL(Ebo, 28);
    2548:	00495793          	srli	a5,s2,0x4
    254c:	d43e                	sw	a5,40(sp)
    254e:	01c99793          	slli	a5,s3,0x1c
    2552:	d63e                	sw	a5,44(sp)
        BCe = ROL(Egu, 20);
    2554:	01449793          	slli	a5,s1,0x14
    2558:	00c3d313          	srli	t1,t2,0xc
    255c:	da3e                	sw	a5,52(sp)
    255e:	00c4d793          	srli	a5,s1,0xc
    2562:	d81a                	sw	t1,48(sp)
    2564:	dc3e                	sw	a5,56(sp)
        BCi = ROL(Eka, 3);
    2566:	4346                	lw	t1,80(sp)
        BCe = ROL(Egu, 20);
    2568:	01439793          	slli	a5,t2,0x14
    256c:	de3e                	sw	a5,60(sp)
        BCi = ROL(Eka, 3);
    256e:	47d6                	lw	a5,84(sp)
    2570:	01d35393          	srli	t2,t1,0x1d
    2574:	c09e                	sw	t2,64(sp)
    2576:	00379393          	slli	t2,a5,0x3
        BCu = ROL(Esi, 61);
    257a:	5486                	lw	s1,96(sp)
        BCi = ROL(Eka, 3);
    257c:	c29e                	sw	t2,68(sp)
    257e:	01d7d393          	srli	t2,a5,0x1d
        BCu = ROL(Esi, 61);
    2582:	003e5793          	srli	a5,t3,0x3
        BCi = ROL(Eka, 3);
    2586:	c49e                	sw	t2,72(sp)
        BCu = ROL(Esi, 61);
    2588:	cebe                	sw	a5,92(sp)
        BCi = ROL(Eka, 3);
    258a:	00331393          	slli	t2,t1,0x3
        BCa = ROL(Ebe, 1);
    258e:	5796                	lw	a5,100(sp)
        BCi = ROL(Eka, 3);
    2590:	c69e                	sw	t2,76(sp)
        BCo = ROL(Eme, 45);
    2592:	00de9393          	slli	t2,t4,0xd
    2596:	013f5313          	srli	t1,t5,0x13
    259a:	c89e                	sw	t2,80(sp)
        BCu = ROL(Esi, 61);
    259c:	01d49393          	slli	t2,s1,0x1d
        BCo = ROL(Eme, 45);
    25a0:	ca9a                	sw	t1,84(sp)
        BCu = ROL(Esi, 61);
    25a2:	cc9e                	sw	t2,88(sp)
        BCa = ROL(Ebe, 1);
    25a4:	01f7d393          	srli	t2,a5,0x1f
    25a8:	d09e                	sw	t2,96(sp)
        BCu = ROL(Esi, 61);
    25aa:	0034d313          	srli	t1,s1,0x3
        BCa = ROL(Ebe, 1);
    25ae:	54d6                	lw	s1,116(sp)
    25b0:	0786                	slli	a5,a5,0x1
    25b2:	d6be                	sw	a5,108(sp)
    25b4:	00149393          	slli	t2,s1,0x1
    25b8:	d29e                	sw	t2,100(sp)
    25ba:	01f4d393          	srli	t2,s1,0x1f
    25be:	d49e                	sw	t2,104(sp)
        BCe = ROL(Egi, 6);
    25c0:	53e6                	lw	t2,120(sp)
        BCe = ROL(Ege, 44);
    25c2:	0cb2                	slli	s9,s9,0xc
    25c4:	014c5c13          	srli	s8,s8,0x14
        BCe = ROL(Egi, 6);
    25c8:	01a3d793          	srli	a5,t2,0x1a
    25cc:	d8be                	sw	a5,112(sp)
    25ce:	479a                	lw	a5,132(sp)
        BCe = ROL(Ege, 44);
    25d0:	018cec33          	or	s8,s9,s8
        BCi = ROL(Eki, 43);
    25d4:	015b5b13          	srli	s6,s6,0x15
        BCe = ROL(Egi, 6);
    25d8:	00679493          	slli	s1,a5,0x6
    25dc:	daa6                	sw	s1,116(sp)
    25de:	01a7d493          	srli	s1,a5,0x1a
    25e2:	dca6                	sw	s1,120(sp)
    25e4:	00639493          	slli	s1,t2,0x6
        BCi = ROL(Eko, 25);
    25e8:	43ba                	lw	t2,140(sp)
    25ea:	47da                	lw	a5,148(sp)
        BCe = ROL(Egi, 6);
    25ec:	dea6                	sw	s1,124(sp)
        BCi = ROL(Eko, 25);
    25ee:	0073d493          	srli	s1,t2,0x7
    25f2:	c126                	sw	s1,128(sp)
    25f4:	01979493          	slli	s1,a5,0x19
    25f8:	c326                	sw	s1,132(sp)
    25fa:	0077d493          	srli	s1,a5,0x7
    25fe:	c526                	sw	s1,136(sp)
    2600:	01939493          	slli	s1,t2,0x19
        BCo = ROL(Emu, 8);
    2604:	43ea                	lw	t2,152(sp)
    2606:	579a                	lw	a5,164(sp)
        BCi = ROL(Eko, 25);
    2608:	c726                	sw	s1,140(sp)
        BCo = ROL(Emu, 8);
    260a:	0183d493          	srli	s1,t2,0x18
    260e:	c926                	sw	s1,144(sp)
    2610:	00879493          	slli	s1,a5,0x8
    2614:	cb26                	sw	s1,148(sp)
    2616:	0187d493          	srli	s1,a5,0x18
    261a:	cd26                	sw	s1,152(sp)
    261c:	00839493          	slli	s1,t2,0x8
        BCu = ROL(Esa, 18);
    2620:	53aa                	lw	t2,168(sp)
    2622:	57ea                	lw	a5,184(sp)
        BCo = ROL(Emu, 8);
    2624:	d326                	sw	s1,164(sp)
        BCu = ROL(Esa, 18);
    2626:	00e3d493          	srli	s1,t2,0xe
    262a:	d526                	sw	s1,168(sp)
    262c:	01279493          	slli	s1,a5,0x12
    2630:	d726                	sw	s1,172(sp)
    2632:	00e7d493          	srli	s1,a5,0xe
    2636:	d926                	sw	s1,176(sp)
    2638:	01239493          	slli	s1,t2,0x12
        BCa = ROL(Ebu, 27);
    263c:	439e                	lw	t2,196(sp)
    263e:	47de                	lw	a5,212(sp)
        BCu = ROL(Esa, 18);
    2640:	db26                	sw	s1,180(sp)
        BCa = ROL(Ebu, 27);
    2642:	0053d493          	srli	s1,t2,0x5
    2646:	dd26                	sw	s1,184(sp)
    2648:	01b79493          	slli	s1,a5,0x1b
    264c:	df26                	sw	s1,188(sp)
    264e:	0057d493          	srli	s1,a5,0x5
    2652:	c1a6                	sw	s1,192(sp)
        BCe = ROL(Ega, 36);
    2654:	47fe                	lw	a5,220(sp)
        BCa = ROL(Ebu, 27);
    2656:	01b39493          	slli	s1,t2,0x1b
        BCe = ROL(Ega, 36);
    265a:	43ee                	lw	t2,216(sp)
        BCa = ROL(Ebu, 27);
    265c:	c3a6                	sw	s1,196(sp)
        BCe = ROL(Ega, 36);
    265e:	00479493          	slli	s1,a5,0x4
    2662:	c5a6                	sw	s1,200(sp)
    2664:	01c3d493          	srli	s1,t2,0x1c
    2668:	cba6                	sw	s1,212(sp)
    266a:	00439493          	slli	s1,t2,0x4
        BCi = ROL(Eke, 10);
    266e:	538e                	lw	t2,224(sp)
        BCe = ROL(Ega, 36);
    2670:	83f1                	srli	a5,a5,0x1c
    2672:	cfbe                	sw	a5,220(sp)
        BCi = ROL(Eke, 10);
    2674:	0163d793          	srli	a5,t2,0x16
    2678:	d1be                	sw	a5,224(sp)
    267a:	579e                	lw	a5,228(sp)
        BCe = ROL(Ega, 36);
    267c:	cda6                	sw	s1,216(sp)
        BCi = ROL(Eki, 43);
    267e:	0bae                	slli	s7,s7,0xb
        BCi = ROL(Eke, 10);
    2680:	00a79493          	slli	s1,a5,0xa
    2684:	83d9                	srli	a5,a5,0x16
    2686:	d5be                	sw	a5,232(sp)
    2688:	00a39793          	slli	a5,t2,0xa
        BCo = ROL(Emi, 15);
    268c:	53ce                	lw	t2,240(sp)
        BCi = ROL(Eke, 10);
    268e:	d7be                	sw	a5,236(sp)
        BCo = ROL(Emi, 15);
    2690:	57de                	lw	a5,244(sp)
        BCi = ROL(Eke, 10);
    2692:	d3a6                	sw	s1,228(sp)
        BCo = ROL(Emi, 15);
    2694:	0113d493          	srli	s1,t2,0x11
    2698:	d9a6                	sw	s1,240(sp)
    269a:	00f79493          	slli	s1,a5,0xf
    269e:	83c5                	srli	a5,a5,0x11
    26a0:	ddbe                	sw	a5,248(sp)
    26a2:	00f39793          	slli	a5,t2,0xf
    26a6:	dfbe                	sw	a5,252(sp)
        BCu = ROL(Eso, 56);
    26a8:	10012783          	lw	a5,256(sp)
        BCo = ROL(Emi, 15);
    26ac:	dba6                	sw	s1,244(sp)
        BCi = ROL(Eki, 43);
    26ae:	016bebb3          	or	s7,s7,s6
        BCu = ROL(Eso, 56);
    26b2:	01879393          	slli	t2,a5,0x18
    26b6:	83a1                	srli	a5,a5,0x8
    26b8:	10712023          	sw	t2,256(sp)
    26bc:	10f12623          	sw	a5,268(sp)
    26c0:	10412383          	lw	t2,260(sp)
        BCa = ROL(Ebi, 62);
    26c4:	01e81793          	slli	a5,a6,0x1e
    26c8:	10f12823          	sw	a5,272(sp)
    26cc:	0028d793          	srli	a5,a7,0x2
    26d0:	08fa                	slli	a7,a7,0x1e
    26d2:	11112c23          	sw	a7,280(sp)
        BCe = ROL(Ego, 55);
    26d6:	01759893          	slli	a7,a1,0x17
        BCu = ROL(Eso, 56);
    26da:	0083d493          	srli	s1,t2,0x8
        BCe = ROL(Ego, 55);
    26de:	11112e23          	sw	a7,284(sp)
    26e2:	00955893          	srli	a7,a0,0x9
        BCu = ROL(Eso, 56);
    26e6:	10912223          	sw	s1,260(sp)
        BCe = ROL(Ego, 55);
    26ea:	13112023          	sw	a7,288(sp)
        BCu = ROL(Eso, 56);
    26ee:	01839493          	slli	s1,t2,0x18
        BCe = ROL(Ego, 55);
    26f2:	055e                	slli	a0,a0,0x17
    26f4:	0095d893          	srli	a7,a1,0x9
        BCi = ROL(Eku, 39);
    26f8:	00769593          	slli	a1,a3,0x7
        BCu = ROL(Eso, 56);
    26fc:	10912423          	sw	s1,264(sp)
        BCa = ROL(Ebi, 62);
    2700:	10f12a23          	sw	a5,276(sp)
        BCe = ROL(Ego, 55);
    2704:	12a12223          	sw	a0,292(sp)
        BCi = ROL(Eku, 39);
    2708:	12b12423          	sw	a1,296(sp)
    270c:	01965593          	srli	a1,a2,0x19
    2710:	12b12623          	sw	a1,300(sp)
        BCo = ROL(Ema, 41);
    2714:	13012383          	lw	t2,304(sp)
        BCi = ROL(Eku, 39);
    2718:	0196d593          	srli	a1,a3,0x19
        BCo = ROL(Ema, 41);
    271c:	13412683          	lw	a3,308(sp)
        BCu = ROL(Ese, 2);
    2720:	00271493          	slli	s1,a4,0x2
    2724:	8379                	srli	a4,a4,0x1e
        BCi = ROL(Eku, 39);
    2726:	00761513          	slli	a0,a2,0x7
        BCu = ROL(Ese, 2);
    272a:	14e12023          	sw	a4,320(sp)
        BCo = ROL(Ema, 41);
    272e:	00939613          	slli	a2,t2,0x9
        Eba ^= Da;
    2732:	477a                	lw	a4,156(sp)
        BCo = ROL(Ema, 41);
    2734:	12c12823          	sw	a2,304(sp)
    2738:	0176d613          	srli	a2,a3,0x17
    273c:	12c12a23          	sw	a2,308(sp)
    2740:	00969613          	slli	a2,a3,0x9
    2744:	0173d693          	srli	a3,t2,0x17
        BCu = ROL(Ese, 2);
    2748:	13812383          	lw	t2,312(sp)
        Eba ^= Da;
    274c:	005742b3          	xor	t0,a4,t0
    2750:	570a                	lw	a4,160(sp)
        BCu = ROL(Ese, 2);
    2752:	01e3d793          	srli	a5,t2,0x1e
    2756:	12f12c23          	sw	a5,312(sp)
        Eba ^= Da;
    275a:	01f74fb3          	xor	t6,a4,t6
        BCu = ROL(Ese, 2);
    275e:	00239793          	slli	a5,t2,0x2
        BCe = ROL(Ege, 44);
    2762:	4722                	lw	a4,8(sp)
    2764:	43b2                	lw	t2,12(sp)
        BCi = ROL(Eki, 43);
    2766:	4cd2                	lw	s9,20(sp)
        BCo = ROL(Emo, 21);
    2768:	4b72                	lw	s6,28(sp)
        BCe = ROL(Ege, 44);
    276a:	00776733          	or	a4,a4,t2
        BCi = ROL(Eki, 43);
    276e:	43c2                	lw	t2,16(sp)
        BCo = ROL(Emo, 21);
    2770:	00bada93          	srli	s5,s5,0xb
    2774:	0a56                	slli	s4,s4,0x15
        BCi = ROL(Eki, 43);
    2776:	0193ecb3          	or	s9,t2,s9
        BCo = ROL(Emo, 21);
    277a:	43e2                	lw	t2,24(sp)
    277c:	014aea33          	or	s4,s5,s4
        BCu = ROL(Esu, 14);
    2780:	5a92                	lw	s5,36(sp)
        BCo = ROL(Emo, 21);
    2782:	0163eb33          	or	s6,t2,s6
        BCu = ROL(Esu, 14);
    2786:	5382                	lw	t2,32(sp)
    2788:	012ddd93          	srli	s11,s11,0x12
    278c:	0d3a                	slli	s10,s10,0xe
    278e:	0153eab3          	or	s5,t2,s5
    2792:	c656                	sw	s5,12(sp)
        BCa = ROL(Ebo, 28);
    2794:	53a2                	lw	t2,40(sp)
        BCu = ROL(Esu, 14);
    2796:	01adeab3          	or	s5,s11,s10
        BCa = ROL(Ebo, 28);
    279a:	5d32                	lw	s10,44(sp)
    279c:	0049d993          	srli	s3,s3,0x4
    27a0:	0972                	slli	s2,s2,0x1c
    27a2:	01a3ed33          	or	s10,t2,s10
    27a6:	0129e933          	or	s2,s3,s2
        BCe = ROL(Egu, 20);
    27aa:	53c2                	lw	t2,48(sp)
    27ac:	59d2                	lw	s3,52(sp)
        BCu = ROL(Ese, 2);
    27ae:	12912e23          	sw	s1,316(sp)
        BCe = ROL(Egu, 20);
    27b2:	54f2                	lw	s1,60(sp)
    27b4:	0133e9b3          	or	s3,t2,s3
    27b8:	53e2                	lw	t2,56(sp)
    27ba:	cc4e                	sw	s3,24(sp)
        BCi = ROL(Eka, 3);
    27bc:	4996                	lw	s3,68(sp)
        BCe = ROL(Egu, 20);
    27be:	0093e4b3          	or	s1,t2,s1
        BCi = ROL(Eka, 3);
    27c2:	4386                	lw	t2,64(sp)
        BCo = ROL(Eme, 45);
    27c4:	013ede93          	srli	t4,t4,0x13
    27c8:	0f36                	slli	t5,t5,0xd
        BCi = ROL(Eka, 3);
    27ca:	0133e3b3          	or	t2,t2,s3
        BCo = ROL(Eme, 45);
    27ce:	01df6f33          	or	t5,t5,t4
        BCe = ROL(Ege, 44);
    27d2:	c43a                	sw	a4,8(sp)
        BCa = ROL(Ebo, 28);
    27d4:	ca6a                	sw	s10,20(sp)
    27d6:	c84a                	sw	s2,16(sp)
        BCi = ROL(Eka, 3);
    27d8:	d01e                	sw	t2,32(sp)
    27da:	43a6                	lw	t2,72(sp)
    27dc:	49b6                	lw	s3,76(sp)
        BCu = ROL(Esi, 61);
    27de:	4ee6                	lw	t4,88(sp)
        BCo = ROL(Eme, 45);
    27e0:	d47a                	sw	t5,40(sp)
        BCu = ROL(Esi, 61);
    27e2:	4f76                	lw	t5,92(sp)
    27e4:	0e76                	slli	t3,t3,0x1d
        BCo = ROL(Eme, 45);
    27e6:	4d56                	lw	s10,84(sp)
        BCi = ROL(Eka, 3);
    27e8:	0133e3b3          	or	t2,t2,s3
        BCu = ROL(Esi, 61);
    27ec:	01eeeeb3          	or	t4,t4,t5
        BCo = ROL(Eme, 45);
    27f0:	49c6                	lw	s3,80(sp)
        BCa = ROL(Ebe, 1);
    27f2:	5f16                	lw	t5,100(sp)
        BCu = ROL(Esi, 61);
    27f4:	006e6333          	or	t1,t3,t1
        BCa = ROL(Ebe, 1);
    27f8:	5e06                	lw	t3,96(sp)
        BCo = ROL(Eme, 45);
    27fa:	01a9e9b3          	or	s3,s3,s10
        BCa = ROL(Ebe, 1);
    27fe:	5d36                	lw	s10,108(sp)
    2800:	01ee6e33          	or	t3,t3,t5
    2804:	5f26                	lw	t5,104(sp)
        BCe = ROL(Egi, 6);
    2806:	5956                	lw	s2,116(sp)
    2808:	5776                	lw	a4,124(sp)
        BCa = ROL(Ebe, 1);
    280a:	01af6f33          	or	t5,t5,s10
        BCe = ROL(Egi, 6);
    280e:	5d46                	lw	s10,112(sp)
        BCa = ROL(Ebe, 1);
    2810:	dc72                	sw	t3,56(sp)
        BCi = ROL(Eko, 25);
    2812:	4e1a                	lw	t3,132(sp)
        BCe = ROL(Egi, 6);
    2814:	012d6d33          	or	s10,s10,s2
    2818:	5966                	lw	s2,120(sp)
        BCu = ROL(Esi, 61);
    281a:	d676                	sw	t4,44(sp)
        BCi = ROL(Eko, 25);
    281c:	4eba                	lw	t4,140(sp)
        BCe = ROL(Egi, 6);
    281e:	00e96933          	or	s2,s2,a4
        BCi = ROL(Eko, 25);
    2822:	470a                	lw	a4,128(sp)
        BCa = ROL(Ebe, 1);
    2824:	da7a                	sw	t5,52(sp)
        BCo = ROL(Emu, 8);
    2826:	4f5a                	lw	t5,148(sp)
        BCi = ROL(Eko, 25);
    2828:	01c76733          	or	a4,a4,t3
    282c:	4e2a                	lw	t3,136(sp)
        BCi = ROL(Eka, 3);
    282e:	ce1e                	sw	t2,28(sp)
        BCo = ROL(Eme, 45);
    2830:	d24e                	sw	s3,36(sp)
        BCi = ROL(Eko, 25);
    2832:	01de6e33          	or	t3,t3,t4
        BCo = ROL(Emu, 8);
    2836:	4eca                	lw	t4,144(sp)
        BCu = ROL(Esi, 61);
    2838:	d81a                	sw	t1,48(sp)
        BCe = ROL(Egi, 6);
    283a:	c0ea                	sw	s10,64(sp)
        BCo = ROL(Emu, 8);
    283c:	01eeeeb3          	or	t4,t4,t5
        BCe = ROL(Egi, 6);
    2840:	de4a                	sw	s2,60(sp)
        BCi = ROL(Eko, 25);
    2842:	c4ba                	sw	a4,72(sp)
    2844:	c2f2                	sw	t3,68(sp)
        BCo = ROL(Emu, 8);
    2846:	c8f6                	sw	t4,80(sp)
    2848:	4f6a                	lw	t5,152(sp)
    284a:	539a                	lw	t2,164(sp)
        BCu = ROL(Esa, 18);
    284c:	59da                	lw	s3,180(sp)
        BCa = ROL(Ebu, 27);
    284e:	5d7a                	lw	s10,188(sp)
        BCo = ROL(Emu, 8);
    2850:	007f6333          	or	t1,t5,t2
        BCu = ROL(Esa, 18);
    2854:	53ba                	lw	t2,172(sp)
    2856:	5f2a                	lw	t5,168(sp)
        BCa = ROL(Ebu, 27);
    2858:	491e                	lw	s2,196(sp)
        BCe = ROL(Ega, 36);
    285a:	4dde                	lw	s11,212(sp)
        BCu = ROL(Esa, 18);
    285c:	007f6f33          	or	t5,t5,t2
    2860:	53ca                	lw	t2,176(sp)
        BCe = ROL(Ega, 36);
    2862:	4e7e                	lw	t3,220(sp)
        BCi = ROL(Eke, 10);
    2864:	5e9e                	lw	t4,228(sp)
        BCu = ROL(Esa, 18);
    2866:	0133e3b3          	or	t2,t2,s3
        BCa = ROL(Ebu, 27);
    286a:	59ea                	lw	s3,184(sp)
        BCu = ROL(Esa, 18);
    286c:	ccfa                	sw	t5,88(sp)
        BCi = ROL(Eke, 10);
    286e:	5f3e                	lw	t5,236(sp)
        BCa = ROL(Ebu, 27);
    2870:	01a9e9b3          	or	s3,s3,s10
    2874:	4d0e                	lw	s10,192(sp)
        BCu = ROL(Esa, 18);
    2876:	ca9e                	sw	t2,84(sp)
        BCo = ROL(Emi, 15);
    2878:	53de                	lw	t2,244(sp)
        BCa = ROL(Ebu, 27);
    287a:	012d6d33          	or	s10,s10,s2
        BCe = ROL(Ega, 36);
    287e:	492e                	lw	s2,200(sp)
        BCo = ROL(Emu, 8);
    2880:	c69a                	sw	t1,76(sp)
        BCa = ROL(Ebu, 27);
    2882:	d0ce                	sw	s3,96(sp)
        BCe = ROL(Ega, 36);
    2884:	01b96933          	or	s2,s2,s11
    2888:	4dee                	lw	s11,216(sp)
        BCa = ROL(Ebu, 27);
    288a:	ceea                	sw	s10,92(sp)
        BCe = ROL(Ega, 36);
    288c:	d2ca                	sw	s2,100(sp)
    288e:	01cdedb3          	or	s11,s11,t3
        BCi = ROL(Eke, 10);
    2892:	5e0e                	lw	t3,224(sp)
        BCe = ROL(Ega, 36);
    2894:	d4ee                	sw	s11,104(sp)
        BCa = ROL(Ebi, 62);
    2896:	00285813          	srli	a6,a6,0x2
        BCi = ROL(Eke, 10);
    289a:	01de6e33          	or	t3,t3,t4
    289e:	5eae                	lw	t4,232(sp)
    28a0:	d8f2                	sw	t3,112(sp)
        BCi = ROL(Eku, 39);
    28a2:	8dc9                	or	a1,a1,a0
        BCi = ROL(Eke, 10);
    28a4:	01eeeeb3          	or	t4,t4,t5
        BCo = ROL(Emi, 15);
    28a8:	5f4e                	lw	t5,240(sp)
        BCi = ROL(Eke, 10);
    28aa:	d6f6                	sw	t4,108(sp)
        BCo = ROL(Ema, 41);
    28ac:	8ed1                	or	a3,a3,a2
        BCo = ROL(Emi, 15);
    28ae:	007f6333          	or	t1,t5,t2
    28b2:	53fe                	lw	t2,252(sp)
    28b4:	5f6e                	lw	t5,248(sp)
    28b6:	dc9a                	sw	t1,120(sp)
    28b8:	007f6f33          	or	t5,t5,t2
    28bc:	dafa                	sw	t5,116(sp)
        BCu = ROL(Eso, 56);
    28be:	10412983          	lw	s3,260(sp)
    28c2:	10012383          	lw	t2,256(sp)
    28c6:	10c12d03          	lw	s10,268(sp)
        BCa = ROL(Ebi, 62);
    28ca:	11412903          	lw	s2,276(sp)
        BCu = ROL(Eso, 56);
    28ce:	0133e3b3          	or	t2,t2,s3
    28d2:	10812983          	lw	s3,264(sp)
        BCo = ROL(Ema, 41);
    28d6:	13012503          	lw	a0,304(sp)
        BCi = ROL(Eku, 39);
    28da:	cd2e                	sw	a1,152(sp)
        BCu = ROL(Eso, 56);
    28dc:	01a9e9b3          	or	s3,s3,s10
        BCa = ROL(Ebi, 62);
    28e0:	11012d03          	lw	s10,272(sp)
        BCo = ROL(Ema, 41);
    28e4:	13412583          	lw	a1,308(sp)
        BCu = ROL(Ese, 2);
    28e8:	14012703          	lw	a4,320(sp)
        BCa = ROL(Ebi, 62);
    28ec:	012d6d33          	or	s10,s10,s2
    28f0:	11812903          	lw	s2,280(sp)
        BCo = ROL(Ema, 41);
    28f4:	8d4d                	or	a0,a0,a1
        BCu = ROL(Ese, 2);
    28f6:	13812603          	lw	a2,312(sp)
        BCa = ROL(Ebi, 62);
    28fa:	01096833          	or	a6,s2,a6
    28fe:	c542                	sw	a6,136(sp)
        BCe = ROL(Ego, 55);
    2900:	12012903          	lw	s2,288(sp)
    2904:	11c12803          	lw	a6,284(sp)
        BCu = ROL(Ese, 2);
    2908:	13c12583          	lw	a1,316(sp)
        BCu = ROL(Eso, 56);
    290c:	de9e                	sw	t2,124(sp)
        BCe = ROL(Ego, 55);
    290e:	01286833          	or	a6,a6,s2
    2912:	c742                	sw	a6,140(sp)
    2914:	12412803          	lw	a6,292(sp)
        BCu = ROL(Ese, 2);
    2918:	8e4d                	or	a2,a2,a1
    291a:	00f765b3          	or	a1,a4,a5
        BCe = ROL(Ego, 55);
    291e:	011868b3          	or	a7,a6,a7
    2922:	c946                	sw	a7,144(sp)
        BCi = ROL(Eku, 39);
    2924:	12c12803          	lw	a6,300(sp)
    2928:	12812883          	lw	a7,296(sp)
        BCu = ROL(Eso, 56);
    292c:	c14e                	sw	s3,128(sp)
        BCa = ROL(Ebi, 62);
    292e:	c36a                	sw	s10,132(sp)
        BCi = ROL(Eku, 39);
    2930:	0108e8b3          	or	a7,a7,a6
    2934:	cb46                	sw	a7,148(sp)
        BCo = ROL(Ema, 41);
    2936:	cf2a                	sw	a0,156(sp)
    2938:	d136                	sw	a3,160(sp)
        BCu = ROL(Ese, 2);
    293a:	d532                	sw	a2,168(sp)
    293c:	d32e                	sw	a1,164(sp)
        Aba = BCa ^ ((~BCe) & BCi);
    293e:	db62                	sw	s8,180(sp)
        Abe = BCe ^ ((~BCi) & BCo);
    2940:	dd66                	sw	s9,184(sp)
        Aba = BCa ^ ((~BCe) & BCi);
    2942:	4722                	lw	a4,8(sp)
        Abe = BCe ^ ((~BCi) & BCo);
    2944:	df5e                	sw	s7,188(sp)
        Age = BCe ^ ((~BCi) & BCo);
    2946:	5302                	lw	t1,32(sp)
        Abi = BCi ^ ((~BCo) & BCu);
    2948:	fffb4793          	not	a5,s6
    294c:	c3da                	sw	s6,196(sp)
        Ako = BCo ^ ((~BCu) & BCa);
    294e:	4b56                	lw	s6,84(sp)
        Abu = BCu ^ ((~BCa) & BCe);
    2950:	d97e                	sw	t6,176(sp)
    2952:	ffffc913          	not	s2,t6
        Age = BCe ^ ((~BCi) & BCo);
    2956:	fff34f93          	not	t6,t1
    295a:	d1fe                	sw	t6,224(sp)
        Ako = BCo ^ ((~BCu) & BCa);
    295c:	fffb4f93          	not	t6,s6
    2960:	4b66                	lw	s6,88(sp)
    2962:	d3fe                	sw	t6,228(sp)
        Abo = BCo ^ ((~BCu) & BCa);
    2964:	4632                	lw	a2,12(sp)
        Ako = BCo ^ ((~BCu) & BCa);
    2966:	fffb4f93          	not	t6,s6
        Aku = BCu ^ ((~BCa) & BCe);
    296a:	5b52                	lw	s6,52(sp)
        Age = BCe ^ ((~BCi) & BCo);
    296c:	4e72                	lw	t3,28(sp)
        Agi = BCi ^ ((~BCo) & BCu);
    296e:	5e92                	lw	t4,36(sp)
    2970:	5522                	lw	a0,40(sp)
        Ago = BCo ^ ((~BCu) & BCa);
    2972:	5832                	lw	a6,44(sp)
        Ako = BCo ^ ((~BCu) & BCa);
    2974:	d5fe                	sw	t6,232(sp)
        Aku = BCu ^ ((~BCa) & BCe);
    2976:	fffb4f93          	not	t6,s6
    297a:	5b62                	lw	s6,56(sp)
        Aga = BCa ^ ((~BCe) & BCi);
    297c:	48e2                	lw	a7,24(sp)
        Aka = BCa ^ ((~BCe) & BCi);
    297e:	4686                	lw	a3,64(sp)
        Aba = BCa ^ ((~BCe) & BCi);
    2980:	fff74d93          	not	s11,a4
    2984:	fffc4d13          	not	s10,s8
        Ake = BCe ^ ((~BCi) & BCo);
    2988:	4726                	lw	a4,72(sp)
        Abe = BCe ^ ((~BCi) & BCo);
    298a:	fffbcc13          	not	s8,s7
        Abi = BCi ^ ((~BCo) & BCu);
    298e:	c1d2                	sw	s4,192(sp)
    2990:	fffa4b93          	not	s7,s4
    2994:	cfbe                	sw	a5,220(sp)
        Abo = BCo ^ ((~BCu) & BCa);
    2996:	fff64a13          	not	s4,a2
        Ake = BCe ^ ((~BCi) & BCo);
    299a:	4796                	lw	a5,68(sp)
        Aka = BCa ^ ((~BCe) & BCi);
    299c:	5672                	lw	a2,60(sp)
        Abu = BCu ^ ((~BCa) & BCe);
    299e:	d716                	sw	t0,172(sp)
    29a0:	fff2c993          	not	s3,t0
        Agi = BCi ^ ((~BCo) & BCu);
    29a4:	fffecf13          	not	t5,t4
        Age = BCe ^ ((~BCi) & BCo);
    29a8:	fffe4293          	not	t0,t3
        Agi = BCi ^ ((~BCo) & BCu);
    29ac:	fff54e93          	not	t4,a0
        Ago = BCo ^ ((~BCu) & BCa);
    29b0:	fff84e13          	not	t3,a6
        Agu = BCu ^ ((~BCa) & BCe);
    29b4:	4552                	lw	a0,20(sp)
    29b6:	4842                	lw	a6,16(sp)
        Aku = BCu ^ ((~BCa) & BCe);
    29b8:	d9fe                	sw	t6,240(sp)
    29ba:	fffb4f93          	not	t6,s6
        Ago = BCo ^ ((~BCu) & BCa);
    29be:	5342                	lw	t1,48(sp)
        Abo = BCo ^ ((~BCu) & BCa);
    29c0:	c5d6                	sw	s5,200(sp)
        Aga = BCa ^ ((~BCe) & BCi);
    29c2:	cda6                	sw	s1,216(sp)
    29c4:	fff8c393          	not	t2,a7
        Aka = BCa ^ ((~BCe) & BCi);
    29c8:	fff6c593          	not	a1,a3
        Agu = BCu ^ ((~BCa) & BCe);
    29cc:	fff84893          	not	a7,a6
        Ake = BCe ^ ((~BCi) & BCo);
    29d0:	fff74693          	not	a3,a4
        Agu = BCu ^ ((~BCa) & BCe);
    29d4:	fff54813          	not	a6,a0
        Aki = BCi ^ ((~BCo) & BCu);
    29d8:	4736                	lw	a4,76(sp)
        Aka = BCa ^ ((~BCe) & BCi);
    29da:	fff64513          	not	a0,a2
        Aku = BCu ^ ((~BCa) & BCe);
    29de:	dbfe                	sw	t6,244(sp)
        Ake = BCe ^ ((~BCi) & BCo);
    29e0:	fff7c613          	not	a2,a5
        Aki = BCi ^ ((~BCo) & BCu);
    29e4:	47c6                	lw	a5,80(sp)
        Ama = BCa ^ ((~BCe) & BCi);
    29e6:	5b16                	lw	s6,100(sp)
        Abe = BCe ^ ((~BCi) & BCo);
    29e8:	fffccc93          	not	s9,s9
        Abo = BCo ^ ((~BCu) & BCa);
    29ec:	fffaca93          	not	s5,s5
        Ama = BCa ^ ((~BCe) & BCi);
    29f0:	fffb4f93          	not	t6,s6
    29f4:	5b26                	lw	s6,104(sp)
    29f6:	ddfe                	sw	t6,248(sp)
        Aga = BCa ^ ((~BCe) & BCi);
    29f8:	fff4c493          	not	s1,s1
        Ama = BCa ^ ((~BCe) & BCi);
    29fc:	fffb4f93          	not	t6,s6
        Ame = BCe ^ ((~BCi) & BCo);
    2a00:	5b36                	lw	s6,108(sp)
        Ama = BCa ^ ((~BCe) & BCi);
    2a02:	dffe                	sw	t6,252(sp)
        Ago = BCo ^ ((~BCu) & BCa);
    2a04:	fff34313          	not	t1,t1
        Ame = BCe ^ ((~BCi) & BCo);
    2a08:	fffb4f93          	not	t6,s6
    2a0c:	5b46                	lw	s6,112(sp)
    2a0e:	11f12223          	sw	t6,260(sp)
        Aki = BCi ^ ((~BCo) & BCu);
    2a12:	fff74713          	not	a4,a4
        Ame = BCe ^ ((~BCi) & BCo);
    2a16:	fffb4f93          	not	t6,s6
        Ami = BCi ^ ((~BCo) & BCu);
    2a1a:	5b56                	lw	s6,116(sp)
        Ame = BCe ^ ((~BCi) & BCo);
    2a1c:	11f12423          	sw	t6,264(sp)
        Aki = BCi ^ ((~BCo) & BCu);
    2a20:	fff7c793          	not	a5,a5
        Ami = BCi ^ ((~BCo) & BCu);
    2a24:	fffb4f93          	not	t6,s6
    2a28:	5b66                	lw	s6,120(sp)
    2a2a:	11f12623          	sw	t6,268(sp)
    2a2e:	fffb4b13          	not	s6,s6
    2a32:	11612823          	sw	s6,272(sp)
        Amo = BCo ^ ((~BCu) & BCa);
    2a36:	5b76                	lw	s6,124(sp)
    2a38:	fffb4b13          	not	s6,s6
    2a3c:	11612a23          	sw	s6,276(sp)
    2a40:	4b0a                	lw	s6,128(sp)
    2a42:	fffb4f93          	not	t6,s6
        Amu = BCu ^ ((~BCa) & BCe);
    2a46:	4b76                	lw	s6,92(sp)
        Amo = BCo ^ ((~BCu) & BCa);
    2a48:	11f12c23          	sw	t6,280(sp)
        Amu = BCu ^ ((~BCa) & BCe);
    2a4c:	fffb4b13          	not	s6,s6
    2a50:	11612e23          	sw	s6,284(sp)
    2a54:	5b06                	lw	s6,96(sp)
    2a56:	fffb4b13          	not	s6,s6
    2a5a:	13612023          	sw	s6,288(sp)
        Asa = BCa ^ ((~BCe) & BCi);
    2a5e:	4b3a                	lw	s6,140(sp)
    2a60:	fffb4b13          	not	s6,s6
    2a64:	13612223          	sw	s6,292(sp)
    2a68:	4b4a                	lw	s6,144(sp)
    2a6a:	fffb4f93          	not	t6,s6
        Ase = BCe ^ ((~BCi) & BCo);
    2a6e:	4b5a                	lw	s6,148(sp)
        Asa = BCa ^ ((~BCe) & BCi);
    2a70:	13f12423          	sw	t6,296(sp)
        Ase = BCe ^ ((~BCi) & BCo);
    2a74:	fffb4b13          	not	s6,s6
    2a78:	13612623          	sw	s6,300(sp)
    2a7c:	4b6a                	lw	s6,152(sp)
    2a7e:	fffb4b13          	not	s6,s6
    2a82:	13612823          	sw	s6,304(sp)
        Asi = BCi ^ ((~BCo) & BCu);
    2a86:	4b7a                	lw	s6,156(sp)
    2a88:	fffb4b13          	not	s6,s6
    2a8c:	13612a23          	sw	s6,308(sp)
    2a90:	5b0a                	lw	s6,160(sp)
    2a92:	fffb4f93          	not	t6,s6
    2a96:	13f12c23          	sw	t6,312(sp)
        Aso = BCo ^ ((~BCu) & BCa);
    2a9a:	5b1a                	lw	s6,164(sp)
    2a9c:	fffb4b13          	not	s6,s6
    2aa0:	13612e23          	sw	s6,316(sp)
    2aa4:	5b2a                	lw	s6,168(sp)
    2aa6:	fffb4b13          	not	s6,s6
    2aaa:	15612023          	sw	s6,320(sp)
        Asu = BCu ^ ((~BCa) & BCe);
    2aae:	4b1a                	lw	s6,132(sp)
    2ab0:	fffb4b13          	not	s6,s6
    2ab4:	15612223          	sw	s6,324(sp)
    2ab8:	4b2a                	lw	s6,136(sp)
    2aba:	fffb4f93          	not	t6,s6
    2abe:	15f12423          	sw	t6,328(sp)
        Aba ^= KeccakF_RoundConstants[round + 1];
    2ac2:	5b3a                	lw	s6,172(sp)
    2ac4:	4fbe                	lw	t6,204(sp)
    2ac6:	016fcb33          	xor	s6,t6,s6
    2aca:	c7da                	sw	s6,204(sp)
    2acc:	4fce                	lw	t6,208(sp)
    2ace:	5b4a                	lw	s6,176(sp)
    2ad0:	016fcfb3          	xor	t6,t6,s6
        Aba = BCa ^ ((~BCe) & BCi);
    2ad4:	5b6a                	lw	s6,184(sp)
        Aba ^= KeccakF_RoundConstants[round + 1];
    2ad6:	c9fe                	sw	t6,208(sp)
        Age = BCe ^ ((~BCi) & BCo);
    2ad8:	5f8e                	lw	t6,224(sp)
        Aba = BCa ^ ((~BCe) & BCi);
    2ada:	016dfb33          	and	s6,s11,s6
    2ade:	cbda                	sw	s6,212(sp)
    2ae0:	5b7a                	lw	s6,188(sp)
        Abe = BCe ^ ((~BCi) & BCo);
    2ae2:	4d8e                	lw	s11,192(sp)
        Aba = BCa ^ ((~BCe) & BCi);
    2ae4:	016d7d33          	and	s10,s10,s6
        Abe = BCe ^ ((~BCi) & BCo);
    2ae8:	4b1e                	lw	s6,196(sp)
    2aea:	01bcfcb3          	and	s9,s9,s11
        Abi = BCi ^ ((~BCo) & BCu);
    2aee:	4dfe                	lw	s11,220(sp)
        Abe = BCe ^ ((~BCi) & BCo);
    2af0:	016c7c33          	and	s8,s8,s6
        Abi = BCi ^ ((~BCo) & BCu);
    2af4:	4b2e                	lw	s6,200(sp)
    2af6:	016bfbb3          	and	s7,s7,s6
    2afa:	4b32                	lw	s6,12(sp)
    2afc:	016dfb33          	and	s6,s11,s6
        Abo = BCo ^ ((~BCu) & BCa);
    2b00:	5dba                	lw	s11,172(sp)
    2b02:	01bafab3          	and	s5,s5,s11
    2b06:	5dca                	lw	s11,176(sp)
    2b08:	01ba7a33          	and	s4,s4,s11
        Abu = BCu ^ ((~BCa) & BCe);
    2b0c:	4da2                	lw	s11,8(sp)
    2b0e:	01b9f9b3          	and	s3,s3,s11
    2b12:	5dda                	lw	s11,180(sp)
    2b14:	01b97933          	and	s2,s2,s11
        Aga = BCa ^ ((~BCe) & BCi);
    2b18:	4df2                	lw	s11,28(sp)
    2b1a:	01b4f4b3          	and	s1,s1,s11
    2b1e:	5d82                	lw	s11,32(sp)
    2b20:	01b3f3b3          	and	t2,t2,s11
        Age = BCe ^ ((~BCi) & BCo);
    2b24:	5d92                	lw	s11,36(sp)
    2b26:	01b2f2b3          	and	t0,t0,s11
    2b2a:	5da2                	lw	s11,40(sp)
    2b2c:	01bfffb3          	and	t6,t6,s11
    2b30:	cffe                	sw	t6,220(sp)
        Agi = BCi ^ ((~BCo) & BCu);
    2b32:	5db2                	lw	s11,44(sp)
        Ako = BCo ^ ((~BCu) & BCa);
    2b34:	5f9e                	lw	t6,228(sp)
        Agi = BCi ^ ((~BCo) & BCu);
    2b36:	01bf7f33          	and	t5,t5,s11
    2b3a:	5dc2                	lw	s11,48(sp)
    2b3c:	01befeb3          	and	t4,t4,s11
        Ago = BCo ^ ((~BCu) & BCa);
    2b40:	4dc2                	lw	s11,16(sp)
    2b42:	01be7e33          	and	t3,t3,s11
    2b46:	4dd2                	lw	s11,20(sp)
    2b48:	01b37333          	and	t1,t1,s11
        Agu = BCu ^ ((~BCa) & BCe);
    2b4c:	4dee                	lw	s11,216(sp)
    2b4e:	01b8f8b3          	and	a7,a7,s11
    2b52:	4de2                	lw	s11,24(sp)
    2b54:	01b87833          	and	a6,a6,s11
        Aka = BCa ^ ((~BCe) & BCi);
    2b58:	4d96                	lw	s11,68(sp)
    2b5a:	01b57533          	and	a0,a0,s11
    2b5e:	4da6                	lw	s11,72(sp)
    2b60:	01b5f5b3          	and	a1,a1,s11
        Ake = BCe ^ ((~BCi) & BCo);
    2b64:	4db6                	lw	s11,76(sp)
    2b66:	01b67633          	and	a2,a2,s11
    2b6a:	4dc6                	lw	s11,80(sp)
    2b6c:	01b6f6b3          	and	a3,a3,s11
        Aki = BCi ^ ((~BCo) & BCu);
    2b70:	4dd6                	lw	s11,84(sp)
    2b72:	01b77733          	and	a4,a4,s11
    2b76:	4de6                	lw	s11,88(sp)
    2b78:	01b7f7b3          	and	a5,a5,s11
        Ako = BCo ^ ((~BCu) & BCa);
    2b7c:	5dd2                	lw	s11,52(sp)
    2b7e:	01bffdb3          	and	s11,t6,s11
    2b82:	d7ee                	sw	s11,236(sp)
    2b84:	5fae                	lw	t6,232(sp)
    2b86:	5de2                	lw	s11,56(sp)
    2b88:	01bfffb3          	and	t6,t6,s11
    2b8c:	d5fe                	sw	t6,232(sp)
        Aku = BCu ^ ((~BCa) & BCe);
    2b8e:	5df2                	lw	s11,60(sp)
    2b90:	5fce                	lw	t6,240(sp)
    2b92:	01bfffb3          	and	t6,t6,s11
    2b96:	d9fe                	sw	t6,240(sp)
    2b98:	4d86                	lw	s11,64(sp)
    2b9a:	5fde                	lw	t6,244(sp)
    2b9c:	01bfffb3          	and	t6,t6,s11
    2ba0:	dbfe                	sw	t6,244(sp)
        Ama = BCa ^ ((~BCe) & BCi);
    2ba2:	5db6                	lw	s11,108(sp)
    2ba4:	5fee                	lw	t6,248(sp)
    2ba6:	01bfffb3          	and	t6,t6,s11
    2baa:	11f12023          	sw	t6,256(sp)
    2bae:	5dc6                	lw	s11,112(sp)
    2bb0:	5ffe                	lw	t6,252(sp)
    2bb2:	01bfffb3          	and	t6,t6,s11
    2bb6:	dffe                	sw	t6,252(sp)
        Ame = BCe ^ ((~BCi) & BCo);
    2bb8:	5dd6                	lw	s11,116(sp)
    2bba:	10412f83          	lw	t6,260(sp)
    2bbe:	01bfffb3          	and	t6,t6,s11
    2bc2:	11f12223          	sw	t6,260(sp)
    2bc6:	10812f83          	lw	t6,264(sp)
    2bca:	5de6                	lw	s11,120(sp)
    2bcc:	01bfffb3          	and	t6,t6,s11
    2bd0:	11f12423          	sw	t6,264(sp)
        Ami = BCi ^ ((~BCo) & BCu);
    2bd4:	5df6                	lw	s11,124(sp)
    2bd6:	10c12f83          	lw	t6,268(sp)
    2bda:	01bfffb3          	and	t6,t6,s11
    2bde:	11f12623          	sw	t6,268(sp)
    2be2:	4d8a                	lw	s11,128(sp)
    2be4:	11012f83          	lw	t6,272(sp)
    2be8:	01bfffb3          	and	t6,t6,s11
    2bec:	11f12823          	sw	t6,272(sp)
        Amo = BCo ^ ((~BCu) & BCa);
    2bf0:	4df6                	lw	s11,92(sp)
    2bf2:	11412f83          	lw	t6,276(sp)
    2bf6:	01bfffb3          	and	t6,t6,s11
    2bfa:	11f12a23          	sw	t6,276(sp)
    2bfe:	5d86                	lw	s11,96(sp)
    2c00:	11812f83          	lw	t6,280(sp)
    2c04:	01bfffb3          	and	t6,t6,s11
    2c08:	11f12c23          	sw	t6,280(sp)
        Amu = BCu ^ ((~BCa) & BCe);
    2c0c:	5d96                	lw	s11,100(sp)
    2c0e:	11c12f83          	lw	t6,284(sp)
    2c12:	01bfffb3          	and	t6,t6,s11
    2c16:	11f12e23          	sw	t6,284(sp)
    2c1a:	5da6                	lw	s11,104(sp)
    2c1c:	12012f83          	lw	t6,288(sp)
    2c20:	01bfffb3          	and	t6,t6,s11
    2c24:	13f12023          	sw	t6,288(sp)
        Asa = BCa ^ ((~BCe) & BCi);
    2c28:	4dda                	lw	s11,148(sp)
    2c2a:	12412f83          	lw	t6,292(sp)
    2c2e:	01bfffb3          	and	t6,t6,s11
    2c32:	13f12223          	sw	t6,292(sp)
    2c36:	4dea                	lw	s11,152(sp)
    2c38:	12812f83          	lw	t6,296(sp)
    2c3c:	01bfffb3          	and	t6,t6,s11
    2c40:	13f12423          	sw	t6,296(sp)
        Ase = BCe ^ ((~BCi) & BCo);
    2c44:	4dfa                	lw	s11,156(sp)
    2c46:	12c12f83          	lw	t6,300(sp)
    2c4a:	01bfffb3          	and	t6,t6,s11
    2c4e:	13f12623          	sw	t6,300(sp)
    2c52:	5d8a                	lw	s11,160(sp)
    2c54:	13012f83          	lw	t6,304(sp)
    2c58:	01bfffb3          	and	t6,t6,s11
    2c5c:	13f12823          	sw	t6,304(sp)
        Asi = BCi ^ ((~BCo) & BCu);
    2c60:	13412f83          	lw	t6,308(sp)
    2c64:	5d9a                	lw	s11,164(sp)
    2c66:	01bfffb3          	and	t6,t6,s11
    2c6a:	13f12a23          	sw	t6,308(sp)
    2c6e:	5daa                	lw	s11,168(sp)
    2c70:	13812f83          	lw	t6,312(sp)
    2c74:	01bfffb3          	and	t6,t6,s11
    2c78:	13f12c23          	sw	t6,312(sp)
        Aso = BCo ^ ((~BCu) & BCa);
    2c7c:	4d9a                	lw	s11,132(sp)
    2c7e:	13c12f83          	lw	t6,316(sp)
    2c82:	01bfffb3          	and	t6,t6,s11
    2c86:	13f12e23          	sw	t6,316(sp)
    2c8a:	4daa                	lw	s11,136(sp)
    2c8c:	14012f83          	lw	t6,320(sp)
    2c90:	01bfffb3          	and	t6,t6,s11
    2c94:	15f12023          	sw	t6,320(sp)
        Asu = BCu ^ ((~BCa) & BCe);
    2c98:	4dba                	lw	s11,140(sp)
    2c9a:	14412f83          	lw	t6,324(sp)
    2c9e:	01bfffb3          	and	t6,t6,s11
    2ca2:	15f12223          	sw	t6,324(sp)
    2ca6:	4dca                	lw	s11,144(sp)
    2ca8:	14812f83          	lw	t6,328(sp)
    2cac:	01bfffb3          	and	t6,t6,s11
    for (round = 0; round < NROUNDS; round += 2) {
    2cb0:	4d92                	lw	s11,4(sp)
        Asu = BCu ^ ((~BCa) & BCe);
    2cb2:	15f12423          	sw	t6,328(sp)
        Aba ^= KeccakF_RoundConstants[round + 1];
    2cb6:	4fbe                	lw	t6,204(sp)
    for (round = 0; round < NROUNDS; round += 2) {
    2cb8:	0dc1                	addi	s11,s11,16
    2cba:	c26e                	sw	s11,4(sp)
        Aba ^= KeccakF_RoundConstants[round + 1];
    2cbc:	4dde                	lw	s11,212(sp)
    2cbe:	01bfcfb3          	xor	t6,t6,s11
    2cc2:	d77e                	sw	t6,172(sp)
    2cc4:	4fce                	lw	t6,208(sp)
        Abe = BCe ^ ((~BCi) & BCo);
    2cc6:	4da2                	lw	s11,8(sp)
        Aba ^= KeccakF_RoundConstants[round + 1];
    2cc8:	01afcd33          	xor	s10,t6,s10
    2ccc:	d96a                	sw	s10,176(sp)
        Abe = BCe ^ ((~BCi) & BCo);
    2cce:	01bccd33          	xor	s10,s9,s11
    2cd2:	5dda                	lw	s11,180(sp)
        Abi = BCi ^ ((~BCo) & BCu);
    2cd4:	5cea                	lw	s9,184(sp)
        Abe = BCe ^ ((~BCi) & BCo);
    2cd6:	c46a                	sw	s10,8(sp)
    2cd8:	01bc4c33          	xor	s8,s8,s11
    2cdc:	db62                	sw	s8,180(sp)
        Abi = BCi ^ ((~BCo) & BCu);
    2cde:	019bcc33          	xor	s8,s7,s9
    2ce2:	5bfa                	lw	s7,188(sp)
    2ce4:	dd62                	sw	s8,184(sp)
    2ce6:	017b4bb3          	xor	s7,s6,s7
    2cea:	df5e                	sw	s7,188(sp)
        Abo = BCo ^ ((~BCu) & BCa);
    2cec:	4d8e                	lw	s11,192(sp)
    2cee:	4b1e                	lw	s6,196(sp)
    2cf0:	01bacbb3          	xor	s7,s5,s11
        Abu = BCu ^ ((~BCa) & BCe);
    2cf4:	4aae                	lw	s5,200(sp)
        Abo = BCo ^ ((~BCu) & BCa);
    2cf6:	016a4a33          	xor	s4,s4,s6
        Abu = BCu ^ ((~BCa) & BCe);
    2cfa:	4b32                	lw	s6,12(sp)
    2cfc:	0159c9b3          	xor	s3,s3,s5
    2d00:	c5ce                	sw	s3,200(sp)
    2d02:	016949b3          	xor	s3,s2,s6
        Aga = BCa ^ ((~BCe) & BCi);
    2d06:	4942                	lw	s2,16(sp)
    2d08:	4dd2                	lw	s11,20(sp)
        Abo = BCo ^ ((~BCu) & BCa);
    2d0a:	c1de                	sw	s7,192(sp)
        Aga = BCa ^ ((~BCe) & BCi);
    2d0c:	0124c933          	xor	s2,s1,s2
        Age = BCe ^ ((~BCi) & BCo);
    2d10:	44ee                	lw	s1,216(sp)
        Aga = BCa ^ ((~BCe) & BCi);
    2d12:	01b3c3b3          	xor	t2,t2,s11
        Age = BCe ^ ((~BCi) & BCo);
    2d16:	4de2                	lw	s11,24(sp)
    2d18:	0092c4b3          	xor	s1,t0,s1
    2d1c:	dda6                	sw	s1,248(sp)
    2d1e:	44fe                	lw	s1,220(sp)
        Abu = BCu ^ ((~BCa) & BCe);
    2d20:	c7ce                	sw	s3,204(sp)
        Abo = BCo ^ ((~BCu) & BCa);
    2d22:	c3d2                	sw	s4,196(sp)
        Age = BCe ^ ((~BCi) & BCo);
    2d24:	01b4c2b3          	xor	t0,s1,s11
        Agi = BCi ^ ((~BCo) & BCu);
    2d28:	44f2                	lw	s1,28(sp)
    2d2a:	5d82                	lw	s11,32(sp)
        Aga = BCa ^ ((~BCe) & BCi);
    2d2c:	c9ca                	sw	s2,208(sp)
        Agi = BCi ^ ((~BCo) & BCu);
    2d2e:	009f4f33          	xor	t5,t5,s1
    2d32:	cc7a                	sw	t5,24(sp)
    2d34:	01becf33          	xor	t5,t4,s11
        Ago = BCo ^ ((~BCu) & BCa);
    2d38:	5d92                	lw	s11,36(sp)
        Aka = BCa ^ ((~BCe) & BCi);
    2d3a:	54d2                	lw	s1,52(sp)
        Aga = BCa ^ ((~BCe) & BCi);
    2d3c:	cb9e                	sw	t2,212(sp)
        Ago = BCo ^ ((~BCu) & BCa);
    2d3e:	01be4e33          	xor	t3,t3,s11
    2d42:	5da2                	lw	s11,40(sp)
    2d44:	cdf2                	sw	t3,216(sp)
        Aka = BCa ^ ((~BCe) & BCi);
    2d46:	8d25                	xor	a0,a0,s1
        Ago = BCo ^ ((~BCu) & BCa);
    2d48:	01b34e33          	xor	t3,t1,s11
        Agu = BCu ^ ((~BCa) & BCe);
    2d4c:	5db2                	lw	s11,44(sp)
        Aka = BCa ^ ((~BCe) & BCi);
    2d4e:	d02a                	sw	a0,32(sp)
        Age = BCe ^ ((~BCi) & BCo);
    2d50:	c616                	sw	t0,12(sp)
        Agu = BCu ^ ((~BCa) & BCe);
    2d52:	01b8c8b3          	xor	a7,a7,s11
    2d56:	5dc2                	lw	s11,48(sp)
        Agi = BCi ^ ((~BCo) & BCu);
    2d58:	ce7a                	sw	t5,28(sp)
        Ago = BCo ^ ((~BCu) & BCa);
    2d5a:	cff2                	sw	t3,220(sp)
        Agu = BCu ^ ((~BCa) & BCe);
    2d5c:	01b84b33          	xor	s6,a6,s11
        Aka = BCa ^ ((~BCe) & BCi);
    2d60:	5de2                	lw	s11,56(sp)
        Agu = BCu ^ ((~BCa) & BCe);
    2d62:	ca46                	sw	a7,20(sp)
        Aka = BCa ^ ((~BCe) & BCi);
    2d64:	01b5c533          	xor	a0,a1,s11
    2d68:	d22a                	sw	a0,36(sp)
        Ake = BCe ^ ((~BCi) & BCo);
    2d6a:	55f2                	lw	a1,60(sp)
    2d6c:	4d86                	lw	s11,64(sp)
    2d6e:	8e2d                	xor	a2,a2,a1
    2d70:	d1b2                	sw	a2,224(sp)
    2d72:	01b6c633          	xor	a2,a3,s11
        Aki = BCi ^ ((~BCo) & BCu);
    2d76:	4696                	lw	a3,68(sp)
    2d78:	4da6                	lw	s11,72(sp)
        Ake = BCe ^ ((~BCi) & BCo);
    2d7a:	d3b2                	sw	a2,228(sp)
        Aki = BCi ^ ((~BCo) & BCu);
    2d7c:	00d749b3          	xor	s3,a4,a3
        Ako = BCo ^ ((~BCu) & BCa);
    2d80:	56be                	lw	a3,236(sp)
    2d82:	4736                	lw	a4,76(sp)
        Aki = BCi ^ ((~BCo) & BCu);
    2d84:	01b7c633          	xor	a2,a5,s11
        Ako = BCo ^ ((~BCu) & BCa);
    2d88:	4dc6                	lw	s11,80(sp)
    2d8a:	8eb9                	xor	a3,a3,a4
    2d8c:	572e                	lw	a4,232(sp)
        Aku = BCu ^ ((~BCa) & BCe);
    2d8e:	47d6                	lw	a5,84(sp)
        Ako = BCo ^ ((~BCu) & BCa);
    2d90:	d436                	sw	a3,40(sp)
    2d92:	01b746b3          	xor	a3,a4,s11
        Aku = BCu ^ ((~BCa) & BCe);
    2d96:	574e                	lw	a4,240(sp)
    2d98:	4de6                	lw	s11,88(sp)
        Ako = BCo ^ ((~BCu) & BCa);
